00000000000b6a1c W _Z3fmtIJNSt6__ndk112basic_stringIcNS0_11char_traitsIcEENS0_9allocatorIcEEEEEES6_DpT_
00000000000b8d68 W _Z3fmtIJPKcNSt6__ndk112basic_stringIcNS2_11char_traitsIcEENS2_9allocatorIcEEEES1_EES8_DpT_
00000000000b56b0 W _Z3fmtIJPKcS1_EENSt6__ndk112basic_stringIcNS2_11char_traitsIcEENS2_9allocatorIcEEEEDpT_
00000000000b5c70 W _Z3fmtIJPKcS1_mS1_EENSt6__ndk112basic_stringIcNS2_11char_traitsIcEENS2_9allocatorIcEEEEDpT_
00000000000b5d7c W _Z3fmtIJPKcS1_mS1_NSt6__ndk112basic_stringIcNS2_11char_traitsIcEENS2_9allocatorIcEEEES1_EES8_DpT_
00000000000b5ec0 W _Z3fmtIJPKcS1_mS1_NSt6__ndk112basic_stringIcNS2_11char_traitsIcEENS2_9allocatorIcEEEES1_S8_EES8_DpT_
00000000000b8e7c W _Z3fmtIJPKclS1_EENSt6__ndk112basic_stringIcNS2_11char_traitsIcEENS2_9allocatorIcEEEEDpT_
00000000000b6da4 W _Z4fmt2INSt6__ndk112basic_stringIcNS0_11char_traitsIcEENS0_9allocatorIcEEEEJEEvRNS0_19basic_ostringstreamIcS3_S5_EET_DpT0_
00000000000b910c W _Z4fmt2INSt6__ndk112basic_stringIcNS0_11char_traitsIcEENS0_9allocatorIcEEEEJPKcEEvRNS0_19basic_ostringstreamIcS3_S5_EET_DpT0_
00000000000c0af4 W _Z4fmt2INSt6__ndk112basic_stringIcNS0_11char_traitsIcEENS0_9allocatorIcEEEEJPKcS6_EEvRNS0_19basic_ostringstreamIcS3_S5_EET_DpT0_
00000000000b9148 W _Z4fmt2IPKcJEEvRNSt6__ndk119basic_ostringstreamIcNS2_11char_traitsIcEENS2_9allocatorIcEEEET_DpT0_
00000000000c0bcc W _Z4fmt2IPKcJNSt6__ndk112basic_stringIcNS2_11char_traitsIcEENS2_9allocatorIcEEEEEEvRNS2_19basic_ostringstreamIcS5_S7_EET_DpT0_
00000000000b8ff0 W _Z4fmt2IPKcJNSt6__ndk112basic_stringIcNS2_11char_traitsIcEENS2_9allocatorIcEEEES1_EEvRNS2_19basic_ostringstreamIcS5_S7_EET_DpT0_
00000000000c09dc W _Z4fmt2IPKcJNSt6__ndk112basic_stringIcNS2_11char_traitsIcEENS2_9allocatorIcEEEES1_S8_EEvRNS2_19basic_ostringstreamIcS5_S7_EET_DpT0_
00000000000be680 W _Z4fmt2IPKcJS1_EEvRNSt6__ndk119basic_ostringstreamIcNS2_11char_traitsIcEENS2_9allocatorIcEEEET_DpT0_
00000000000bedf8 W _Z4fmt2IPKcJS1_mS1_EEvRNSt6__ndk119basic_ostringstreamIcNS2_11char_traitsIcEENS2_9allocatorIcEEEET_DpT0_
00000000000c0358 W _Z4fmt2IPKcJS1_mS1_NSt6__ndk112basic_stringIcNS2_11char_traitsIcEENS2_9allocatorIcEEEES1_EEvRNS2_19basic_ostringstreamIcS5_S7_EET_DpT0_
00000000000c0634 W _Z4fmt2IPKcJS1_mS1_NSt6__ndk112basic_stringIcNS2_11char_traitsIcEENS2_9allocatorIcEEEES1_S8_EEvRNS2_19basic_ostringstreamIcS5_S7_EET_DpT0_
00000000000b917c W _Z4fmt2IPKcJlS1_EEvRNSt6__ndk119basic_ostringstreamIcNS2_11char_traitsIcEENS2_9allocatorIcEEEET_DpT0_
00000000000bee44 W _Z4fmt2IPKcJmS1_EEvRNSt6__ndk119basic_ostringstreamIcNS2_11char_traitsIcEENS2_9allocatorIcEEEET_DpT0_
00000000000c045c W _Z4fmt2IPKcJmS1_NSt6__ndk112basic_stringIcNS2_11char_traitsIcEENS2_9allocatorIcEEEES1_EEvRNS2_19basic_ostringstreamIcS5_S7_EET_DpT0_
00000000000c077c W _Z4fmt2IPKcJmS1_NSt6__ndk112basic_stringIcNS2_11char_traitsIcEENS2_9allocatorIcEEEES1_S8_EEvRNS2_19basic_ostringstreamIcS5_S7_EET_DpT0_
00000000000b91c0 W _Z4fmt2IlJPKcEEvRNSt6__ndk119basic_ostringstreamIcNS2_11char_traitsIcEENS2_9allocatorIcEEEET_DpT0_
00000000000bee88 W _Z4fmt2ImJPKcEEvRNSt6__ndk119basic_ostringstreamIcNS2_11char_traitsIcEENS2_9allocatorIcEEEET_DpT0_
00000000000c0550 W _Z4fmt2ImJPKcNSt6__ndk112basic_stringIcNS2_11char_traitsIcEENS2_9allocatorIcEEEES1_EEvRNS2_19basic_ostringstreamIcS5_S7_EET_DpT0_
00000000000c08b4 W _Z4fmt2ImJPKcNSt6__ndk112basic_stringIcNS2_11char_traitsIcEENS2_9allocatorIcEEEES1_S8_EEvRNS2_19basic_ostringstreamIcS5_S7_EET_DpT0_
00000000000f5960 W _ZN4spanI10Elf32_RelaE3endEv
00000000000f5948 W _ZN4spanI10Elf32_RelaE5beginEv
00000000000f5988 W _ZN4spanI10Elf32_RelaEC2EPS0_m
0000000000119794 W _ZN4spanI10Elf64_RelaE3endEv
000000000011977c W _ZN4spanI10Elf64_RelaE5beginEv
00000000001197bc W _ZN4spanI10Elf64_RelaEC2EPS0_m
00000000000e63f8 W _ZN4spanI12Elf32_VerdefE5beginEv
00000000000e6530 W _ZN4spanI12Elf32_VerdefEC2EPS0_m
0000000000110918 W _ZN4spanI12Elf64_VerdefE5beginEv
0000000000110a50 W _ZN4spanI12Elf64_VerdefEC2EPS0_m
00000000000e655c W _ZN4spanI13Elf32_VerneedE5beginEv
00000000000e66b4 W _ZN4spanI13Elf32_VerneedEC2EPS0_m
0000000000110a7c W _ZN4spanI13Elf64_VerneedE5beginEv
0000000000110bd4 W _ZN4spanI13Elf64_VerneedEC2EPS0_m
00000000000e5d90 W _ZN4spanI9Elf32_DynE3endEv
00000000000e5d78 W _ZN4spanI9Elf32_DynE5beginEv
00000000000e63cc W _ZN4spanI9Elf32_DynEC2EPS0_m
00000000000f574c W _ZN4spanI9Elf32_RelE3endEv
00000000000f5734 W _ZN4spanI9Elf32_RelE5beginEv
00000000000f5850 W _ZN4spanI9Elf32_RelEC2EPS0_m
00000000000ef078 W _ZN4spanI9Elf32_SymE10checkRangeEm
00000000000e5bb0 W _ZN4spanI9Elf32_SymE3endEv
00000000000e5b98 W _ZN4spanI9Elf32_SymE5beginEv
00000000000ee25c W _ZN4spanI9Elf32_SymEC2EPS0_S2_
00000000000e629c W _ZN4spanI9Elf32_SymEC2EPS0_m
00000000000ee21c W _ZN4spanI9Elf32_SymEixEm
0000000000110220 W _ZN4spanI9Elf64_DynE3endEv
0000000000110208 W _ZN4spanI9Elf64_DynE5beginEv
00000000001108ec W _ZN4spanI9Elf64_DynEC2EPS0_m
0000000000119580 W _ZN4spanI9Elf64_RelE3endEv
0000000000119568 W _ZN4spanI9Elf64_RelE5beginEv
0000000000119688 W _ZN4spanI9Elf64_RelEC2EPS0_m
0000000000114a2c W _ZN4spanI9Elf64_SymE10checkRangeEm
0000000000110038 W _ZN4spanI9Elf64_SymE3endEv
0000000000110020 W _ZN4spanI9Elf64_SymE5beginEv
0000000000113f88 W _ZN4spanI9Elf64_SymEC2EPS0_S2_
0000000000110804 W _ZN4spanI9Elf64_SymEC2EPS0_m
0000000000113f40 W _ZN4spanI9Elf64_SymEixEm
00000000000ebbe8 W _ZN4spanIcE10checkRangeEm
00000000000ef058 W _ZN4spanIcE3endEv
00000000000ef014 W _ZN4spanIcE5beginEv
00000000000ea7a4 W _ZN4spanIcEC2EPcm
00000000000ea4d4 W _ZN4spanIcEixEm
00000000000f5aa0 W _ZN4spanIjE10checkRangeEm
00000000000eeef0 W _ZN4spanIjE3endEv
00000000000eeed8 W _ZN4spanIjE5beginEv
00000000000ef02c W _ZN4spanIjEC2EPjm
00000000000eef10 W _ZN4spanIjEixEm
00000000001198d4 W _ZN4spanImE10checkRangeEm
0000000000114924 W _ZN4spanImE3endEv
000000000011490c W _ZN4spanImE5beginEv
0000000000114a00 W _ZN4spanImEC2EPmm
000000000011495c W _ZN4spanImEixEm
00000000000ef214 W _ZN4spanItE10checkRangeEm
00000000000ee41c W _ZN4spanItE3endEv
00000000000f4554 W _ZN4spanItE5beginEv
00000000000ee43c W _ZN4spanItEC2EPtS1_
00000000000ef1d0 W _ZN4spanItEC2EPtm
00000000000ee3dc W _ZN4spanItEixEm
00000000000cabbc W _ZN7ElfFileI10Elf32_Ehdr10Elf32_Phdr10Elf32_Shdrjj9Elf32_Dyn9Elf32_Symt12Elf32_Verdef13Elf32_Verdaux13Elf32_Verneed13Elf32_Vernaux9Elf32_Rel10Elf32_RelaLj32EE11addDebugTagEv
00000000000c6f14 W _ZN7ElfFileI10Elf32_Ehdr10Elf32_Phdr10Elf32_Shdrjj9Elf32_Dyn9Elf32_Symt12Elf32_Verdef13Elf32_Verdaux13Elf32_Verneed13Elf32_Vernaux9Elf32_Rel10Elf32_RelaLj32EE11modifyOsAbiENSB_9osAbiModeERKNSt6__ndk112basic_stringIcNSD_11char_traitsIcEENSD_9allocatorIcEEEE
00000000000c7c58 W _ZN7ElfFileI10Elf32_Ehdr10Elf32_Phdr10Elf32_Shdrjj9Elf32_Dyn9Elf32_Symt12Elf32_Verdef13Elf32_Verdaux13Elf32_Verneed13Elf32_Vernaux9Elf32_Rel10Elf32_RelaLj32EE11modifyRPathENSB_7RPathOpERKNSt6__ndk16vectorINSD_12basic_stringIcNSD_11char_traitsIcEENSD_9allocatorIcEEEENSI_ISK_EEEESK_
00000000000e3608 W _ZN7ElfFileI10Elf32_Ehdr10Elf32_Phdr10Elf32_Shdrjj9Elf32_Dyn9Elf32_Symt12Elf32_Verdef13Elf32_Verdaux13Elf32_Verneed13Elf32_Vernaux9Elf32_Rel10Elf32_RelaLj32EE11removeRPathERS2_
00000000000e3784 W _ZN7ElfFileI10Elf32_Ehdr10Elf32_Phdr10Elf32_Shdrjj9Elf32_Dyn9Elf32_Symt12Elf32_Verdef13Elf32_Verdaux13Elf32_Verneed13Elf32_Vernaux9Elf32_Rel10Elf32_RelaLj32EE11shrinkRPathEPcRNSt6__ndk16vectorINSD_12basic_stringIcNSD_11char_traitsIcEENSD_9allocatorIcEEEENSI_ISK_EEEERKSM_
00000000000c74e0 W _ZN7ElfFileI10Elf32_Ehdr10Elf32_Phdr10Elf32_Shdrjj9Elf32_Dyn9Elf32_Symt12Elf32_Verdef13Elf32_Verdaux13Elf32_Verneed13Elf32_Vernaux9Elf32_Rel10Elf32_RelaLj32EE12modifySonameENSB_10sonameModeERKNSt6__ndk112basic_stringIcNSD_11char_traitsIcEENSD_9allocatorIcEEEE
00000000000ca838 W _ZN7ElfFileI10Elf32_Ehdr10Elf32_Phdr10Elf32_Shdrjj9Elf32_Dyn9Elf32_Symt12Elf32_Verdef13Elf32_Verdaux13Elf32_Verneed13Elf32_Vernaux9Elf32_Rel10Elf32_RelaLj32EE12noDefaultLibEv
00000000000c8fa8 W _ZN7ElfFileI10Elf32_Ehdr10Elf32_Phdr10Elf32_Shdrjj9Elf32_Dyn9Elf32_Symt12Elf32_Verdef13Elf32_Verdaux13Elf32_Verneed13Elf32_Vernaux9Elf32_Rel10Elf32_RelaLj32EE12removeNeededERKNSt6__ndk13setINSC_12basic_stringIcNSC_11char_traitsIcEENSC_9allocatorIcEEEENSC_4lessISJ_EENSH_ISJ_EEEE
00000000000e5fdc W _ZN7ElfFileI10Elf32_Ehdr10Elf32_Phdr10Elf32_Shdrjj9Elf32_Dyn9Elf32_Symt12Elf32_Verdef13Elf32_Verdaux13Elf32_Verneed13Elf32_Vernaux9Elf32_Rel10Elf32_RelaLj32EE13forAll_ElfVerIZNSB_22forAllStringReferencesIZNSB_11modifyRPathENSB_7RPathOpERKNSt6__ndk16vectorINSF_12basic_stringIcNSF_11char_traitsIcEENSF_9allocatorIcEEEENSK_ISM_EEEESM_EUlT_E_EEvRKS2_OSR_EUlRSR_E1_ZNSD_ISS_EEvSU_SV_EUlSW_E2_EEv4spanIS7_ESV_OT0_
00000000000e5dd4 W _ZN7ElfFileI10Elf32_Ehdr10Elf32_Phdr10Elf32_Shdrjj9Elf32_Dyn9Elf32_Symt12Elf32_Verdef13Elf32_Verdaux13Elf32_Verneed13Elf32_Vernaux9Elf32_Rel10Elf32_RelaLj32EE13forAll_ElfVerIZNSB_22forAllStringReferencesIZNSB_11modifyRPathENSB_7RPathOpERKNSt6__ndk16vectorINSF_12basic_stringIcNSF_11char_traitsIcEENSF_9allocatorIcEEEENSK_ISM_EEEESM_EUlT_E_EEvRKS2_OSR_EUlRSR_E_ZNSD_ISS_EEvSU_SV_EUlSW_E0_EEv4spanIS5_ESV_OT0_
00000000000c92ec W _ZN7ElfFileI10Elf32_Ehdr10Elf32_Phdr10Elf32_Shdrjj9Elf32_Dyn9Elf32_Symt12Elf32_Verdef13Elf32_Verdaux13Elf32_Verneed13Elf32_Vernaux9Elf32_Rel10Elf32_RelaLj32EE13replaceNeededERKNSt6__ndk13mapINSC_12basic_stringIcNSC_11char_traitsIcEENSC_9allocatorIcEEEESJ_NSC_4lessISJ_EENSH_INSC_4pairIKSJ_SJ_EEEEEE
00000000000ea2b0 W _ZN7ElfFileI10Elf32_Ehdr10Elf32_Phdr10Elf32_Shdrjj9Elf32_Dyn9Elf32_Symt12Elf32_Verdef13Elf32_Verdaux13Elf32_Verneed13Elf32_Vernaux9Elf32_Rel10Elf32_RelaLj32EE14getSectionSpanIS4_EE4spanIT_ERKNSt6__ndk112basic_stringIcNSG_11char_traitsIcEENSG_9allocatorIcEEEE
00000000000ea2fc W _ZN7ElfFileI10Elf32_Ehdr10Elf32_Phdr10Elf32_Shdrjj9Elf32_Dyn9Elf32_Symt12Elf32_Verdef13Elf32_Verdaux13Elf32_Verneed13Elf32_Vernaux9Elf32_Rel10Elf32_RelaLj32EE14getSectionSpanIcEE4spanIT_ERKNSt6__ndk112basic_stringIcNSG_11char_traitsIcEENSG_9allocatorIcEEEE
00000000000f5cc0 W _ZN7ElfFileI10Elf32_Ehdr10Elf32_Phdr10Elf32_Shdrjj9Elf32_Dyn9Elf32_Symt12Elf32_Verdef13Elf32_Verdaux13Elf32_Verneed13Elf32_Vernaux9Elf32_Rel10Elf32_RelaLj32EE14parseHashTableE4spanIcE
00000000000cd37c W _ZN7ElfFileI10Elf32_Ehdr10Elf32_Phdr10Elf32_Shdrjj9Elf32_Dyn9Elf32_Symt12Elf32_Verdef13Elf32_Verdaux13Elf32_Verneed13Elf32_Vernaux9Elf32_Rel10Elf32_RelaLj32EE14replaceSectionERKNSt6__ndk112basic_stringIcNSC_11char_traitsIcEENSC_9allocatorIcEEEEj
00000000000d25d8 W _ZN7ElfFileI10Elf32_Ehdr10Elf32_Phdr10Elf32_Shdrjj9Elf32_Dyn9Elf32_Symt12Elf32_Verdef13Elf32_Verdaux13Elf32_Verneed13Elf32_Vernaux9Elf32_Rel10Elf32_RelaLj32EE14rewriteHeadersEj
00000000000c7b10 W _ZN7ElfFileI10Elf32_Ehdr10Elf32_Phdr10Elf32_Shdrjj9Elf32_Dyn9Elf32_Symt12Elf32_Verdef13Elf32_Verdaux13Elf32_Verneed13Elf32_Vernaux9Elf32_Rel10Elf32_RelaLj32EE14setInterpreterERKNSt6__ndk112basic_stringIcNSC_11char_traitsIcEENSC_9allocatorIcEEEE
00000000000c87dc W _ZN7ElfFileI10Elf32_Ehdr10Elf32_Phdr10Elf32_Shdrjj9Elf32_Dyn9Elf32_Symt12Elf32_Verdef13Elf32_Verdaux13Elf32_Verneed13Elf32_Vernaux9Elf32_Rel10Elf32_RelaLj32EE15modifyExecstackENSB_13ExecstackModeE
00000000000cd88c W _ZN7ElfFileI10Elf32_Ehdr10Elf32_Phdr10Elf32_Shdrjj9Elf32_Dyn9Elf32_Symt12Elf32_Verdef13Elf32_Verdaux13Elf32_Verneed13Elf32_Vernaux9Elf32_Rel10Elf32_RelaLj32EE15rewriteSectionsEb
00000000000eb254 W _ZN7ElfFileI10Elf32_Ehdr10Elf32_Phdr10Elf32_Shdrjj9Elf32_Dyn9Elf32_Symt12Elf32_Verdef13Elf32_Verdaux13Elf32_Verneed13Elf32_Vernaux9Elf32_Rel10Elf32_RelaLj32EE16rebuildHashTableE4spanIcESC_IS4_E
00000000000ee0c0 W _ZN7ElfFileI10Elf32_Ehdr10Elf32_Phdr10Elf32_Shdrjj9Elf32_Dyn9Elf32_Symt12Elf32_Verdef13Elf32_Verdaux13Elf32_Verneed13Elf32_Vernaux9Elf32_Rel10Elf32_RelaLj32EE17parseGnuHashTableE4spanIcE
00000000000e5ca4 W _ZN7ElfFileI10Elf32_Ehdr10Elf32_Phdr10Elf32_Shdrjj9Elf32_Dyn9Elf32_Symt12Elf32_Verdef13Elf32_Verdaux13Elf32_Verneed13Elf32_Vernaux9Elf32_Rel10Elf32_RelaLj32EE17tryGetSectionSpanIS3_EE4spanIT_ERKNSt6__ndk112basic_stringIcNSG_11char_traitsIcEENSG_9allocatorIcEEEE
00000000000e5ac4 W _ZN7ElfFileI10Elf32_Ehdr10Elf32_Phdr10Elf32_Shdrjj9Elf32_Dyn9Elf32_Symt12Elf32_Verdef13Elf32_Verdaux13Elf32_Verneed13Elf32_Vernaux9Elf32_Rel10Elf32_RelaLj32EE17tryGetSectionSpanIS4_EE4spanIT_ERKNSt6__ndk112basic_stringIcNSG_11char_traitsIcEENSG_9allocatorIcEEEE
00000000000edfc0 W _ZN7ElfFileI10Elf32_Ehdr10Elf32_Phdr10Elf32_Shdrjj9Elf32_Dyn9Elf32_Symt12Elf32_Verdef13Elf32_Verdaux13Elf32_Verneed13Elf32_Vernaux9Elf32_Rel10Elf32_RelaLj32EE17tryGetSectionSpanIcEE4spanIT_ERKNSt6__ndk112basic_stringIcNSG_11char_traitsIcEENSG_9allocatorIcEEEE
00000000000ee2dc W _ZN7ElfFileI10Elf32_Ehdr10Elf32_Phdr10Elf32_Shdrjj9Elf32_Dyn9Elf32_Symt12Elf32_Verdef13Elf32_Verdaux13Elf32_Verneed13Elf32_Vernaux9Elf32_Rel10Elf32_RelaLj32EE17tryGetSectionSpanItEE4spanIT_ERKNSt6__ndk112basic_stringIcNSG_11char_traitsIcEENSG_9allocatorIcEEEE
00000000000ca444 W _ZN7ElfFileI10Elf32_Ehdr10Elf32_Phdr10Elf32_Shdrjj9Elf32_Dyn9Elf32_Symt12Elf32_Verdef13Elf32_Verdaux13Elf32_Verneed13Elf32_Vernaux9Elf32_Rel10Elf32_RelaLj32EE19clearSymbolVersionsERKNSt6__ndk13setINSC_12basic_stringIcNSC_11char_traitsIcEENSC_9allocatorIcEEEENSC_4lessISJ_EENSH_ISJ_EEEE
00000000000ea894 W _ZN7ElfFileI10Elf32_Ehdr10Elf32_Phdr10Elf32_Shdrjj9Elf32_Dyn9Elf32_Symt12Elf32_Verdef13Elf32_Verdaux13Elf32_Verneed13Elf32_Vernaux9Elf32_Rel10Elf32_RelaLj32EE19rebuildGnuHashTableE4spanIcESC_IS4_E
00000000000caef0 W _ZN7ElfFileI10Elf32_Ehdr10Elf32_Phdr10Elf32_Shdrjj9Elf32_Dyn9Elf32_Symt12Elf32_Verdef13Elf32_Verdaux13Elf32_Verneed13Elf32_Vernaux9Elf32_Rel10Elf32_RelaLj32EE20renameDynamicSymbolsERKNSt6__ndk113unordered_mapINSC_17basic_string_viewIcNSC_11char_traitsIcEEEENSC_12basic_stringIcSG_NSC_9allocatorIcEEEENSC_4hashISH_EENSC_8equal_toISH_EENSJ_INSC_4pairIKSH_SL_EEEEEE
00000000000d14d8 W _ZN7ElfFileI10Elf32_Ehdr10Elf32_Phdr10Elf32_Shdrjj9Elf32_Dyn9Elf32_Symt12Elf32_Verdef13Elf32_Verdaux13Elf32_Verneed13Elf32_Vernaux9Elf32_Rel10Elf32_RelaLj32EE21normalizeNoteSegmentsEv
00000000000d1af4 W _ZN7ElfFileI10Elf32_Ehdr10Elf32_Phdr10Elf32_Shdrjj9Elf32_Dyn9Elf32_Symt12Elf32_Verdef13Elf32_Verdaux13Elf32_Verneed13Elf32_Vernaux9Elf32_Rel10Elf32_RelaLj32EE21writeReplacedSectionsERjjj
00000000000eec30 W _ZN7ElfFileI10Elf32_Ehdr10Elf32_Phdr10Elf32_Shdrjj9Elf32_Dyn9Elf32_Symt12Elf32_Verdef13Elf32_Verdaux13Elf32_Verneed13Elf32_Vernaux9Elf32_Rel10Elf32_RelaLj32EE22changeRelocTableSymIdsIS9_RZNSB_19rebuildGnuHashTableE4spanIcESD_IS4_EEUlRT_E_EEvRKS2_OT0_
00000000000eed68 W _ZN7ElfFileI10Elf32_Ehdr10Elf32_Phdr10Elf32_Shdrjj9Elf32_Dyn9Elf32_Symt12Elf32_Verdef13Elf32_Verdaux13Elf32_Verneed13Elf32_Vernaux9Elf32_Rel10Elf32_RelaLj32EE22changeRelocTableSymIdsISA_RZNSB_19rebuildGnuHashTableE4spanIcESD_IS4_EEUlRT_E_EEvRKS2_OT0_
00000000000e3d14 W _ZN7ElfFileI10Elf32_Ehdr10Elf32_Phdr10Elf32_Shdrjj9Elf32_Dyn9Elf32_Symt12Elf32_Verdef13Elf32_Verdaux13Elf32_Verneed13Elf32_Vernaux9Elf32_Rel10Elf32_RelaLj32EE22forAllStringReferencesIZNSB_11modifyRPathENSB_7RPathOpERKNSt6__ndk16vectorINSE_12basic_stringIcNSE_11char_traitsIcEENSE_9allocatorIcEEEENSJ_ISL_EEEESL_EUlT_E_EEvRKS2_OSQ_
00000000000cf32c W _ZN7ElfFileI10Elf32_Ehdr10Elf32_Phdr10Elf32_Shdrjj9Elf32_Dyn9Elf32_Symt12Elf32_Verdef13Elf32_Verdaux13Elf32_Verneed13Elf32_Vernaux9Elf32_Rel10Elf32_RelaLj32EE22rewriteSectionsLibraryEv
00000000000cfd10 W _ZN7ElfFileI10Elf32_Ehdr10Elf32_Phdr10Elf32_Shdrjj9Elf32_Dyn9Elf32_Symt12Elf32_Verdef13Elf32_Verdaux13Elf32_Verneed13Elf32_Vernaux9Elf32_Rel10Elf32_RelaLj32EE25rewriteSectionsExecutableEv
00000000000cc454 W _ZN7ElfFileI10Elf32_Ehdr10Elf32_Phdr10Elf32_Shdrjj9Elf32_Dyn9Elf32_Symt12Elf32_Verdef13Elf32_Verdaux13Elf32_Verneed13Elf32_Vernaux9Elf32_Rel10Elf32_RelaLj32EE3hdrEv
00000000000e64e8 W _ZN7ElfFileI10Elf32_Ehdr10Elf32_Phdr10Elf32_Shdrjj9Elf32_Dyn9Elf32_Symt12Elf32_Verdef13Elf32_Verdaux13Elf32_Verneed13Elf32_Vernaux9Elf32_Rel10Elf32_RelaLj32EE6followIS5_S5_EEPT_PT0_m
00000000000e6424 W _ZN7ElfFileI10Elf32_Ehdr10Elf32_Phdr10Elf32_Shdrjj9Elf32_Dyn9Elf32_Symt12Elf32_Verdef13Elf32_Verdaux13Elf32_Verneed13Elf32_Vernaux9Elf32_Rel10Elf32_RelaLj32EE6followIS6_S5_EEPT_PT0_m
00000000000e64a0 W _ZN7ElfFileI10Elf32_Ehdr10Elf32_Phdr10Elf32_Shdrjj9Elf32_Dyn9Elf32_Symt12Elf32_Verdef13Elf32_Verdaux13Elf32_Verneed13Elf32_Vernaux9Elf32_Rel10Elf32_RelaLj32EE6followIS6_S6_EEPT_PT0_m
00000000000e666c W _ZN7ElfFileI10Elf32_Ehdr10Elf32_Phdr10Elf32_Shdrjj9Elf32_Dyn9Elf32_Symt12Elf32_Verdef13Elf32_Verdaux13Elf32_Verneed13Elf32_Vernaux9Elf32_Rel10Elf32_RelaLj32EE6followIS7_S7_EEPT_PT0_m
00000000000e65a8 W _ZN7ElfFileI10Elf32_Ehdr10Elf32_Phdr10Elf32_Shdrjj9Elf32_Dyn9Elf32_Symt12Elf32_Verdef13Elf32_Verdaux13Elf32_Verneed13Elf32_Vernaux9Elf32_Rel10Elf32_RelaLj32EE6followIS8_S7_EEPT_PT0_m
00000000000e6624 W _ZN7ElfFileI10Elf32_Ehdr10Elf32_Phdr10Elf32_Shdrjj9Elf32_Dyn9Elf32_Symt12Elf32_Verdef13Elf32_Verdaux13Elf32_Verneed13Elf32_Vernaux9Elf32_Rel10Elf32_RelaLj32EE6followIS8_S8_EEPT_PT0_m
00000000000c9e04 W _ZN7ElfFileI10Elf32_Ehdr10Elf32_Phdr10Elf32_Shdrjj9Elf32_Dyn9Elf32_Symt12Elf32_Verdef13Elf32_Verdaux13Elf32_Verneed13Elf32_Vernaux9Elf32_Rel10Elf32_RelaLj32EE9addNeededERKNSt6__ndk13setINSC_12basic_stringIcNSC_11char_traitsIcEENSC_9allocatorIcEEEENSC_4lessISJ_EENSH_ISJ_EEEE
00000000000e2ad4 W _ZN7ElfFileI10Elf32_Ehdr10Elf32_Phdr10Elf32_Shdrjj9Elf32_Dyn9Elf32_Symt12Elf32_Verdef13Elf32_Verdaux13Elf32_Verneed13Elf32_Vernaux9Elf32_Rel10Elf32_RelaLj32EE9shiftFileEjmm
00000000000d8aa4 W _ZN7ElfFileI10Elf32_Ehdr10Elf32_Phdr10Elf32_Shdrjj9Elf32_Dyn9Elf32_Symt12Elf32_Verdef13Elf32_Verdaux13Elf32_Verneed13Elf32_Vernaux9Elf32_Rel10Elf32_RelaLj32EE9sortPhdrsEv
00000000000d8b2c W _ZN7ElfFileI10Elf32_Ehdr10Elf32_Phdr10Elf32_Shdrjj9Elf32_Dyn9Elf32_Symt12Elf32_Verdef13Elf32_Verdaux13Elf32_Verneed13Elf32_Vernaux9Elf32_Rel10Elf32_RelaLj32EE9sortShdrsEv
00000000000c4fa0 W _ZN7ElfFileI10Elf32_Ehdr10Elf32_Phdr10Elf32_Shdrjj9Elf32_Dyn9Elf32_Symt12Elf32_Verdef13Elf32_Verdaux13Elf32_Verneed13Elf32_Vernaux9Elf32_Rel10Elf32_RelaLj32EEC2ENSt6__ndk110shared_ptrINSC_6vectorIhNSC_9allocatorIhEEEEEE
00000000000c5aa8 W _ZN7ElfFileI10Elf32_Ehdr10Elf32_Phdr10Elf32_Shdrjj9Elf32_Dyn9Elf32_Symt12Elf32_Verdef13Elf32_Verdaux13Elf32_Verneed13Elf32_Vernaux9Elf32_Rel10Elf32_RelaLj32EED2Ev
00000000000fb344 W _ZN7ElfFileI10Elf64_Ehdr10Elf64_Phdr10Elf64_Shdrmm9Elf64_Dyn9Elf64_Symt12Elf64_Verdef13Elf64_Verdaux13Elf64_Verneed13Elf64_Vernaux9Elf64_Rel10Elf64_RelaLj64EE11addDebugTagEv
00000000000f7524 W _ZN7ElfFileI10Elf64_Ehdr10Elf64_Phdr10Elf64_Shdrmm9Elf64_Dyn9Elf64_Symt12Elf64_Verdef13Elf64_Verdaux13Elf64_Verneed13Elf64_Vernaux9Elf64_Rel10Elf64_RelaLj64EE11modifyOsAbiENSB_9osAbiModeERKNSt6__ndk112basic_stringIcNSD_11char_traitsIcEENSD_9allocatorIcEEEE
00000000000f8294 W _ZN7ElfFileI10Elf64_Ehdr10Elf64_Phdr10Elf64_Shdrmm9Elf64_Dyn9Elf64_Symt12Elf64_Verdef13Elf64_Verdaux13Elf64_Verneed13Elf64_Vernaux9Elf64_Rel10Elf64_RelaLj64EE11modifyRPathENSB_7RPathOpERKNSt6__ndk16vectorINSD_12basic_stringIcNSD_11char_traitsIcEENSD_9allocatorIcEEEENSI_ISK_EEEESK_
000000000010f408 W _ZN7ElfFileI10Elf64_Ehdr10Elf64_Phdr10Elf64_Shdrmm9Elf64_Dyn9Elf64_Symt12Elf64_Verdef13Elf64_Verdaux13Elf64_Verneed13Elf64_Vernaux9Elf64_Rel10Elf64_RelaLj64EE11removeRPathERS2_
000000000010f584 W _ZN7ElfFileI10Elf64_Ehdr10Elf64_Phdr10Elf64_Shdrmm9Elf64_Dyn9Elf64_Symt12Elf64_Verdef13Elf64_Verdaux13Elf64_Verneed13Elf64_Vernaux9Elf64_Rel10Elf64_RelaLj64EE11shrinkRPathEPcRNSt6__ndk16vectorINSD_12basic_stringIcNSD_11char_traitsIcEENSD_9allocatorIcEEEENSI_ISK_EEEERKSM_
00000000000f7af0 W _ZN7ElfFileI10Elf64_Ehdr10Elf64_Phdr10Elf64_Shdrmm9Elf64_Dyn9Elf64_Symt12Elf64_Verdef13Elf64_Verdaux13Elf64_Verneed13Elf64_Vernaux9Elf64_Rel10Elf64_RelaLj64EE12modifySonameENSB_10sonameModeERKNSt6__ndk112basic_stringIcNSD_11char_traitsIcEENSD_9allocatorIcEEEE
00000000000fafac W _ZN7ElfFileI10Elf64_Ehdr10Elf64_Phdr10Elf64_Shdrmm9Elf64_Dyn9Elf64_Symt12Elf64_Verdef13Elf64_Verdaux13Elf64_Verneed13Elf64_Vernaux9Elf64_Rel10Elf64_RelaLj64EE12noDefaultLibEv
00000000000f968c W _ZN7ElfFileI10Elf64_Ehdr10Elf64_Phdr10Elf64_Shdrmm9Elf64_Dyn9Elf64_Symt12Elf64_Verdef13Elf64_Verdaux13Elf64_Verneed13Elf64_Vernaux9Elf64_Rel10Elf64_RelaLj64EE12removeNeededERKNSt6__ndk13setINSC_12basic_stringIcNSC_11char_traitsIcEENSC_9allocatorIcEEEENSC_4lessISJ_EENSH_ISJ_EEEE
0000000000110540 W _ZN7ElfFileI10Elf64_Ehdr10Elf64_Phdr10Elf64_Shdrmm9Elf64_Dyn9Elf64_Symt12Elf64_Verdef13Elf64_Verdaux13Elf64_Verneed13Elf64_Vernaux9Elf64_Rel10Elf64_RelaLj64EE13forAll_ElfVerIZNSB_22forAllStringReferencesIZNSB_11modifyRPathENSB_7RPathOpERKNSt6__ndk16vectorINSF_12basic_stringIcNSF_11char_traitsIcEENSF_9allocatorIcEEEENSK_ISM_EEEESM_EUlT_E_EEvRKS2_OSR_EUlRSR_E1_ZNSD_ISS_EEvSU_SV_EUlSW_E2_EEv4spanIS7_ESV_OT0_
0000000000110338 W _ZN7ElfFileI10Elf64_Ehdr10Elf64_Phdr10Elf64_Shdrmm9Elf64_Dyn9Elf64_Symt12Elf64_Verdef13Elf64_Verdaux13Elf64_Verneed13Elf64_Vernaux9Elf64_Rel10Elf64_RelaLj64EE13forAll_ElfVerIZNSB_22forAllStringReferencesIZNSB_11modifyRPathENSB_7RPathOpERKNSt6__ndk16vectorINSF_12basic_stringIcNSF_11char_traitsIcEENSF_9allocatorIcEEEENSK_ISM_EEEESM_EUlT_E_EEvRKS2_OSR_EUlRSR_E_ZNSD_ISS_EEvSU_SV_EUlSW_E0_EEv4spanIS5_ESV_OT0_
00000000000f99e0 W _ZN7ElfFileI10Elf64_Ehdr10Elf64_Phdr10Elf64_Shdrmm9Elf64_Dyn9Elf64_Symt12Elf64_Verdef13Elf64_Verdaux13Elf64_Verneed13Elf64_Vernaux9Elf64_Rel10Elf64_RelaLj64EE13replaceNeededERKNSt6__ndk13mapINSC_12basic_stringIcNSC_11char_traitsIcEENSC_9allocatorIcEEEESJ_NSC_4lessISJ_EENSH_INSC_4pairIKSJ_SJ_EEEEEE
0000000000112ec4 W _ZN7ElfFileI10Elf64_Ehdr10Elf64_Phdr10Elf64_Shdrmm9Elf64_Dyn9Elf64_Symt12Elf64_Verdef13Elf64_Verdaux13Elf64_Verneed13Elf64_Vernaux9Elf64_Rel10Elf64_RelaLj64EE14getSectionSpanIS4_EE4spanIT_ERKNSt6__ndk112basic_stringIcNSG_11char_traitsIcEENSG_9allocatorIcEEEE
0000000000112f10 W _ZN7ElfFileI10Elf64_Ehdr10Elf64_Phdr10Elf64_Shdrmm9Elf64_Dyn9Elf64_Symt12Elf64_Verdef13Elf64_Verdaux13Elf64_Verneed13Elf64_Vernaux9Elf64_Rel10Elf64_RelaLj64EE14getSectionSpanIcEE4spanIT_ERKNSt6__ndk112basic_stringIcNSG_11char_traitsIcEENSG_9allocatorIcEEEE
0000000000119af4 W _ZN7ElfFileI10Elf64_Ehdr10Elf64_Phdr10Elf64_Shdrmm9Elf64_Dyn9Elf64_Symt12Elf64_Verdef13Elf64_Verdaux13Elf64_Verneed13Elf64_Vernaux9Elf64_Rel10Elf64_RelaLj64EE14parseHashTableE4spanIcE
00000000000fc944 W _ZN7ElfFileI10Elf64_Ehdr10Elf64_Phdr10Elf64_Shdrmm9Elf64_Dyn9Elf64_Symt12Elf64_Verdef13Elf64_Verdaux13Elf64_Verneed13Elf64_Vernaux9Elf64_Rel10Elf64_RelaLj64EE14replaceSectionERKNSt6__ndk112basic_stringIcNSC_11char_traitsIcEENSC_9allocatorIcEEEEj
00000000000ffe1c W _ZN7ElfFileI10Elf64_Ehdr10Elf64_Phdr10Elf64_Shdrmm9Elf64_Dyn9Elf64_Symt12Elf64_Verdef13Elf64_Verdaux13Elf64_Verneed13Elf64_Vernaux9Elf64_Rel10Elf64_RelaLj64EE14rewriteHeadersEm
00000000000f814c W _ZN7ElfFileI10Elf64_Ehdr10Elf64_Phdr10Elf64_Shdrmm9Elf64_Dyn9Elf64_Symt12Elf64_Verdef13Elf64_Verdaux13Elf64_Verneed13Elf64_Vernaux9Elf64_Rel10Elf64_RelaLj64EE14setInterpreterERKNSt6__ndk112basic_stringIcNSC_11char_traitsIcEENSC_9allocatorIcEEEE
00000000000f8e3c W _ZN7ElfFileI10Elf64_Ehdr10Elf64_Phdr10Elf64_Shdrmm9Elf64_Dyn9Elf64_Symt12Elf64_Verdef13Elf64_Verdaux13Elf64_Verneed13Elf64_Vernaux9Elf64_Rel10Elf64_RelaLj64EE15modifyExecstackENSB_13ExecstackModeE
00000000000fcc20 W _ZN7ElfFileI10Elf64_Ehdr10Elf64_Phdr10Elf64_Shdrmm9Elf64_Dyn9Elf64_Symt12Elf64_Verdef13Elf64_Verdaux13Elf64_Verneed13Elf64_Vernaux9Elf64_Rel10Elf64_RelaLj64EE15rewriteSectionsEb
0000000000113904 W _ZN7ElfFileI10Elf64_Ehdr10Elf64_Phdr10Elf64_Shdrmm9Elf64_Dyn9Elf64_Symt12Elf64_Verdef13Elf64_Verdaux13Elf64_Verneed13Elf64_Vernaux9Elf64_Rel10Elf64_RelaLj64EE16rebuildHashTableE4spanIcESC_IS4_E
0000000000113dfc W _ZN7ElfFileI10Elf64_Ehdr10Elf64_Phdr10Elf64_Shdrmm9Elf64_Dyn9Elf64_Symt12Elf64_Verdef13Elf64_Verdaux13Elf64_Verneed13Elf64_Vernaux9Elf64_Rel10Elf64_RelaLj64EE17parseGnuHashTableE4spanIcE
0000000000110134 W _ZN7ElfFileI10Elf64_Ehdr10Elf64_Phdr10Elf64_Shdrmm9Elf64_Dyn9Elf64_Symt12Elf64_Verdef13Elf64_Verdaux13Elf64_Verneed13Elf64_Vernaux9Elf64_Rel10Elf64_RelaLj64EE17tryGetSectionSpanIS3_EE4spanIT_ERKNSt6__ndk112basic_stringIcNSG_11char_traitsIcEENSG_9allocatorIcEEEE
000000000010ff4c W _ZN7ElfFileI10Elf64_Ehdr10Elf64_Phdr10Elf64_Shdrmm9Elf64_Dyn9Elf64_Symt12Elf64_Verdef13Elf64_Verdaux13Elf64_Verneed13Elf64_Vernaux9Elf64_Rel10Elf64_RelaLj64EE17tryGetSectionSpanIS4_EE4spanIT_ERKNSt6__ndk112basic_stringIcNSG_11char_traitsIcEENSG_9allocatorIcEEEE
0000000000113d28 W _ZN7ElfFileI10Elf64_Ehdr10Elf64_Phdr10Elf64_Shdrmm9Elf64_Dyn9Elf64_Symt12Elf64_Verdef13Elf64_Verdaux13Elf64_Verneed13Elf64_Vernaux9Elf64_Rel10Elf64_RelaLj64EE17tryGetSectionSpanIcEE4spanIT_ERKNSt6__ndk112basic_stringIcNSG_11char_traitsIcEENSG_9allocatorIcEEEE
0000000000114008 W _ZN7ElfFileI10Elf64_Ehdr10Elf64_Phdr10Elf64_Shdrmm9Elf64_Dyn9Elf64_Symt12Elf64_Verdef13Elf64_Verdaux13Elf64_Verneed13Elf64_Vernaux9Elf64_Rel10Elf64_RelaLj64EE17tryGetSectionSpanItEE4spanIT_ERKNSt6__ndk112basic_stringIcNSG_11char_traitsIcEENSG_9allocatorIcEEEE
00000000000fab88 W _ZN7ElfFileI10Elf64_Ehdr10Elf64_Phdr10Elf64_Shdrmm9Elf64_Dyn9Elf64_Symt12Elf64_Verdef13Elf64_Verdaux13Elf64_Verneed13Elf64_Vernaux9Elf64_Rel10Elf64_RelaLj64EE19clearSymbolVersionsERKNSt6__ndk13setINSC_12basic_stringIcNSC_11char_traitsIcEENSC_9allocatorIcEEEENSC_4lessISJ_EENSH_ISJ_EEEE
0000000000112f5c W _ZN7ElfFileI10Elf64_Ehdr10Elf64_Phdr10Elf64_Shdrmm9Elf64_Dyn9Elf64_Symt12Elf64_Verdef13Elf64_Verdaux13Elf64_Verneed13Elf64_Vernaux9Elf64_Rel10Elf64_RelaLj64EE19rebuildGnuHashTableE4spanIcESC_IS4_E
00000000000fb688 W _ZN7ElfFileI10Elf64_Ehdr10Elf64_Phdr10Elf64_Shdrmm9Elf64_Dyn9Elf64_Symt12Elf64_Verdef13Elf64_Verdaux13Elf64_Verneed13Elf64_Vernaux9Elf64_Rel10Elf64_RelaLj64EE20renameDynamicSymbolsERKNSt6__ndk113unordered_mapINSC_17basic_string_viewIcNSC_11char_traitsIcEEEENSC_12basic_stringIcSG_NSC_9allocatorIcEEEENSC_4hashISH_EENSC_8equal_toISH_EENSJ_INSC_4pairIKSH_SL_EEEEEE
00000000000fed14 W _ZN7ElfFileI10Elf64_Ehdr10Elf64_Phdr10Elf64_Shdrmm9Elf64_Dyn9Elf64_Symt12Elf64_Verdef13Elf64_Verdaux13Elf64_Verneed13Elf64_Vernaux9Elf64_Rel10Elf64_RelaLj64EE21normalizeNoteSegmentsEv
00000000000ff338 W _ZN7ElfFileI10Elf64_Ehdr10Elf64_Phdr10Elf64_Shdrmm9Elf64_Dyn9Elf64_Symt12Elf64_Verdef13Elf64_Verdaux13Elf64_Verneed13Elf64_Vernaux9Elf64_Rel10Elf64_RelaLj64EE21writeReplacedSectionsERmmm
0000000000114664 W _ZN7ElfFileI10Elf64_Ehdr10Elf64_Phdr10Elf64_Shdrmm9Elf64_Dyn9Elf64_Symt12Elf64_Verdef13Elf64_Verdaux13Elf64_Verneed13Elf64_Vernaux9Elf64_Rel10Elf64_RelaLj64EE22changeRelocTableSymIdsIS9_RZNSB_19rebuildGnuHashTableE4spanIcESD_IS4_EEUlRT_E_EEvRKS2_OT0_
000000000011479c W _ZN7ElfFileI10Elf64_Ehdr10Elf64_Phdr10Elf64_Shdrmm9Elf64_Dyn9Elf64_Symt12Elf64_Verdef13Elf64_Verdaux13Elf64_Verneed13Elf64_Vernaux9Elf64_Rel10Elf64_RelaLj64EE22changeRelocTableSymIdsISA_RZNSB_19rebuildGnuHashTableE4spanIcESD_IS4_EEUlRT_E_EEvRKS2_OT0_
000000000010fac4 W _ZN7ElfFileI10Elf64_Ehdr10Elf64_Phdr10Elf64_Shdrmm9Elf64_Dyn9Elf64_Symt12Elf64_Verdef13Elf64_Verdaux13Elf64_Verneed13Elf64_Vernaux9Elf64_Rel10Elf64_RelaLj64EE22forAllStringReferencesIZNSB_11modifyRPathENSB_7RPathOpERKNSt6__ndk16vectorINSE_12basic_stringIcNSE_11char_traitsIcEENSE_9allocatorIcEEEENSJ_ISL_EEEESL_EUlT_E_EEvRKS2_OSQ_
00000000000fce10 W _ZN7ElfFileI10Elf64_Ehdr10Elf64_Phdr10Elf64_Shdrmm9Elf64_Dyn9Elf64_Symt12Elf64_Verdef13Elf64_Verdaux13Elf64_Verneed13Elf64_Vernaux9Elf64_Rel10Elf64_RelaLj64EE22rewriteSectionsLibraryEv
00000000000fd7e0 W _ZN7ElfFileI10Elf64_Ehdr10Elf64_Phdr10Elf64_Shdrmm9Elf64_Dyn9Elf64_Symt12Elf64_Verdef13Elf64_Verdaux13Elf64_Verneed13Elf64_Vernaux9Elf64_Rel10Elf64_RelaLj64EE25rewriteSectionsExecutableEv
00000000000fc7f4 W _ZN7ElfFileI10Elf64_Ehdr10Elf64_Phdr10Elf64_Shdrmm9Elf64_Dyn9Elf64_Symt12Elf64_Verdef13Elf64_Verdaux13Elf64_Verneed13Elf64_Vernaux9Elf64_Rel10Elf64_RelaLj64EE3hdrEv
0000000000110a08 W _ZN7ElfFileI10Elf64_Ehdr10Elf64_Phdr10Elf64_Shdrmm9Elf64_Dyn9Elf64_Symt12Elf64_Verdef13Elf64_Verdaux13Elf64_Verneed13Elf64_Vernaux9Elf64_Rel10Elf64_RelaLj64EE6followIS5_S5_EEPT_PT0_m
0000000000110944 W _ZN7ElfFileI10Elf64_Ehdr10Elf64_Phdr10Elf64_Shdrmm9Elf64_Dyn9Elf64_Symt12Elf64_Verdef13Elf64_Verdaux13Elf64_Verneed13Elf64_Vernaux9Elf64_Rel10Elf64_RelaLj64EE6followIS6_S5_EEPT_PT0_m
00000000001109c0 W _ZN7ElfFileI10Elf64_Ehdr10Elf64_Phdr10Elf64_Shdrmm9Elf64_Dyn9Elf64_Symt12Elf64_Verdef13Elf64_Verdaux13Elf64_Verneed13Elf64_Vernaux9Elf64_Rel10Elf64_RelaLj64EE6followIS6_S6_EEPT_PT0_m
0000000000110b8c W _ZN7ElfFileI10Elf64_Ehdr10Elf64_Phdr10Elf64_Shdrmm9Elf64_Dyn9Elf64_Symt12Elf64_Verdef13Elf64_Verdaux13Elf64_Verneed13Elf64_Vernaux9Elf64_Rel10Elf64_RelaLj64EE6followIS7_S7_EEPT_PT0_m
0000000000110ac8 W _ZN7ElfFileI10Elf64_Ehdr10Elf64_Phdr10Elf64_Shdrmm9Elf64_Dyn9Elf64_Symt12Elf64_Verdef13Elf64_Verdaux13Elf64_Verneed13Elf64_Vernaux9Elf64_Rel10Elf64_RelaLj64EE6followIS8_S7_EEPT_PT0_m
0000000000110b44 W _ZN7ElfFileI10Elf64_Ehdr10Elf64_Phdr10Elf64_Shdrmm9Elf64_Dyn9Elf64_Symt12Elf64_Verdef13Elf64_Verdaux13Elf64_Verneed13Elf64_Vernaux9Elf64_Rel10Elf64_RelaLj64EE6followIS8_S8_EEPT_PT0_m
00000000000fa528 W _ZN7ElfFileI10Elf64_Ehdr10Elf64_Phdr10Elf64_Shdrmm9Elf64_Dyn9Elf64_Symt12Elf64_Verdef13Elf64_Verdaux13Elf64_Verneed13Elf64_Vernaux9Elf64_Rel10Elf64_RelaLj64EE9addNeededERKNSt6__ndk13setINSC_12basic_stringIcNSC_11char_traitsIcEENSC_9allocatorIcEEEENSC_4lessISJ_EENSH_ISJ_EEEE
000000000010e914 W _ZN7ElfFileI10Elf64_Ehdr10Elf64_Phdr10Elf64_Shdrmm9Elf64_Dyn9Elf64_Symt12Elf64_Verdef13Elf64_Verdaux13Elf64_Verneed13Elf64_Vernaux9Elf64_Rel10Elf64_RelaLj64EE9shiftFileEjmm
00000000001047d0 W _ZN7ElfFileI10Elf64_Ehdr10Elf64_Phdr10Elf64_Shdrmm9Elf64_Dyn9Elf64_Symt12Elf64_Verdef13Elf64_Verdaux13Elf64_Verneed13Elf64_Vernaux9Elf64_Rel10Elf64_RelaLj64EE9sortPhdrsEv
0000000000104858 W _ZN7ElfFileI10Elf64_Ehdr10Elf64_Phdr10Elf64_Shdrmm9Elf64_Dyn9Elf64_Symt12Elf64_Verdef13Elf64_Verdaux13Elf64_Verneed13Elf64_Vernaux9Elf64_Rel10Elf64_RelaLj64EE9sortShdrsEv
00000000000c6160 W _ZN7ElfFileI10Elf64_Ehdr10Elf64_Phdr10Elf64_Shdrmm9Elf64_Dyn9Elf64_Symt12Elf64_Verdef13Elf64_Verdaux13Elf64_Verneed13Elf64_Vernaux9Elf64_Rel10Elf64_RelaLj64EEC2ENSt6__ndk110shared_ptrINSC_6vectorIhNSC_9allocatorIhEEEEEE
00000000000c6c60 W _ZN7ElfFileI10Elf64_Ehdr10Elf64_Phdr10Elf64_Shdrmm9Elf64_Dyn9Elf64_Symt12Elf64_Verdef13Elf64_Verdaux13Elf64_Verneed13Elf64_Vernaux9Elf64_Rel10Elf64_RelaLj64EED2Ev
00000000000b6898 W _ZN8SysErrorC2ERKNSt6__ndk112basic_stringIcNS0_11char_traitsIcEENS0_9allocatorIcEEEE
00000000000b6c90 W _ZN8SysErrorD0Ev
00000000000b69f8 W _ZN8SysErrorD2Ev
00000000000ee624 W _ZNK4spanI9Elf32_SymE4sizeEv
0000000000114244 W _ZNK4spanI9Elf64_SymE4sizeEv
00000000000ea624 W _ZNK4spanIcE4sizeEv
00000000000ee094 W _ZNK4spanIcEcvbEv
00000000000ee204 W _ZNK4spanIjE4sizeEv
0000000000114944 W _ZNK4spanImE4sizeEv
00000000000ef1fc W _ZNK4spanItE4sizeEv
00000000000ee3b0 W _ZNK4spanItEcvbEv
00000000000d0b4c W _ZNK7ElfFileI10Elf32_Ehdr10Elf32_Phdr10Elf32_Shdrjj9Elf32_Dyn9Elf32_Symt12Elf32_Verdef13Elf32_Verdaux13Elf32_Verneed13Elf32_Vernaux9Elf32_Rel10Elf32_RelaLj32EE11getPageSizeEv
00000000000f576c W _ZNK7ElfFileI10Elf32_Ehdr10Elf32_Phdr10Elf32_Shdrjj9Elf32_Dyn9Elf32_Symt12Elf32_Verdef13Elf32_Verdaux13Elf32_Verneed13Elf32_Vernaux9Elf32_Rel10Elf32_RelaLj32EE12rel_getSymIdERKj
00000000000f581c W _ZNK7ElfFileI10Elf32_Ehdr10Elf32_Phdr10Elf32_Shdrjj9Elf32_Dyn9Elf32_Symt12Elf32_Verdef13Elf32_Verdaux13Elf32_Verneed13Elf32_Vernaux9Elf32_Rel10Elf32_RelaLj32EE12rel_setSymIdEjj
00000000000c6dd8 W _ZNK7ElfFileI10Elf32_Ehdr10Elf32_Phdr10Elf32_Shdrjj9Elf32_Dyn9Elf32_Symt12Elf32_Verdef13Elf32_Verdaux13Elf32_Verneed13Elf32_Vernaux9Elf32_Rel10Elf32_RelaLj32EE14getInterpreterEv
00000000000cbeec W _ZNK7ElfFileI10Elf32_Ehdr10Elf32_Phdr10Elf32_Shdrjj9Elf32_Dyn9Elf32_Symt12Elf32_Verdef13Elf32_Verdaux13Elf32_Verneed13Elf32_Vernaux9Elf32_Rel10Elf32_RelaLj32EE14getSectionNameERKS2_
00000000000e630c W _ZNK7ElfFileI10Elf32_Ehdr10Elf32_Phdr10Elf32_Shdrjj9Elf32_Dyn9Elf32_Symt12Elf32_Verdef13Elf32_Verdaux13Elf32_Verneed13Elf32_Vernaux9Elf32_Rel10Elf32_RelaLj32EE14getSectionSpanIS3_EE4spanIT_ERKS2_
00000000000e61dc W _ZNK7ElfFileI10Elf32_Ehdr10Elf32_Phdr10Elf32_Shdrjj9Elf32_Dyn9Elf32_Symt12Elf32_Verdef13Elf32_Verdaux13Elf32_Verneed13Elf32_Vernaux9Elf32_Rel10Elf32_RelaLj32EE14getSectionSpanIS4_EE4spanIT_ERKS2_
00000000000e5f14 W _ZNK7ElfFileI10Elf32_Ehdr10Elf32_Phdr10Elf32_Shdrjj9Elf32_Dyn9Elf32_Symt12Elf32_Verdef13Elf32_Verdaux13Elf32_Verneed13Elf32_Vernaux9Elf32_Rel10Elf32_RelaLj32EE14getSectionSpanIS5_EE4spanIT_ERKS2_
00000000000e611c W _ZNK7ElfFileI10Elf32_Ehdr10Elf32_Phdr10Elf32_Shdrjj9Elf32_Dyn9Elf32_Symt12Elf32_Verdef13Elf32_Verdaux13Elf32_Verneed13Elf32_Vernaux9Elf32_Rel10Elf32_RelaLj32EE14getSectionSpanIS7_EE4spanIT_ERKS2_
00000000000f5674 W _ZNK7ElfFileI10Elf32_Ehdr10Elf32_Phdr10Elf32_Shdrjj9Elf32_Dyn9Elf32_Symt12Elf32_Verdef13Elf32_Verdaux13Elf32_Verneed13Elf32_Vernaux9Elf32_Rel10Elf32_RelaLj32EE14getSectionSpanIS9_EE4spanIT_ERKS2_
00000000000f587c W _ZNK7ElfFileI10Elf32_Ehdr10Elf32_Phdr10Elf32_Shdrjj9Elf32_Dyn9Elf32_Symt12Elf32_Verdef13Elf32_Verdaux13Elf32_Verneed13Elf32_Vernaux9Elf32_Rel10Elf32_RelaLj32EE14getSectionSpanISA_EE4spanIT_ERKS2_
00000000000eb614 W _ZNK7ElfFileI10Elf32_Ehdr10Elf32_Phdr10Elf32_Shdrjj9Elf32_Dyn9Elf32_Symt12Elf32_Verdef13Elf32_Verdaux13Elf32_Verneed13Elf32_Vernaux9Elf32_Rel10Elf32_RelaLj32EE14getSectionSpanIcEE4spanIT_ERKS2_
00000000000ef110 W _ZNK7ElfFileI10Elf32_Ehdr10Elf32_Phdr10Elf32_Shdrjj9Elf32_Dyn9Elf32_Symt12Elf32_Verdef13Elf32_Verdaux13Elf32_Verneed13Elf32_Vernaux9Elf32_Rel10Elf32_RelaLj32EE14getSectionSpanItEE4spanIT_ERKS2_
00000000000cbbd0 W _ZNK7ElfFileI10Elf32_Ehdr10Elf32_Phdr10Elf32_Shdrjj9Elf32_Dyn9Elf32_Symt12Elf32_Verdef13Elf32_Verdaux13Elf32_Verneed13Elf32_Vernaux9Elf32_Rel10Elf32_RelaLj32EE15getSectionIndexERKNSt6__ndk112basic_stringIcNSC_11char_traitsIcEENSC_9allocatorIcEEEE
00000000000c8d70 W _ZNK7ElfFileI10Elf32_Ehdr10Elf32_Phdr10Elf32_Shdrjj9Elf32_Dyn9Elf32_Symt12Elf32_Verdef13Elf32_Verdaux13Elf32_Verneed13Elf32_Vernaux9Elf32_Rel10Elf32_RelaLj32EE15printNeededLibsEv
00000000000cb6ec W _ZNK7ElfFileI10Elf32_Ehdr10Elf32_Phdr10Elf32_Shdrjj9Elf32_Dyn9Elf32_Symt12Elf32_Verdef13Elf32_Verdaux13Elf32_Verneed13Elf32_Vernaux9Elf32_Rel10Elf32_RelaLj32EE17findSectionHeaderERKNSt6__ndk112basic_stringIcNSC_11char_traitsIcEENSC_9allocatorIcEEEE
00000000000d0f50 W _ZNK7ElfFileI10Elf32_Ehdr10Elf32_Phdr10Elf32_Shdrjj9Elf32_Dyn9Elf32_Symt12Elf32_Verdef13Elf32_Verdaux13Elf32_Verneed13Elf32_Vernaux9Elf32_Rel10Elf32_RelaLj32EE19haveReplacedSectionERKNSt6__ndk112basic_stringIcNSC_11char_traitsIcEENSC_9allocatorIcEEEE
00000000000cba78 W _ZNK7ElfFileI10Elf32_Ehdr10Elf32_Phdr10Elf32_Shdrjj9Elf32_Dyn9Elf32_Symt12Elf32_Verdef13Elf32_Verdaux13Elf32_Verneed13Elf32_Vernaux9Elf32_Rel10Elf32_RelaLj32EE20tryFindSectionHeaderERKNSt6__ndk112basic_stringIcNSC_11char_traitsIcEENSC_9allocatorIcEEEE
00000000000cbec4 W _ZNK7ElfFileI10Elf32_Ehdr10Elf32_Phdr10Elf32_Shdrjj9Elf32_Dyn9Elf32_Symt12Elf32_Verdef13Elf32_Verdaux13Elf32_Verneed13Elf32_Vernaux9Elf32_Rel10Elf32_RelaLj32EE3hdrEv
00000000000d94dc W _ZNK7ElfFileI10Elf32_Ehdr10Elf32_Phdr10Elf32_Shdrjj9Elf32_Dyn9Elf32_Symt12Elf32_Verdef13Elf32_Verdaux13Elf32_Verneed13Elf32_Vernaux9Elf32_Rel10Elf32_RelaLj32EE3rdiIhEET_SD_
00000000000cd0d0 W _ZNK7ElfFileI10Elf32_Ehdr10Elf32_Phdr10Elf32_Shdrjj9Elf32_Dyn9Elf32_Symt12Elf32_Verdef13Elf32_Verdaux13Elf32_Verneed13Elf32_Vernaux9Elf32_Rel10Elf32_RelaLj32EE3rdiIiEET_SD_
00000000000cb8ec W _ZNK7ElfFileI10Elf32_Ehdr10Elf32_Phdr10Elf32_Shdrjj9Elf32_Dyn9Elf32_Symt12Elf32_Verdef13Elf32_Verdaux13Elf32_Verneed13Elf32_Vernaux9Elf32_Rel10Elf32_RelaLj32EE3rdiIjEET_SD_
00000000000cbd98 W _ZNK7ElfFileI10Elf32_Ehdr10Elf32_Phdr10Elf32_Shdrjj9Elf32_Dyn9Elf32_Symt12Elf32_Verdef13Elf32_Verdaux13Elf32_Verneed13Elf32_Vernaux9Elf32_Rel10Elf32_RelaLj32EE3rdiItEET_SD_
00000000000cd7d4 W _ZNK7ElfFileI10Elf32_Ehdr10Elf32_Phdr10Elf32_Shdrjj9Elf32_Dyn9Elf32_Symt12Elf32_Verdef13Elf32_Verdaux13Elf32_Verneed13Elf32_Vernaux9Elf32_Rel10Elf32_RelaLj32EE3wriIiiEET_RSD_T0_
00000000000d1420 W _ZNK7ElfFileI10Elf32_Ehdr10Elf32_Phdr10Elf32_Shdrjj9Elf32_Dyn9Elf32_Symt12Elf32_Verdef13Elf32_Verdaux13Elf32_Verneed13Elf32_Vernaux9Elf32_Rel10Elf32_RelaLj32EE3wriIjiEET_RSD_T0_
00000000000d1114 W _ZNK7ElfFileI10Elf32_Ehdr10Elf32_Phdr10Elf32_Shdrjj9Elf32_Dyn9Elf32_Symt12Elf32_Verdef13Elf32_Verdaux13Elf32_Verneed13Elf32_Vernaux9Elf32_Rel10Elf32_RelaLj32EE3wriIjjEET_RSD_T0_
00000000000d11cc W _ZNK7ElfFileI10Elf32_Ehdr10Elf32_Phdr10Elf32_Shdrjj9Elf32_Dyn9Elf32_Symt12Elf32_Verdef13Elf32_Verdaux13Elf32_Verneed13Elf32_Vernaux9Elf32_Rel10Elf32_RelaLj32EE3wriIjlEET_RSD_T0_
00000000000d101c W _ZNK7ElfFileI10Elf32_Ehdr10Elf32_Phdr10Elf32_Shdrjj9Elf32_Dyn9Elf32_Symt12Elf32_Verdef13Elf32_Verdaux13Elf32_Verneed13Elf32_Vernaux9Elf32_Rel10Elf32_RelaLj32EE3wriIjmEET_RSD_T0_
00000000000d1310 W _ZNK7ElfFileI10Elf32_Ehdr10Elf32_Phdr10Elf32_Shdrjj9Elf32_Dyn9Elf32_Symt12Elf32_Verdef13Elf32_Verdaux13Elf32_Verneed13Elf32_Vernaux9Elf32_Rel10Elf32_RelaLj32EE3wriItiEET_RSD_T0_
00000000000d9424 W _ZNK7ElfFileI10Elf32_Ehdr10Elf32_Phdr10Elf32_Shdrjj9Elf32_Dyn9Elf32_Symt12Elf32_Verdef13Elf32_Verdaux13Elf32_Verneed13Elf32_Vernaux9Elf32_Rel10Elf32_RelaLj32EE3wriItjEET_RSD_T0_
00000000000d55a8 W _ZNK7ElfFileI10Elf32_Ehdr10Elf32_Phdr10Elf32_Shdrjj9Elf32_Dyn9Elf32_Symt12Elf32_Verdef13Elf32_Verdaux13Elf32_Verneed13Elf32_Vernaux9Elf32_Rel10Elf32_RelaLj32EE3wriItmEET_RSD_T0_
00000000000d9f04 W _ZNK7ElfFileI10Elf32_Ehdr10Elf32_Phdr10Elf32_Shdrjj9Elf32_Dyn9Elf32_Symt12Elf32_Verdef13Elf32_Verdaux13Elf32_Verneed13Elf32_Vernaux9Elf32_Rel10Elf32_RelaLj32EE8CompPhdrclERKS1_SE_
00000000000de4b8 W _ZNK7ElfFileI10Elf32_Ehdr10Elf32_Phdr10Elf32_Shdrjj9Elf32_Dyn9Elf32_Symt12Elf32_Verdef13Elf32_Verdaux13Elf32_Verneed13Elf32_Vernaux9Elf32_Rel10Elf32_RelaLj32EE8CompShdrclERKS2_SE_
00000000000cb3f8 W _ZNK7ElfFileI10Elf32_Ehdr10Elf32_Phdr10Elf32_Shdrjj9Elf32_Dyn9Elf32_Symt12Elf32_Verdef13Elf32_Verdaux13Elf32_Verneed13Elf32_Vernaux9Elf32_Rel10Elf32_RelaLj32EE9isChangedEv
00000000000fe498 W _ZNK7ElfFileI10Elf64_Ehdr10Elf64_Phdr10Elf64_Shdrmm9Elf64_Dyn9Elf64_Symt12Elf64_Verdef13Elf64_Verdaux13Elf64_Verneed13Elf64_Vernaux9Elf64_Rel10Elf64_RelaLj64EE11getPageSizeEv
00000000001195a0 W _ZNK7ElfFileI10Elf64_Ehdr10Elf64_Phdr10Elf64_Shdrmm9Elf64_Dyn9Elf64_Symt12Elf64_Verdef13Elf64_Verdaux13Elf64_Verneed13Elf64_Vernaux9Elf64_Rel10Elf64_RelaLj64EE12rel_getSymIdERKm
0000000000119654 W _ZNK7ElfFileI10Elf64_Ehdr10Elf64_Phdr10Elf64_Shdrmm9Elf64_Dyn9Elf64_Symt12Elf64_Verdef13Elf64_Verdaux13Elf64_Verneed13Elf64_Vernaux9Elf64_Rel10Elf64_RelaLj64EE12rel_setSymIdEmj
00000000000f73ec W _ZNK7ElfFileI10Elf64_Ehdr10Elf64_Phdr10Elf64_Shdrmm9Elf64_Dyn9Elf64_Symt12Elf64_Verdef13Elf64_Verdaux13Elf64_Verneed13Elf64_Vernaux9Elf64_Rel10Elf64_RelaLj64EE14getInterpreterEv
00000000000fc2f4 W _ZNK7ElfFileI10Elf64_Ehdr10Elf64_Phdr10Elf64_Shdrmm9Elf64_Dyn9Elf64_Symt12Elf64_Verdef13Elf64_Verdaux13Elf64_Verneed13Elf64_Vernaux9Elf64_Rel10Elf64_RelaLj64EE14getSectionNameERKS2_
0000000000110830 W _ZNK7ElfFileI10Elf64_Ehdr10Elf64_Phdr10Elf64_Shdrmm9Elf64_Dyn9Elf64_Symt12Elf64_Verdef13Elf64_Verdaux13Elf64_Verneed13Elf64_Vernaux9Elf64_Rel10Elf64_RelaLj64EE14getSectionSpanIS3_EE4spanIT_ERKS2_
000000000011073c W _ZNK7ElfFileI10Elf64_Ehdr10Elf64_Phdr10Elf64_Shdrmm9Elf64_Dyn9Elf64_Symt12Elf64_Verdef13Elf64_Verdaux13Elf64_Verneed13Elf64_Vernaux9Elf64_Rel10Elf64_RelaLj64EE14getSectionSpanIS4_EE4spanIT_ERKS2_
0000000000110478 W _ZNK7ElfFileI10Elf64_Ehdr10Elf64_Phdr10Elf64_Shdrmm9Elf64_Dyn9Elf64_Symt12Elf64_Verdef13Elf64_Verdaux13Elf64_Verneed13Elf64_Vernaux9Elf64_Rel10Elf64_RelaLj64EE14getSectionSpanIS5_EE4spanIT_ERKS2_
0000000000110680 W _ZNK7ElfFileI10Elf64_Ehdr10Elf64_Phdr10Elf64_Shdrmm9Elf64_Dyn9Elf64_Symt12Elf64_Verdef13Elf64_Verdaux13Elf64_Verneed13Elf64_Vernaux9Elf64_Rel10Elf64_RelaLj64EE14getSectionSpanIS7_EE4spanIT_ERKS2_
00000000001194ac W _ZNK7ElfFileI10Elf64_Ehdr10Elf64_Phdr10Elf64_Shdrmm9Elf64_Dyn9Elf64_Symt12Elf64_Verdef13Elf64_Verdaux13Elf64_Verneed13Elf64_Vernaux9Elf64_Rel10Elf64_RelaLj64EE14getSectionSpanIS9_EE4spanIT_ERKS2_
00000000001196b4 W _ZNK7ElfFileI10Elf64_Ehdr10Elf64_Phdr10Elf64_Shdrmm9Elf64_Dyn9Elf64_Symt12Elf64_Verdef13Elf64_Verdaux13Elf64_Verneed13Elf64_Vernaux9Elf64_Rel10Elf64_RelaLj64EE14getSectionSpanISA_EE4spanIT_ERKS2_
0000000000113c6c W _ZNK7ElfFileI10Elf64_Ehdr10Elf64_Phdr10Elf64_Shdrmm9Elf64_Dyn9Elf64_Symt12Elf64_Verdef13Elf64_Verdaux13Elf64_Verneed13Elf64_Vernaux9Elf64_Rel10Elf64_RelaLj64EE14getSectionSpanIcEE4spanIT_ERKS2_
0000000000114ac4 W _ZNK7ElfFileI10Elf64_Ehdr10Elf64_Phdr10Elf64_Shdrmm9Elf64_Dyn9Elf64_Symt12Elf64_Verdef13Elf64_Verdaux13Elf64_Verneed13Elf64_Vernaux9Elf64_Rel10Elf64_RelaLj64EE14getSectionSpanItEE4spanIT_ERKS2_
00000000000fbfe0 W _ZNK7ElfFileI10Elf64_Ehdr10Elf64_Phdr10Elf64_Shdrmm9Elf64_Dyn9Elf64_Symt12Elf64_Verdef13Elf64_Verdaux13Elf64_Verneed13Elf64_Vernaux9Elf64_Rel10Elf64_RelaLj64EE15getSectionIndexERKNSt6__ndk112basic_stringIcNSC_11char_traitsIcEENSC_9allocatorIcEEEE
00000000000f9444 W _ZNK7ElfFileI10Elf64_Ehdr10Elf64_Phdr10Elf64_Shdrmm9Elf64_Dyn9Elf64_Symt12Elf64_Verdef13Elf64_Verdaux13Elf64_Verneed13Elf64_Vernaux9Elf64_Rel10Elf64_RelaLj64EE15printNeededLibsEv
00000000000fbba0 W _ZNK7ElfFileI10Elf64_Ehdr10Elf64_Phdr10Elf64_Shdrmm9Elf64_Dyn9Elf64_Symt12Elf64_Verdef13Elf64_Verdaux13Elf64_Verneed13Elf64_Vernaux9Elf64_Rel10Elf64_RelaLj64EE17findSectionHeaderERKNSt6__ndk112basic_stringIcNSC_11char_traitsIcEENSC_9allocatorIcEEEE
00000000000fe810 W _ZNK7ElfFileI10Elf64_Ehdr10Elf64_Phdr10Elf64_Shdrmm9Elf64_Dyn9Elf64_Symt12Elf64_Verdef13Elf64_Verdaux13Elf64_Verneed13Elf64_Vernaux9Elf64_Rel10Elf64_RelaLj64EE19haveReplacedSectionERKNSt6__ndk112basic_stringIcNSC_11char_traitsIcEENSC_9allocatorIcEEEE
00000000000fbec8 W _ZNK7ElfFileI10Elf64_Ehdr10Elf64_Phdr10Elf64_Shdrmm9Elf64_Dyn9Elf64_Symt12Elf64_Verdef13Elf64_Verdaux13Elf64_Verneed13Elf64_Vernaux9Elf64_Rel10Elf64_RelaLj64EE20tryFindSectionHeaderERKNSt6__ndk112basic_stringIcNSC_11char_traitsIcEENSC_9allocatorIcEEEE
00000000000fc2cc W _ZNK7ElfFileI10Elf64_Ehdr10Elf64_Phdr10Elf64_Shdrmm9Elf64_Dyn9Elf64_Symt12Elf64_Verdef13Elf64_Verdaux13Elf64_Verneed13Elf64_Vernaux9Elf64_Rel10Elf64_RelaLj64EE3hdrEv
00000000001051b4 W _ZNK7ElfFileI10Elf64_Ehdr10Elf64_Phdr10Elf64_Shdrmm9Elf64_Dyn9Elf64_Symt12Elf64_Verdef13Elf64_Verdaux13Elf64_Verneed13Elf64_Vernaux9Elf64_Rel10Elf64_RelaLj64EE3rdiIhEET_SD_
00000000000fc420 W _ZNK7ElfFileI10Elf64_Ehdr10Elf64_Phdr10Elf64_Shdrmm9Elf64_Dyn9Elf64_Symt12Elf64_Verdef13Elf64_Verdaux13Elf64_Verneed13Elf64_Vernaux9Elf64_Rel10Elf64_RelaLj64EE3rdiIjEET_SD_
00000000000fc81c W _ZNK7ElfFileI10Elf64_Ehdr10Elf64_Phdr10Elf64_Shdrmm9Elf64_Dyn9Elf64_Symt12Elf64_Verdef13Elf64_Verdaux13Elf64_Verneed13Elf64_Vernaux9Elf64_Rel10Elf64_RelaLj64EE3rdiIlEET_SD_
00000000000fbda0 W _ZNK7ElfFileI10Elf64_Ehdr10Elf64_Phdr10Elf64_Shdrmm9Elf64_Dyn9Elf64_Symt12Elf64_Verdef13Elf64_Verdaux13Elf64_Verneed13Elf64_Vernaux9Elf64_Rel10Elf64_RelaLj64EE3rdiImEET_SD_
00000000000fc1a0 W _ZNK7ElfFileI10Elf64_Ehdr10Elf64_Phdr10Elf64_Shdrmm9Elf64_Dyn9Elf64_Symt12Elf64_Verdef13Elf64_Verdaux13Elf64_Verneed13Elf64_Vernaux9Elf64_Rel10Elf64_RelaLj64EE3rdiItEET_SD_
00000000000feaec W _ZNK7ElfFileI10Elf64_Ehdr10Elf64_Phdr10Elf64_Shdrmm9Elf64_Dyn9Elf64_Symt12Elf64_Verdef13Elf64_Verdaux13Elf64_Verneed13Elf64_Vernaux9Elf64_Rel10Elf64_RelaLj64EE3wriIjiEET_RSD_T0_
0000000000109914 W _ZNK7ElfFileI10Elf64_Ehdr10Elf64_Phdr10Elf64_Shdrmm9Elf64_Dyn9Elf64_Symt12Elf64_Verdef13Elf64_Verdaux13Elf64_Verneed13Elf64_Vernaux9Elf64_Rel10Elf64_RelaLj64EE3wriIjjEET_RSD_T0_
0000000000110f1c W _ZNK7ElfFileI10Elf64_Ehdr10Elf64_Phdr10Elf64_Shdrmm9Elf64_Dyn9Elf64_Symt12Elf64_Verdef13Elf64_Verdaux13Elf64_Verneed13Elf64_Vernaux9Elf64_Rel10Elf64_RelaLj64EE3wriIjmEET_RSD_T0_
00000000000fcb68 W _ZNK7ElfFileI10Elf64_Ehdr10Elf64_Phdr10Elf64_Shdrmm9Elf64_Dyn9Elf64_Symt12Elf64_Verdef13Elf64_Verdaux13Elf64_Verneed13Elf64_Vernaux9Elf64_Rel10Elf64_RelaLj64EE3wriIliEET_RSD_T0_
0000000000110c2c W _ZNK7ElfFileI10Elf64_Ehdr10Elf64_Phdr10Elf64_Shdrmm9Elf64_Dyn9Elf64_Symt12Elf64_Verdef13Elf64_Verdaux13Elf64_Verneed13Elf64_Vernaux9Elf64_Rel10Elf64_RelaLj64EE3wriImiEET_RSD_T0_
00000000000fec5c W _ZNK7ElfFileI10Elf64_Ehdr10Elf64_Phdr10Elf64_Shdrmm9Elf64_Dyn9Elf64_Symt12Elf64_Verdef13Elf64_Verdaux13Elf64_Verneed13Elf64_Vernaux9Elf64_Rel10Elf64_RelaLj64EE3wriImjEET_RSD_T0_
00000000000feba4 W _ZNK7ElfFileI10Elf64_Ehdr10Elf64_Phdr10Elf64_Shdrmm9Elf64_Dyn9Elf64_Symt12Elf64_Verdef13Elf64_Verdaux13Elf64_Verneed13Elf64_Vernaux9Elf64_Rel10Elf64_RelaLj64EE3wriImlEET_RSD_T0_
00000000000fe848 W _ZNK7ElfFileI10Elf64_Ehdr10Elf64_Phdr10Elf64_Shdrmm9Elf64_Dyn9Elf64_Symt12Elf64_Verdef13Elf64_Verdaux13Elf64_Verneed13Elf64_Vernaux9Elf64_Rel10Elf64_RelaLj64EE3wriImmEET_RSD_T0_
00000000000fe9d4 W _ZNK7ElfFileI10Elf64_Ehdr10Elf64_Phdr10Elf64_Shdrmm9Elf64_Dyn9Elf64_Symt12Elf64_Verdef13Elf64_Verdaux13Elf64_Verneed13Elf64_Vernaux9Elf64_Rel10Elf64_RelaLj64EE3wriItiEET_RSD_T0_
00000000001050fc W _ZNK7ElfFileI10Elf64_Ehdr10Elf64_Phdr10Elf64_Shdrmm9Elf64_Dyn9Elf64_Symt12Elf64_Verdef13Elf64_Verdaux13Elf64_Verneed13Elf64_Vernaux9Elf64_Rel10Elf64_RelaLj64EE3wriItjEET_RSD_T0_
00000000001023d0 W _ZNK7ElfFileI10Elf64_Ehdr10Elf64_Phdr10Elf64_Shdrmm9Elf64_Dyn9Elf64_Symt12Elf64_Verdef13Elf64_Verdaux13Elf64_Verneed13Elf64_Vernaux9Elf64_Rel10Elf64_RelaLj64EE3wriItmEET_RSD_T0_
0000000000105c18 W _ZNK7ElfFileI10Elf64_Ehdr10Elf64_Phdr10Elf64_Shdrmm9Elf64_Dyn9Elf64_Symt12Elf64_Verdef13Elf64_Verdaux13Elf64_Verneed13Elf64_Vernaux9Elf64_Rel10Elf64_RelaLj64EE8CompPhdrclERKS1_SE_
000000000010a2a8 W _ZNK7ElfFileI10Elf64_Ehdr10Elf64_Phdr10Elf64_Shdrmm9Elf64_Dyn9Elf64_Symt12Elf64_Verdef13Elf64_Verdaux13Elf64_Verneed13Elf64_Vernaux9Elf64_Rel10Elf64_RelaLj64EE8CompShdrclERKS2_SE_
00000000000fbb84 W _ZNK7ElfFileI10Elf64_Ehdr10Elf64_Phdr10Elf64_Shdrmm9Elf64_Dyn9Elf64_Symt12Elf64_Verdef13Elf64_Verdaux13Elf64_Verneed13Elf64_Vernaux9Elf64_Rel10Elf64_RelaLj64EE9isChangedEv
0000000000166db4 T _ZNKSt10bad_typeid4whatEv
0000000000166adc T _ZNKSt11logic_error4whatEv
0000000000166994 T _ZNKSt13bad_exception4whatEv
0000000000166b70 T _ZNKSt13runtime_error4whatEv
0000000000132ea4 T _ZNKSt16nested_exception14rethrow_nestedEv
0000000000166a44 T _ZNKSt20bad_array_new_length4whatEv
0000000000145408 T _ZNKSt6__ndk110__time_put8__do_putEPcRS1_PK2tmcc
00000000001457e4 T _ZNKSt6__ndk110__time_put8__do_putEPwRS1_PK2tmcc
0000000000125508 T _ZNKSt6__ndk110error_code7messageEv
00000000001458f4 W _ZNKSt6__ndk110moneypunctIcLb0EE11do_groupingEv
0000000000145954 W _ZNKSt6__ndk110moneypunctIcLb0EE13do_neg_formatEv
0000000000145944 W _ZNKSt6__ndk110moneypunctIcLb0EE13do_pos_formatEv
0000000000145904 W _ZNKSt6__ndk110moneypunctIcLb0EE14do_curr_symbolEv
0000000000145938 W _ZNKSt6__ndk110moneypunctIcLb0EE14do_frac_digitsEv
00000000001458dc W _ZNKSt6__ndk110moneypunctIcLb0EE16do_decimal_pointEv
0000000000145924 W _ZNKSt6__ndk110moneypunctIcLb0EE16do_negative_signEv
0000000000145914 W _ZNKSt6__ndk110moneypunctIcLb0EE16do_positive_signEv
00000000001458e8 W _ZNKSt6__ndk110moneypunctIcLb0EE16do_thousands_sepEv
000000000014597c W _ZNKSt6__ndk110moneypunctIcLb1EE11do_groupingEv
00000000001459dc W _ZNKSt6__ndk110moneypunctIcLb1EE13do_neg_formatEv
00000000001459cc W _ZNKSt6__ndk110moneypunctIcLb1EE13do_pos_formatEv
000000000014598c W _ZNKSt6__ndk110moneypunctIcLb1EE14do_curr_symbolEv
00000000001459c0 W _ZNKSt6__ndk110moneypunctIcLb1EE14do_frac_digitsEv
0000000000145964 W _ZNKSt6__ndk110moneypunctIcLb1EE16do_decimal_pointEv
00000000001459ac W _ZNKSt6__ndk110moneypunctIcLb1EE16do_negative_signEv
000000000014599c W _ZNKSt6__ndk110moneypunctIcLb1EE16do_positive_signEv
0000000000145970 W _ZNKSt6__ndk110moneypunctIcLb1EE16do_thousands_sepEv
0000000000145a04 W _ZNKSt6__ndk110moneypunctIwLb0EE11do_groupingEv
0000000000145a6c W _ZNKSt6__ndk110moneypunctIwLb0EE13do_neg_formatEv
0000000000145a5c W _ZNKSt6__ndk110moneypunctIwLb0EE13do_pos_formatEv
0000000000145a14 W _ZNKSt6__ndk110moneypunctIwLb0EE14do_curr_symbolEv
0000000000145a50 W _ZNKSt6__ndk110moneypunctIwLb0EE14do_frac_digitsEv
00000000001459ec W _ZNKSt6__ndk110moneypunctIwLb0EE16do_decimal_pointEv
0000000000145a34 W _ZNKSt6__ndk110moneypunctIwLb0EE16do_negative_signEv
0000000000145a24 W _ZNKSt6__ndk110moneypunctIwLb0EE16do_positive_signEv
00000000001459f8 W _ZNKSt6__ndk110moneypunctIwLb0EE16do_thousands_sepEv
0000000000145a94 W _ZNKSt6__ndk110moneypunctIwLb1EE11do_groupingEv
0000000000145afc W _ZNKSt6__ndk110moneypunctIwLb1EE13do_neg_formatEv
0000000000145aec W _ZNKSt6__ndk110moneypunctIwLb1EE13do_pos_formatEv
0000000000145aa4 W _ZNKSt6__ndk110moneypunctIwLb1EE14do_curr_symbolEv
0000000000145ae0 W _ZNKSt6__ndk110moneypunctIwLb1EE14do_frac_digitsEv
0000000000145a7c W _ZNKSt6__ndk110moneypunctIwLb1EE16do_decimal_pointEv
0000000000145ac4 W _ZNKSt6__ndk110moneypunctIwLb1EE16do_negative_signEv
0000000000145ab4 W _ZNKSt6__ndk110moneypunctIwLb1EE16do_positive_signEv
0000000000145a88 W _ZNKSt6__ndk110moneypunctIwLb1EE16do_thousands_sepEv
00000000000dbf08 W _ZNKSt6__ndk111__move_implINS_17_ClassicAlgPolicyEEclB8ne210000I10Elf32_PhdrS4_TnNS_9enable_ifIXsr38__can_lower_move_assignment_to_memmoveIT_T0_EE5valueEiE4typeELi0EEENS_4pairIPS6_PS7_EESB_SB_SC_
00000000000e0528 W _ZNKSt6__ndk111__move_implINS_17_ClassicAlgPolicyEEclB8ne210000I10Elf32_ShdrS4_TnNS_9enable_ifIXsr38__can_lower_move_assignment_to_memmoveIT_T0_EE5valueEiE4typeELi0EEENS_4pairIPS6_PS7_EESB_SB_SC_
0000000000107d04 W _ZNKSt6__ndk111__move_implINS_17_ClassicAlgPolicyEEclB8ne210000I10Elf64_PhdrS4_TnNS_9enable_ifIXsr38__can_lower_move_assignment_to_memmoveIT_T0_EE5valueEiE4typeELi0EEENS_4pairIPS6_PS7_EESB_SB_SC_
000000000010c3a0 W _ZNKSt6__ndk111__move_implINS_17_ClassicAlgPolicyEEclB8ne210000I10Elf64_ShdrS4_TnNS_9enable_ifIXsr38__can_lower_move_assignment_to_memmoveIT_T0_EE5valueEiE4typeELi0EEENS_4pairIPS6_PS7_EESB_SB_SC_
00000000000dc528 W _ZNKSt6__ndk111__move_implINS_17_ClassicAlgPolicyEEclB8ne210000INS_16reverse_iteratorIP10Elf32_PhdrEES7_NS4_INS_11__wrap_iterIS6_EEEEEENS_4pairIT_T1_EESC_T0_SD_
00000000000e1188 W _ZNKSt6__ndk111__move_implINS_17_ClassicAlgPolicyEEclB8ne210000INS_16reverse_iteratorIP10Elf32_ShdrEES7_NS4_INS_11__wrap_iterIS6_EEEEEENS_4pairIT_T1_EESC_T0_SD_
0000000000108324 W _ZNKSt6__ndk111__move_implINS_17_ClassicAlgPolicyEEclB8ne210000INS_16reverse_iteratorIP10Elf64_PhdrEES7_NS4_INS_11__wrap_iterIS6_EEEEEENS_4pairIT_T1_EESC_T0_SD_
000000000010cfd4 W _ZNKSt6__ndk111__move_implINS_17_ClassicAlgPolicyEEclB8ne210000INS_16reverse_iteratorIP10Elf64_ShdrEES7_NS4_INS_11__wrap_iterIS6_EEEEEENS_4pairIT_T1_EESC_T0_SD_
00000000000beec4 W _ZNKSt6__ndk112__hash_tableINS_12basic_stringIcNS_11char_traitsIcEENS_9allocatorIcEEEENS_4hashIS6_EENS_8equal_toIS6_EENS4_IS6_EEE14__count_uniqueIS6_EEmRKT_
00000000000bef84 W _ZNKSt6__ndk112__hash_tableINS_12basic_stringIcNS_11char_traitsIcEENS_9allocatorIcEEEENS_4hashIS6_EENS_8equal_toIS6_EENS4_IS6_EEE4findIS6_EENS_21__hash_const_iteratorIPNS_11__hash_nodeIS6_PvEEEERKT_
00000000000ebc80 W _ZNKSt6__ndk112__hash_tableINS_17__hash_value_typeINS_17basic_string_viewIcNS_11char_traitsIcEEEENS_12basic_stringIcS4_NS_9allocatorIcEEEEEENS_22__unordered_map_hasherIS5_SA_NS_4hashIS5_EENS_8equal_toIS5_EELb1EEENS_21__unordered_map_equalIS5_SA_SF_SD_Lb1EEENS7_ISA_EEE4findIS5_EENS_21__hash_const_iteratorIPNS_11__hash_nodeISA_PvEEEERKT_
000000000011ba1c T _ZNKSt6__ndk112bad_weak_ptr4whatEv
000000000011d518 W _ZNKSt6__ndk112basic_stringIcNS_11char_traitsIcEENS_9allocatorIcEEE12find_last_ofEPKcmm
000000000011cbe0 W _ZNKSt6__ndk112basic_stringIcNS_11char_traitsIcEENS_9allocatorIcEEE13find_first_ofEPKcmm
000000000011c6d8 W _ZNKSt6__ndk112basic_stringIcNS_11char_traitsIcEENS_9allocatorIcEEE16find_last_not_ofEPKcmm
000000000011c77c W _ZNKSt6__ndk112basic_stringIcNS_11char_traitsIcEENS_9allocatorIcEEE17find_first_not_ofEPKcmm
000000000011ca84 W _ZNKSt6__ndk112basic_stringIcNS_11char_traitsIcEENS_9allocatorIcEEE2atEm
000000000011d28c W _ZNKSt6__ndk112basic_stringIcNS_11char_traitsIcEENS_9allocatorIcEEE4copyEPcmm
000000000011df54 W _ZNKSt6__ndk112basic_stringIcNS_11char_traitsIcEENS_9allocatorIcEEE4findEPKcmm
000000000011d3c8 W _ZNKSt6__ndk112basic_stringIcNS_11char_traitsIcEENS_9allocatorIcEEE4findEcm
000000000011c448 W _ZNKSt6__ndk112basic_stringIcNS_11char_traitsIcEENS_9allocatorIcEEE5rfindEPKcmm
000000000011d960 W _ZNKSt6__ndk112basic_stringIcNS_11char_traitsIcEENS_9allocatorIcEEE5rfindEcm
000000000011dd0c W _ZNKSt6__ndk112basic_stringIcNS_11char_traitsIcEENS_9allocatorIcEEE7compareEPKc
000000000011de1c W _ZNKSt6__ndk112basic_stringIcNS_11char_traitsIcEENS_9allocatorIcEEE7compareEmmPKc
000000000011dd94 W _ZNKSt6__ndk112basic_stringIcNS_11char_traitsIcEENS_9allocatorIcEEE7compareEmmPKcm
000000000011e020 W _ZNKSt6__ndk112basic_stringIcNS_11char_traitsIcEENS_9allocatorIcEEE7compareEmmRKS5_mm
00000000000bca6c W _ZNKSt6__ndk112basic_stringIcNS_11char_traitsIcEENS_9allocatorIcEEE7compareINS_17basic_string_viewIcS2_EETnNS_9enable_ifIXsr33__can_be_converted_to_string_viewIcS2_T_EE5valueEiE4typeELi0EEEiRKSA_
000000000011fa14 W _ZNKSt6__ndk112basic_stringIwNS_11char_traitsIwEENS_9allocatorIwEEE12find_last_ofEPKwmm
000000000011f138 W _ZNKSt6__ndk112basic_stringIwNS_11char_traitsIwEENS_9allocatorIwEEE13find_first_ofEPKwmm
000000000011ec5c W _ZNKSt6__ndk112basic_stringIwNS_11char_traitsIwEENS_9allocatorIwEEE16find_last_not_ofEPKwmm
000000000011ed10 W _ZNKSt6__ndk112basic_stringIwNS_11char_traitsIwEENS_9allocatorIwEEE17find_first_not_ofEPKwmm
000000000011efd0 W _ZNKSt6__ndk112basic_stringIwNS_11char_traitsIwEENS_9allocatorIwEEE2atEm
000000000011f738 W _ZNKSt6__ndk112basic_stringIwNS_11char_traitsIwEENS_9allocatorIwEEE4copyEPwmm
00000000001203b0 W _ZNKSt6__ndk112basic_stringIwNS_11char_traitsIwEENS_9allocatorIwEEE4findEPKwmm
000000000011f880 W _ZNKSt6__ndk112basic_stringIwNS_11char_traitsIwEENS_9allocatorIwEEE4findEwm
000000000011e99c W _ZNKSt6__ndk112basic_stringIwNS_11char_traitsIwEENS_9allocatorIwEEE5rfindEPKwmm
000000000011fdb8 W _ZNKSt6__ndk112basic_stringIwNS_11char_traitsIwEENS_9allocatorIwEEE5rfindEwm
0000000000120144 W _ZNKSt6__ndk112basic_stringIwNS_11char_traitsIwEENS_9allocatorIwEEE7compareEPKw
000000000012026c W _ZNKSt6__ndk112basic_stringIwNS_11char_traitsIwEENS_9allocatorIwEEE7compareEmmPKw
00000000001201dc W _ZNKSt6__ndk112basic_stringIwNS_11char_traitsIwEENS_9allocatorIwEEE7compareEmmPKwm
0000000000120498 W _ZNKSt6__ndk112basic_stringIwNS_11char_traitsIwEENS_9allocatorIwEEE7compareEmmRKS5_mm
00000000001563e0 T _ZNKSt6__ndk112ctype_bynameIcE10do_tolowerEPcPKc
00000000001563c4 T _ZNKSt6__ndk112ctype_bynameIcE10do_tolowerEc
0000000000156298 T _ZNKSt6__ndk112ctype_bynameIcE10do_toupperEPcPKc
000000000015627c T _ZNKSt6__ndk112ctype_bynameIcE10do_toupperEc
00000000001569dc T _ZNKSt6__ndk112ctype_bynameIwE10do_scan_isEmPKwS3_
0000000000156cac T _ZNKSt6__ndk112ctype_bynameIwE10do_tolowerEPwPKw
0000000000156c98 T _ZNKSt6__ndk112ctype_bynameIwE10do_tolowerEw
0000000000156c40 T _ZNKSt6__ndk112ctype_bynameIwE10do_toupperEPwPKw
0000000000156c2c T _ZNKSt6__ndk112ctype_bynameIwE10do_toupperEw
0000000000156b04 T _ZNKSt6__ndk112ctype_bynameIwE11do_scan_notEmPKwS3_
0000000000156844 T _ZNKSt6__ndk112ctype_bynameIwE5do_isEPKwS3_Pm
00000000001566f0 T _ZNKSt6__ndk112ctype_bynameIwE5do_isEmw
0000000000156d74 T _ZNKSt6__ndk112ctype_bynameIwE8do_widenEPKcS3_Pw
0000000000156d04 T _ZNKSt6__ndk112ctype_bynameIwE8do_widenEc
0000000000156e9c T _ZNKSt6__ndk112ctype_bynameIwE9do_narrowEPKwS3_cPc
0000000000156e24 T _ZNKSt6__ndk112ctype_bynameIwE9do_narrowEwc
00000000001593c8 T _ZNKSt6__ndk114__codecvt_utf8IDiE10do_unshiftER9mbstate_tPcS4_RS4_
00000000001593d8 T _ZNKSt6__ndk114__codecvt_utf8IDiE11do_encodingEv
0000000000159410 T _ZNKSt6__ndk114__codecvt_utf8IDiE13do_max_lengthEv
00000000001593e4 T _ZNKSt6__ndk114__codecvt_utf8IDiE16do_always_noconvEv
0000000000159360 T _ZNKSt6__ndk114__codecvt_utf8IDiE5do_inER9mbstate_tPKcS5_RS5_PDiS7_RS7_
00000000001592f8 T _ZNKSt6__ndk114__codecvt_utf8IDiE6do_outER9mbstate_tPKDiS5_RS5_PcS7_RS7_
00000000001593f0 T _ZNKSt6__ndk114__codecvt_utf8IDiE9do_lengthER9mbstate_tPKcS5_m
0000000000159140 T _ZNKSt6__ndk114__codecvt_utf8IDsE10do_unshiftER9mbstate_tPcS4_RS4_
0000000000159150 T _ZNKSt6__ndk114__codecvt_utf8IDsE11do_encodingEv
00000000001592dc T _ZNKSt6__ndk114__codecvt_utf8IDsE13do_max_lengthEv
000000000015915c T _ZNKSt6__ndk114__codecvt_utf8IDsE16do_always_noconvEv
0000000000158fa0 T _ZNKSt6__ndk114__codecvt_utf8IDsE5do_inER9mbstate_tPKcS5_RS5_PDsS7_RS7_
0000000000158e94 T _ZNKSt6__ndk114__codecvt_utf8IDsE6do_outER9mbstate_tPKDsS5_RS5_PcS7_RS7_
0000000000159168 T _ZNKSt6__ndk114__codecvt_utf8IDsE9do_lengthER9mbstate_tPKcS5_m
0000000000158e30 T _ZNKSt6__ndk114__codecvt_utf8IwE10do_unshiftER9mbstate_tPcS4_RS4_
0000000000158e40 T _ZNKSt6__ndk114__codecvt_utf8IwE11do_encodingEv
0000000000158e78 T _ZNKSt6__ndk114__codecvt_utf8IwE13do_max_lengthEv
0000000000158e4c T _ZNKSt6__ndk114__codecvt_utf8IwE16do_always_noconvEv
0000000000158dc8 T _ZNKSt6__ndk114__codecvt_utf8IwE5do_inER9mbstate_tPKcS5_RS5_PwS7_RS7_
0000000000158d60 T _ZNKSt6__ndk114__codecvt_utf8IwE6do_outER9mbstate_tPKwS5_RS5_PcS7_RS7_
0000000000158e58 T _ZNKSt6__ndk114__codecvt_utf8IwE9do_lengthER9mbstate_tPKcS5_m
0000000000154b7c T _ZNKSt6__ndk114collate_bynameIcE10do_compareEPKcS3_S3_S3_
0000000000154d4c T _ZNKSt6__ndk114collate_bynameIcE12do_transformEPKcS3_
000000000015516c T _ZNKSt6__ndk114collate_bynameIwE10do_compareEPKwS3_S3_S3_
0000000000155370 T _ZNKSt6__ndk114collate_bynameIwE12do_transformEPKwS3_
0000000000125e7c T _ZNKSt6__ndk114error_category10equivalentERKNS_10error_codeEi
0000000000125e38 T _ZNKSt6__ndk114error_category10equivalentEiRKNS_15error_conditionE
0000000000125e24 T _ZNKSt6__ndk114error_category23default_error_conditionEi
000000000015a028 T _ZNKSt6__ndk115__codecvt_utf16IDiLb0EE10do_unshiftER9mbstate_tPcS4_RS4_
000000000015a038 T _ZNKSt6__ndk115__codecvt_utf16IDiLb0EE11do_encodingEv
000000000015a144 T _ZNKSt6__ndk115__codecvt_utf16IDiLb0EE13do_max_lengthEv
000000000015a044 T _ZNKSt6__ndk115__codecvt_utf16IDiLb0EE16do_always_noconvEv
0000000000159f2c T _ZNKSt6__ndk115__codecvt_utf16IDiLb0EE5do_inER9mbstate_tPKcS5_RS5_PDiS7_RS7_
0000000000159e54 T _ZNKSt6__ndk115__codecvt_utf16IDiLb0EE6do_outER9mbstate_tPKDiS5_RS5_PcS7_RS7_
000000000015a050 T _ZNKSt6__ndk115__codecvt_utf16IDiLb0EE9do_lengthER9mbstate_tPKcS5_m
000000000015a334 T _ZNKSt6__ndk115__codecvt_utf16IDiLb1EE10do_unshiftER9mbstate_tPcS4_RS4_
000000000015a344 T _ZNKSt6__ndk115__codecvt_utf16IDiLb1EE11do_encodingEv
000000000015a450 T _ZNKSt6__ndk115__codecvt_utf16IDiLb1EE13do_max_lengthEv
000000000015a350 T _ZNKSt6__ndk115__codecvt_utf16IDiLb1EE16do_always_noconvEv
000000000015a238 T _ZNKSt6__ndk115__codecvt_utf16IDiLb1EE5do_inER9mbstate_tPKcS5_RS5_PDiS7_RS7_
000000000015a160 T _ZNKSt6__ndk115__codecvt_utf16IDiLb1EE6do_outER9mbstate_tPKDiS5_RS5_PcS7_RS7_
000000000015a35c T _ZNKSt6__ndk115__codecvt_utf16IDiLb1EE9do_lengthER9mbstate_tPKcS5_m
0000000000159b74 T _ZNKSt6__ndk115__codecvt_utf16IDsLb0EE10do_unshiftER9mbstate_tPcS4_RS4_
0000000000159b84 T _ZNKSt6__ndk115__codecvt_utf16IDsLb0EE11do_encodingEv
0000000000159c30 T _ZNKSt6__ndk115__codecvt_utf16IDsLb0EE13do_max_lengthEv
0000000000159b90 T _ZNKSt6__ndk115__codecvt_utf16IDsLb0EE16do_always_noconvEv
0000000000159ae0 T _ZNKSt6__ndk115__codecvt_utf16IDsLb0EE5do_inER9mbstate_tPKcS5_RS5_PDsS7_RS7_
0000000000159a44 T _ZNKSt6__ndk115__codecvt_utf16IDsLb0EE6do_outER9mbstate_tPKDsS5_RS5_PcS7_RS7_
0000000000159b9c T _ZNKSt6__ndk115__codecvt_utf16IDsLb0EE9do_lengthER9mbstate_tPKcS5_m
0000000000159d7c T _ZNKSt6__ndk115__codecvt_utf16IDsLb1EE10do_unshiftER9mbstate_tPcS4_RS4_
0000000000159d8c T _ZNKSt6__ndk115__codecvt_utf16IDsLb1EE11do_encodingEv
0000000000159e38 T _ZNKSt6__ndk115__codecvt_utf16IDsLb1EE13do_max_lengthEv
0000000000159d98 T _ZNKSt6__ndk115__codecvt_utf16IDsLb1EE16do_always_noconvEv
0000000000159ce8 T _ZNKSt6__ndk115__codecvt_utf16IDsLb1EE5do_inER9mbstate_tPKcS5_RS5_PDsS7_RS7_
0000000000159c4c T _ZNKSt6__ndk115__codecvt_utf16IDsLb1EE6do_outER9mbstate_tPKDsS5_RS5_PcS7_RS7_
0000000000159da4 T _ZNKSt6__ndk115__codecvt_utf16IDsLb1EE9do_lengthER9mbstate_tPKcS5_m
0000000000159600 T _ZNKSt6__ndk115__codecvt_utf16IwLb0EE10do_unshiftER9mbstate_tPcS4_RS4_
0000000000159610 T _ZNKSt6__ndk115__codecvt_utf16IwLb0EE11do_encodingEv
000000000015971c T _ZNKSt6__ndk115__codecvt_utf16IwLb0EE13do_max_lengthEv
000000000015961c T _ZNKSt6__ndk115__codecvt_utf16IwLb0EE16do_always_noconvEv
0000000000159504 T _ZNKSt6__ndk115__codecvt_utf16IwLb0EE5do_inER9mbstate_tPKcS5_RS5_PwS7_RS7_
000000000015942c T _ZNKSt6__ndk115__codecvt_utf16IwLb0EE6do_outER9mbstate_tPKwS5_RS5_PcS7_RS7_
0000000000159628 T _ZNKSt6__ndk115__codecvt_utf16IwLb0EE9do_lengthER9mbstate_tPKcS5_m
000000000015990c T _ZNKSt6__ndk115__codecvt_utf16IwLb1EE10do_unshiftER9mbstate_tPcS4_RS4_
000000000015991c T _ZNKSt6__ndk115__codecvt_utf16IwLb1EE11do_encodingEv
0000000000159a28 T _ZNKSt6__ndk115__codecvt_utf16IwLb1EE13do_max_lengthEv
0000000000159928 T _ZNKSt6__ndk115__codecvt_utf16IwLb1EE16do_always_noconvEv
0000000000159810 T _ZNKSt6__ndk115__codecvt_utf16IwLb1EE5do_inER9mbstate_tPKcS5_RS5_PwS7_RS7_
0000000000159738 T _ZNKSt6__ndk115__codecvt_utf16IwLb1EE6do_outER9mbstate_tPKwS5_RS5_PcS7_RS7_
0000000000159934 T _ZNKSt6__ndk115__codecvt_utf16IwLb1EE9do_lengthER9mbstate_tPKcS5_m
0000000000125fe8 W _ZNKSt6__ndk115basic_streambufIcNS_11char_traitsIcEEE6getlocEv
000000000012b258 W _ZNKSt6__ndk115basic_streambufIwNS_11char_traitsIwEEE6getlocEv
00000000001308a8 W _ZNKSt6__ndk115basic_stringbufIcNS_11char_traitsIcEENS_9allocatorIcEEE3strEv
00000000001254ec T _ZNKSt6__ndk115error_condition7messageEv
00000000000c1920 W _ZNKSt6__ndk117basic_string_viewIcNS_11char_traitsIcEEE7compareES3_
0000000000145b24 W _ZNKSt6__ndk117moneypunct_bynameIcLb0EE11do_groupingEv
0000000000145bfc W _ZNKSt6__ndk117moneypunct_bynameIcLb0EE13do_neg_formatEv
0000000000145bf0 W _ZNKSt6__ndk117moneypunct_bynameIcLb0EE13do_pos_formatEv
0000000000145b54 W _ZNKSt6__ndk117moneypunct_bynameIcLb0EE14do_curr_symbolEv
0000000000145be4 W _ZNKSt6__ndk117moneypunct_bynameIcLb0EE14do_frac_digitsEv
0000000000145b0c W _ZNKSt6__ndk117moneypunct_bynameIcLb0EE16do_decimal_pointEv
0000000000145bb4 W _ZNKSt6__ndk117moneypunct_bynameIcLb0EE16do_negative_signEv
0000000000145b84 W _ZNKSt6__ndk117moneypunct_bynameIcLb0EE16do_positive_signEv
0000000000145b18 W _ZNKSt6__ndk117moneypunct_bynameIcLb0EE16do_thousands_sepEv
0000000000145c20 W _ZNKSt6__ndk117moneypunct_bynameIcLb1EE11do_groupingEv
0000000000145cf8 W _ZNKSt6__ndk117moneypunct_bynameIcLb1EE13do_neg_formatEv
0000000000145cec W _ZNKSt6__ndk117moneypunct_bynameIcLb1EE13do_pos_formatEv
0000000000145c50 W _ZNKSt6__ndk117moneypunct_bynameIcLb1EE14do_curr_symbolEv
0000000000145ce0 W _ZNKSt6__ndk117moneypunct_bynameIcLb1EE14do_frac_digitsEv
0000000000145c08 W _ZNKSt6__ndk117moneypunct_bynameIcLb1EE16do_decimal_pointEv
0000000000145cb0 W _ZNKSt6__ndk117moneypunct_bynameIcLb1EE16do_negative_signEv
0000000000145c80 W _ZNKSt6__ndk117moneypunct_bynameIcLb1EE16do_positive_signEv
0000000000145c14 W _ZNKSt6__ndk117moneypunct_bynameIcLb1EE16do_thousands_sepEv
0000000000145d1c W _ZNKSt6__ndk117moneypunct_bynameIwLb0EE11do_groupingEv
0000000000145df4 W _ZNKSt6__ndk117moneypunct_bynameIwLb0EE13do_neg_formatEv
0000000000145de8 W _ZNKSt6__ndk117moneypunct_bynameIwLb0EE13do_pos_formatEv
0000000000145d4c W _ZNKSt6__ndk117moneypunct_bynameIwLb0EE14do_curr_symbolEv
0000000000145ddc W _ZNKSt6__ndk117moneypunct_bynameIwLb0EE14do_frac_digitsEv
0000000000145d04 W _ZNKSt6__ndk117moneypunct_bynameIwLb0EE16do_decimal_pointEv
0000000000145dac W _ZNKSt6__ndk117moneypunct_bynameIwLb0EE16do_negative_signEv
0000000000145d7c W _ZNKSt6__ndk117moneypunct_bynameIwLb0EE16do_positive_signEv
0000000000145d10 W _ZNKSt6__ndk117moneypunct_bynameIwLb0EE16do_thousands_sepEv
0000000000145e18 W _ZNKSt6__ndk117moneypunct_bynameIwLb1EE11do_groupingEv
0000000000145ef0 W _ZNKSt6__ndk117moneypunct_bynameIwLb1EE13do_neg_formatEv
0000000000145ee4 W _ZNKSt6__ndk117moneypunct_bynameIwLb1EE13do_pos_formatEv
0000000000145e48 W _ZNKSt6__ndk117moneypunct_bynameIwLb1EE14do_curr_symbolEv
0000000000145ed8 W _ZNKSt6__ndk117moneypunct_bynameIwLb1EE14do_frac_digitsEv
0000000000145e00 W _ZNKSt6__ndk117moneypunct_bynameIwLb1EE16do_decimal_pointEv
0000000000145ea8 W _ZNKSt6__ndk117moneypunct_bynameIwLb1EE16do_negative_signEv
0000000000145e78 W _ZNKSt6__ndk117moneypunct_bynameIwLb1EE16do_positive_signEv
0000000000145e0c W _ZNKSt6__ndk117moneypunct_bynameIwLb1EE16do_thousands_sepEv
0000000000160f64 T _ZNKSt6__ndk118__time_get_storageIcE15__do_date_orderEv
00000000001611fc T _ZNKSt6__ndk118__time_get_storageIwE15__do_date_orderEv
000000000011bc34 T _ZNKSt6__ndk119__shared_weak_count13__get_deleterERKSt9type_info
000000000015ac2c T _ZNKSt6__ndk120__codecvt_utf8_utf16IDiE10do_unshiftER9mbstate_tPcS4_RS4_
000000000015ac3c T _ZNKSt6__ndk120__codecvt_utf8_utf16IDiE11do_encodingEv
000000000015ac74 T _ZNKSt6__ndk120__codecvt_utf8_utf16IDiE13do_max_lengthEv
000000000015ac48 T _ZNKSt6__ndk120__codecvt_utf8_utf16IDiE16do_always_noconvEv
000000000015abc4 T _ZNKSt6__ndk120__codecvt_utf8_utf16IDiE5do_inER9mbstate_tPKcS5_RS5_PDiS7_RS7_
000000000015ab5c T _ZNKSt6__ndk120__codecvt_utf8_utf16IDiE6do_outER9mbstate_tPKDiS5_RS5_PcS7_RS7_
000000000015ac54 T _ZNKSt6__ndk120__codecvt_utf8_utf16IDiE9do_lengthER9mbstate_tPKcS5_m
000000000015aaf8 T _ZNKSt6__ndk120__codecvt_utf8_utf16IDsE10do_unshiftER9mbstate_tPcS4_RS4_
000000000015ab08 T _ZNKSt6__ndk120__codecvt_utf8_utf16IDsE11do_encodingEv
000000000015ab40 T _ZNKSt6__ndk120__codecvt_utf8_utf16IDsE13do_max_lengthEv
000000000015ab14 T _ZNKSt6__ndk120__codecvt_utf8_utf16IDsE16do_always_noconvEv
000000000015aa90 T _ZNKSt6__ndk120__codecvt_utf8_utf16IDsE5do_inER9mbstate_tPKcS5_RS5_PDsS7_RS7_
000000000015aa28 T _ZNKSt6__ndk120__codecvt_utf8_utf16IDsE6do_outER9mbstate_tPKDsS5_RS5_PcS7_RS7_
000000000015ab20 T _ZNKSt6__ndk120__codecvt_utf8_utf16IDsE9do_lengthER9mbstate_tPKcS5_m
000000000015a9c4 T _ZNKSt6__ndk120__codecvt_utf8_utf16IwE10do_unshiftER9mbstate_tPcS4_RS4_
000000000015a9d4 T _ZNKSt6__ndk120__codecvt_utf8_utf16IwE11do_encodingEv
000000000015aa0c T _ZNKSt6__ndk120__codecvt_utf8_utf16IwE13do_max_lengthEv
000000000015a9e0 T _ZNKSt6__ndk120__codecvt_utf8_utf16IwE16do_always_noconvEv
000000000015a6f8 T _ZNKSt6__ndk120__codecvt_utf8_utf16IwE5do_inER9mbstate_tPKcS5_RS5_PwS7_RS7_
000000000015a46c T _ZNKSt6__ndk120__codecvt_utf8_utf16IwE6do_outER9mbstate_tPKwS5_RS5_PcS7_RS7_
000000000015a9ec T _ZNKSt6__ndk120__codecvt_utf8_utf16IwE9do_lengthER9mbstate_tPKcS5_m
00000000000d7164 W _ZNKSt6__ndk120__move_backward_implINS_17_ClassicAlgPolicyEEclB8ne210000I10Elf32_PhdrS4_TnNS_9enable_ifIXsr38__can_lower_move_assignment_to_memmoveIT_T0_EE5valueEiE4typeELi0EEENS_4pairIPS6_PS7_EESB_SB_SC_
00000000000e27f8 W _ZNKSt6__ndk120__move_backward_implINS_17_ClassicAlgPolicyEEclB8ne210000I10Elf32_ShdrS4_TnNS_9enable_ifIXsr38__can_lower_move_assignment_to_memmoveIT_T0_EE5valueEiE4typeELi0EEENS_4pairIPS6_PS7_EESB_SB_SC_
0000000000103fe8 W _ZNKSt6__ndk120__move_backward_implINS_17_ClassicAlgPolicyEEclB8ne210000I10Elf64_PhdrS4_TnNS_9enable_ifIXsr38__can_lower_move_assignment_to_memmoveIT_T0_EE5valueEiE4typeELi0EEENS_4pairIPS6_PS7_EESB_SB_SC_
000000000010e694 W _ZNKSt6__ndk120__move_backward_implINS_17_ClassicAlgPolicyEEclB8ne210000I10Elf64_ShdrS4_TnNS_9enable_ifIXsr38__can_lower_move_assignment_to_memmoveIT_T0_EE5valueEiE4typeELi0EEENS_4pairIPS6_PS7_EESB_SB_SC_
00000000000ed4c8 W _ZNKSt6__ndk120__move_backward_implINS_17_ClassicAlgPolicyEEclB8ne210000IccTnNS_9enable_ifIXsr38__can_lower_move_assignment_to_memmoveIT_T0_EE5valueEiE4typeELi0EEENS_4pairIPS5_PS6_EESA_SA_SB_
000000000015d200 T _ZNKSt6__ndk120__time_get_c_storageIcE3__XEv
000000000015d30c T _ZNKSt6__ndk120__time_get_c_storageIcE3__cEv
000000000015d418 T _ZNKSt6__ndk120__time_get_c_storageIcE3__rEv
000000000015d0f4 T _ZNKSt6__ndk120__time_get_c_storageIcE3__xEv
000000000015ce58 T _ZNKSt6__ndk120__time_get_c_storageIcE7__am_pmEv
000000000015b978 T _ZNKSt6__ndk120__time_get_c_storageIcE7__weeksEv
000000000015c170 T _ZNKSt6__ndk120__time_get_c_storageIcE8__monthsEv
000000000015d26c T _ZNKSt6__ndk120__time_get_c_storageIwE3__XEv
000000000015d378 T _ZNKSt6__ndk120__time_get_c_storageIwE3__cEv
000000000015d484 T _ZNKSt6__ndk120__time_get_c_storageIwE3__rEv
000000000015d160 T _ZNKSt6__ndk120__time_get_c_storageIwE3__xEv
000000000015cfa4 T _ZNKSt6__ndk120__time_get_c_storageIwE7__am_pmEv
000000000015be1c T _ZNKSt6__ndk120__time_get_c_storageIwE7__weeksEv
000000000015c8b0 T _ZNKSt6__ndk120__time_get_c_storageIwE8__monthsEv
0000000000120bc0 T _ZNKSt6__ndk121__basic_string_commonILb1EE20__throw_length_errorEv
0000000000120bd8 T _ZNKSt6__ndk121__basic_string_commonILb1EE20__throw_out_of_rangeEv
0000000000155e64 T _ZNKSt6__ndk15ctypeIcE10do_tolowerEPcPKc
0000000000155dc4 T _ZNKSt6__ndk15ctypeIcE10do_tolowerEc
0000000000155cf4 T _ZNKSt6__ndk15ctypeIcE10do_toupperEPcPKc
0000000000155c50 T _ZNKSt6__ndk15ctypeIcE10do_toupperEc
0000000000155f40 T _ZNKSt6__ndk15ctypeIcE8do_widenEPKcS3_Pc
0000000000155f34 T _ZNKSt6__ndk15ctypeIcE8do_widenEc
0000000000155fd8 T _ZNKSt6__ndk15ctypeIcE9do_narrowEPKcS3_cPc
0000000000155fc4 T _ZNKSt6__ndk15ctypeIcE9do_narrowEcc
0000000000155618 T _ZNKSt6__ndk15ctypeIwE10do_scan_isEmPKwS3_
00000000001558bc T _ZNKSt6__ndk15ctypeIwE10do_tolowerEPwPKw
0000000000155818 T _ZNKSt6__ndk15ctypeIwE10do_tolowerEw
0000000000155748 T _ZNKSt6__ndk15ctypeIwE10do_toupperEPwPKw
000000000015569c T _ZNKSt6__ndk15ctypeIwE10do_toupperEw
000000000015565c T _ZNKSt6__ndk15ctypeIwE11do_scan_notEmPKwS3_
00000000001555d0 T _ZNKSt6__ndk15ctypeIwE5do_isEPKwS3_Pm
0000000000155594 T _ZNKSt6__ndk15ctypeIwE5do_isEmw
0000000000155998 T _ZNKSt6__ndk15ctypeIwE8do_widenEPKcS3_Pw
000000000015598c T _ZNKSt6__ndk15ctypeIwE8do_widenEc
0000000000155a7c T _ZNKSt6__ndk15ctypeIwE9do_narrowEPKwS3_cPc
0000000000155a6c T _ZNKSt6__ndk15ctypeIwE9do_narrowEwc
00000000000e6ee8 W _ZNKSt6__ndk16__treeINS_12__value_typeINS_12basic_stringIcNS_11char_traitsIcEENS_9allocatorIcEEEES7_EENS_19__map_value_compareIS7_S8_NS_4lessIS7_EELb1EEENS5_IS8_EEE13__lower_boundIS7_EENS_21__tree_const_iteratorIS8_PNS_11__tree_nodeIS8_PvEElEERKT_SK_PNS_15__tree_end_nodeIPNS_16__tree_node_baseISI_EEEE
00000000000d3bd8 W _ZNKSt6__ndk16__treeINS_12__value_typeINS_12basic_stringIcNS_11char_traitsIcEENS_9allocatorIcEEEES7_EENS_19__map_value_compareIS7_S8_NS_4lessIS7_EELb1EEENS5_IS8_EEE14__count_uniqueIS7_EEmRKT_
00000000000e6d74 W _ZNKSt6__ndk16__treeINS_12__value_typeINS_12basic_stringIcNS_11char_traitsIcEENS_9allocatorIcEEEES7_EENS_19__map_value_compareIS7_S8_NS_4lessIS7_EELb1EEENS5_IS8_EEE4findIS7_EENS_21__tree_const_iteratorIS8_PNS_11__tree_nodeIS8_PvEElEERKT_
00000000000e6778 W _ZNKSt6__ndk16__treeINS_12basic_stringIcNS_11char_traitsIcEENS_9allocatorIcEEEENS_4lessIS6_EENS4_IS6_EEE14__count_uniqueIS6_EEmRKT_
00000000000d7b90 W _ZNKSt6__ndk16__treeIjNS_4lessIjEENS_9allocatorIjEEE14__count_uniqueIjEEmRKT_
0000000000154388 T _ZNKSt6__ndk16locale4nameEv
0000000000154674 T _ZNKSt6__ndk16locale9has_facetERNS0_2idE
000000000015476c T _ZNKSt6__ndk16locale9use_facetERNS0_2idE
00000000001547f4 T _ZNKSt6__ndk16localeeqERKS0_
0000000000158d10 T _ZNKSt6__ndk17codecvtIDiDu9mbstate_tE10do_unshiftERS1_PDuS4_RS4_
0000000000158d20 T _ZNKSt6__ndk17codecvtIDiDu9mbstate_tE11do_encodingEv
0000000000158d54 T _ZNKSt6__ndk17codecvtIDiDu9mbstate_tE13do_max_lengthEv
0000000000158d2c T _ZNKSt6__ndk17codecvtIDiDu9mbstate_tE16do_always_noconvEv
0000000000158cac T _ZNKSt6__ndk17codecvtIDiDu9mbstate_tE5do_inERS1_PKDuS5_RS5_PDiS7_RS7_
0000000000158b84 T _ZNKSt6__ndk17codecvtIDiDu9mbstate_tE6do_outERS1_PKDiS5_RS5_PDuS7_RS7_
0000000000158d38 T _ZNKSt6__ndk17codecvtIDiDu9mbstate_tE9do_lengthERS1_PKDuS5_m
0000000000158910 T _ZNKSt6__ndk17codecvtIDic9mbstate_tE10do_unshiftERS1_PcS4_RS4_
0000000000158920 T _ZNKSt6__ndk17codecvtIDic9mbstate_tE11do_encodingEv
0000000000158b48 T _ZNKSt6__ndk17codecvtIDic9mbstate_tE13do_max_lengthEv
000000000015892c T _ZNKSt6__ndk17codecvtIDic9mbstate_tE16do_always_noconvEv
000000000015867c T _ZNKSt6__ndk17codecvtIDic9mbstate_tE5do_inERS1_PKcS5_RS5_PDiS7_RS7_
00000000001583cc T _ZNKSt6__ndk17codecvtIDic9mbstate_tE6do_outERS1_PKDiS5_RS5_PcS7_RS7_
0000000000158938 T _ZNKSt6__ndk17codecvtIDic9mbstate_tE9do_lengthERS1_PKcS5_m
000000000015834c T _ZNKSt6__ndk17codecvtIDsDu9mbstate_tE10do_unshiftERS1_PDuS4_RS4_
000000000015835c T _ZNKSt6__ndk17codecvtIDsDu9mbstate_tE11do_encodingEv
0000000000158390 T _ZNKSt6__ndk17codecvtIDsDu9mbstate_tE13do_max_lengthEv
0000000000158368 T _ZNKSt6__ndk17codecvtIDsDu9mbstate_tE16do_always_noconvEv
00000000001582e8 T _ZNKSt6__ndk17codecvtIDsDu9mbstate_tE5do_inERS1_PKDuS5_RS5_PDsS7_RS7_
0000000000158284 T _ZNKSt6__ndk17codecvtIDsDu9mbstate_tE6do_outERS1_PKDsS5_RS5_PDuS7_RS7_
0000000000158374 T _ZNKSt6__ndk17codecvtIDsDu9mbstate_tE9do_lengthERS1_PKDuS5_m
0000000000157ff8 T _ZNKSt6__ndk17codecvtIDsc9mbstate_tE10do_unshiftERS1_PcS4_RS4_
0000000000158008 T _ZNKSt6__ndk17codecvtIDsc9mbstate_tE11do_encodingEv
0000000000158248 T _ZNKSt6__ndk17codecvtIDsc9mbstate_tE13do_max_lengthEv
0000000000158014 T _ZNKSt6__ndk17codecvtIDsc9mbstate_tE16do_always_noconvEv
0000000000157d28 T _ZNKSt6__ndk17codecvtIDsc9mbstate_tE5do_inERS1_PKcS5_RS5_PDsS7_RS7_
0000000000157a70 T _ZNKSt6__ndk17codecvtIDsc9mbstate_tE6do_outERS1_PKDsS5_RS5_PcS7_RS7_
0000000000158020 T _ZNKSt6__ndk17codecvtIDsc9mbstate_tE9do_lengthERS1_PKcS5_m
0000000000156fb0 T _ZNKSt6__ndk17codecvtIcc9mbstate_tE10do_unshiftERS1_PcS4_RS4_
0000000000156fc0 T _ZNKSt6__ndk17codecvtIcc9mbstate_tE11do_encodingEv
0000000000156fec T _ZNKSt6__ndk17codecvtIcc9mbstate_tE13do_max_lengthEv
0000000000156fcc T _ZNKSt6__ndk17codecvtIcc9mbstate_tE16do_always_noconvEv
0000000000156f9c T _ZNKSt6__ndk17codecvtIcc9mbstate_tE5do_inERS1_PKcS5_RS5_PcS7_RS7_
0000000000156f88 T _ZNKSt6__ndk17codecvtIcc9mbstate_tE6do_outERS1_PKcS5_RS5_PcS7_RS7_
0000000000156fd8 T _ZNKSt6__ndk17codecvtIcc9mbstate_tE9do_lengthERS1_PKcS5_m
0000000000157720 T _ZNKSt6__ndk17codecvtIwc9mbstate_tE10do_unshiftERS1_PcS4_RS4_
0000000000157800 T _ZNKSt6__ndk17codecvtIwc9mbstate_tE11do_encodingEv
00000000001579c8 T _ZNKSt6__ndk17codecvtIwc9mbstate_tE13do_max_lengthEv
00000000001578c4 T _ZNKSt6__ndk17codecvtIwc9mbstate_tE16do_always_noconvEv
0000000000157480 T _ZNKSt6__ndk17codecvtIwc9mbstate_tE5do_inERS1_PKcS5_RS5_PwS7_RS7_
00000000001571bc T _ZNKSt6__ndk17codecvtIwc9mbstate_tE6do_outERS1_PKwS5_RS5_PcS7_RS7_
00000000001578d0 T _ZNKSt6__ndk17codecvtIwc9mbstate_tE9do_lengthERS1_PKcS5_m
0000000000132f4c W _ZNKSt6__ndk17collateIcE10do_compareEPKcS3_S3_S3_
0000000000132fb0 W _ZNKSt6__ndk17collateIcE12do_transformEPKcS3_
000000000013305c W _ZNKSt6__ndk17collateIcE7do_hashEPKcS3_
00000000001330cc W _ZNKSt6__ndk17collateIwE10do_compareEPKwS3_S3_S3_
0000000000133124 W _ZNKSt6__ndk17collateIwE12do_transformEPKwS3_
00000000001331dc W _ZNKSt6__ndk17collateIwE7do_hashEPKwS3_
0000000000137280 W _ZNKSt6__ndk17num_getIcNS_19istreambuf_iteratorIcNS_11char_traitsIcEEEEE6do_getES4_S4_RNS_8ios_baseERjRPv
0000000000133214 W _ZNKSt6__ndk17num_getIcNS_19istreambuf_iteratorIcNS_11char_traitsIcEEEEE6do_getES4_S4_RNS_8ios_baseERjRb
0000000000136538 W _ZNKSt6__ndk17num_getIcNS_19istreambuf_iteratorIcNS_11char_traitsIcEEEEE6do_getES4_S4_RNS_8ios_baseERjRd
0000000000136bdc W _ZNKSt6__ndk17num_getIcNS_19istreambuf_iteratorIcNS_11char_traitsIcEEEEE6do_getES4_S4_RNS_8ios_baseERjRe
0000000000135e94 W _ZNKSt6__ndk17num_getIcNS_19istreambuf_iteratorIcNS_11char_traitsIcEEEEE6do_getES4_S4_RNS_8ios_baseERjRf
000000000013392c W _ZNKSt6__ndk17num_getIcNS_19istreambuf_iteratorIcNS_11char_traitsIcEEEEE6do_getES4_S4_RNS_8ios_baseERjRl
000000000013521c W _ZNKSt6__ndk17num_getIcNS_19istreambuf_iteratorIcNS_11char_traitsIcEEEEE6do_getES4_S4_RNS_8ios_baseERjRm
00000000001345a4 W _ZNKSt6__ndk17num_getIcNS_19istreambuf_iteratorIcNS_11char_traitsIcEEEEE6do_getES4_S4_RNS_8ios_baseERjRt
0000000000133f68 W _ZNKSt6__ndk17num_getIcNS_19istreambuf_iteratorIcNS_11char_traitsIcEEEEE6do_getES4_S4_RNS_8ios_baseERjRx
0000000000135858 W _ZNKSt6__ndk17num_getIcNS_19istreambuf_iteratorIcNS_11char_traitsIcEEEEE6do_getES4_S4_RNS_8ios_baseERjRy
0000000000134be0 W _ZNKSt6__ndk17num_getIcNS_19istreambuf_iteratorIcNS_11char_traitsIcEEEEE6do_getES4_S4_RNS_8ios_baseERjS8_
000000000013ba28 W _ZNKSt6__ndk17num_getIwNS_19istreambuf_iteratorIwNS_11char_traitsIwEEEEE6do_getES4_S4_RNS_8ios_baseERjRPv
0000000000137a10 W _ZNKSt6__ndk17num_getIwNS_19istreambuf_iteratorIwNS_11char_traitsIwEEEEE6do_getES4_S4_RNS_8ios_baseERjRb
000000000013acf8 W _ZNKSt6__ndk17num_getIwNS_19istreambuf_iteratorIwNS_11char_traitsIwEEEEE6do_getES4_S4_RNS_8ios_baseERjRd
000000000013b390 W _ZNKSt6__ndk17num_getIwNS_19istreambuf_iteratorIwNS_11char_traitsIwEEEEE6do_getES4_S4_RNS_8ios_baseERjRe
000000000013a660 W _ZNKSt6__ndk17num_getIwNS_19istreambuf_iteratorIwNS_11char_traitsIwEEEEE6do_getES4_S4_RNS_8ios_baseERjRf
0000000000138110 W _ZNKSt6__ndk17num_getIwNS_19istreambuf_iteratorIwNS_11char_traitsIwEEEEE6do_getES4_S4_RNS_8ios_baseERjRl
00000000001399f0 W _ZNKSt6__ndk17num_getIwNS_19istreambuf_iteratorIwNS_11char_traitsIwEEEEE6do_getES4_S4_RNS_8ios_baseERjRm
0000000000138d80 W _ZNKSt6__ndk17num_getIwNS_19istreambuf_iteratorIwNS_11char_traitsIwEEEEE6do_getES4_S4_RNS_8ios_baseERjRt
0000000000138748 W _ZNKSt6__ndk17num_getIwNS_19istreambuf_iteratorIwNS_11char_traitsIwEEEEE6do_getES4_S4_RNS_8ios_baseERjRx
000000000013a028 W _ZNKSt6__ndk17num_getIwNS_19istreambuf_iteratorIwNS_11char_traitsIwEEEEE6do_getES4_S4_RNS_8ios_baseERjRy
00000000001393b8 W _ZNKSt6__ndk17num_getIwNS_19istreambuf_iteratorIwNS_11char_traitsIwEEEEE6do_getES4_S4_RNS_8ios_baseERjS8_
000000000013e044 W _ZNKSt6__ndk17num_putIcNS_19ostreambuf_iteratorIcNS_11char_traitsIcEEEEE6do_putES4_RNS_8ios_baseEcPKv
000000000013cc4c W _ZNKSt6__ndk17num_putIcNS_19ostreambuf_iteratorIcNS_11char_traitsIcEEEEE6do_putES4_RNS_8ios_baseEcb
000000000013d724 W _ZNKSt6__ndk17num_putIcNS_19ostreambuf_iteratorIcNS_11char_traitsIcEEEEE6do_putES4_RNS_8ios_baseEcd
000000000013dbb8 W _ZNKSt6__ndk17num_putIcNS_19ostreambuf_iteratorIcNS_11char_traitsIcEEEEE6do_putES4_RNS_8ios_baseEce
000000000013ce2c W _ZNKSt6__ndk17num_putIcNS_19ostreambuf_iteratorIcNS_11char_traitsIcEEEEE6do_putES4_RNS_8ios_baseEcl
000000000013d2c4 W _ZNKSt6__ndk17num_putIcNS_19ostreambuf_iteratorIcNS_11char_traitsIcEEEEE6do_putES4_RNS_8ios_baseEcm
000000000013d078 W _ZNKSt6__ndk17num_putIcNS_19ostreambuf_iteratorIcNS_11char_traitsIcEEEEE6do_putES4_RNS_8ios_baseEcx
000000000013d4f4 W _ZNKSt6__ndk17num_putIcNS_19ostreambuf_iteratorIcNS_11char_traitsIcEEEEE6do_putES4_RNS_8ios_baseEcy
000000000013f6d8 W _ZNKSt6__ndk17num_putIwNS_19ostreambuf_iteratorIwNS_11char_traitsIwEEEEE6do_putES4_RNS_8ios_baseEwPKv
000000000013e2d8 W _ZNKSt6__ndk17num_putIwNS_19ostreambuf_iteratorIwNS_11char_traitsIwEEEEE6do_putES4_RNS_8ios_baseEwb
000000000013edb8 W _ZNKSt6__ndk17num_putIwNS_19ostreambuf_iteratorIwNS_11char_traitsIwEEEEE6do_putES4_RNS_8ios_baseEwd
000000000013f24c W _ZNKSt6__ndk17num_putIwNS_19ostreambuf_iteratorIwNS_11char_traitsIwEEEEE6do_putES4_RNS_8ios_baseEwe
000000000013e4c0 W _ZNKSt6__ndk17num_putIwNS_19ostreambuf_iteratorIwNS_11char_traitsIwEEEEE6do_putES4_RNS_8ios_baseEwl
000000000013e958 W _ZNKSt6__ndk17num_putIwNS_19ostreambuf_iteratorIwNS_11char_traitsIwEEEEE6do_putES4_RNS_8ios_baseEwm
000000000013e70c W _ZNKSt6__ndk17num_putIwNS_19ostreambuf_iteratorIwNS_11char_traitsIwEEEEE6do_putES4_RNS_8ios_baseEwx
000000000013eb88 W _ZNKSt6__ndk17num_putIwNS_19ostreambuf_iteratorIwNS_11char_traitsIwEEEEE6do_putES4_RNS_8ios_baseEwy
00000000001247c0 T _ZNKSt6__ndk18ios_base6getlocEv
000000000014c000 W _ZNKSt6__ndk18messagesIcE6do_getEliiRKNS_12basic_stringIcNS_11char_traitsIcEENS_9allocatorIcEEEE
000000000014bff4 W _ZNKSt6__ndk18messagesIcE7do_openERKNS_12basic_stringIcNS_11char_traitsIcEENS_9allocatorIcEEEERKNS_6localeE
000000000014c02c W _ZNKSt6__ndk18messagesIcE8do_closeEl
000000000014c040 W _ZNKSt6__ndk18messagesIwE6do_getEliiRKNS_12basic_stringIwNS_11char_traitsIwEENS_9allocatorIwEEEE
000000000014c034 W _ZNKSt6__ndk18messagesIwE7do_openERKNS_12basic_stringIcNS_11char_traitsIcEENS_9allocatorIcEEEERKNS_6localeE
000000000014c06c W _ZNKSt6__ndk18messagesIwE8do_closeEl
000000000015aeec T _ZNKSt6__ndk18numpunctIcE11do_groupingEv
000000000015af4c T _ZNKSt6__ndk18numpunctIcE11do_truenameEv
000000000015b030 T _ZNKSt6__ndk18numpunctIcE12do_falsenameEv
000000000015aebc T _ZNKSt6__ndk18numpunctIcE16do_decimal_pointEv
000000000015aed4 T _ZNKSt6__ndk18numpunctIcE16do_thousands_sepEv
000000000015af1c T _ZNKSt6__ndk18numpunctIwE11do_groupingEv
000000000015af6c T _ZNKSt6__ndk18numpunctIwE11do_truenameEv
000000000015b054 T _ZNKSt6__ndk18numpunctIwE12do_falsenameEv
000000000015aec8 T _ZNKSt6__ndk18numpunctIwE16do_decimal_pointEv
000000000015aee0 T _ZNKSt6__ndk18numpunctIwE16do_thousands_sepEv
0000000000142864 W _ZNKSt6__ndk18time_getIcNS_19istreambuf_iteratorIcNS_11char_traitsIcEEEEE10__get_hourERiRS4_S4_RjRKNS_5ctypeIcEE
000000000014211c W _ZNKSt6__ndk18time_getIcNS_19istreambuf_iteratorIcNS_11char_traitsIcEEEEE10__get_yearERiRS4_S4_RjRKNS_5ctypeIcEE
0000000000142c34 W _ZNKSt6__ndk18time_getIcNS_19istreambuf_iteratorIcNS_11char_traitsIcEEEEE11__get_am_pmERiRS4_S4_RjRKNS_5ctypeIcEE
0000000000142988 W _ZNKSt6__ndk18time_getIcNS_19istreambuf_iteratorIcNS_11char_traitsIcEEEEE11__get_monthERiRS4_S4_RjRKNS_5ctypeIcEE
0000000000142ddc W _ZNKSt6__ndk18time_getIcNS_19istreambuf_iteratorIcNS_11char_traitsIcEEEEE11__get_year4ERiRS4_S4_RjRKNS_5ctypeIcEE
0000000000141b64 W _ZNKSt6__ndk18time_getIcNS_19istreambuf_iteratorIcNS_11char_traitsIcEEEEE11do_get_dateES4_S4_RNS_8ios_baseERjP2tm
0000000000141b20 W _ZNKSt6__ndk18time_getIcNS_19istreambuf_iteratorIcNS_11char_traitsIcEEEEE11do_get_timeES4_S4_RNS_8ios_baseERjP2tm
0000000000142000 W _ZNKSt6__ndk18time_getIcNS_19istreambuf_iteratorIcNS_11char_traitsIcEEEEE11do_get_yearES4_S4_RNS_8ios_baseERjP2tm
00000000001429ec W _ZNKSt6__ndk18time_getIcNS_19istreambuf_iteratorIcNS_11char_traitsIcEEEEE12__get_minuteERiRS4_S4_RjRKNS_5ctypeIcEE
0000000000142d1c W _ZNKSt6__ndk18time_getIcNS_19istreambuf_iteratorIcNS_11char_traitsIcEEEEE12__get_secondERiRS4_S4_RjRKNS_5ctypeIcEE
00000000001428c4 W _ZNKSt6__ndk18time_getIcNS_19istreambuf_iteratorIcNS_11char_traitsIcEEEEE13__get_12_hourERiRS4_S4_RjRKNS_5ctypeIcEE
0000000000142e2c W _ZNKSt6__ndk18time_getIcNS_19istreambuf_iteratorIcNS_11char_traitsIcEEEEE13__get_percentERS4_S4_RjRKNS_5ctypeIcEE
0000000000142d7c W _ZNKSt6__ndk18time_getIcNS_19istreambuf_iteratorIcNS_11char_traitsIcEEEEE13__get_weekdayERiRS4_S4_RjRKNS_5ctypeIcEE
0000000000141b14 W _ZNKSt6__ndk18time_getIcNS_19istreambuf_iteratorIcNS_11char_traitsIcEEEEE13do_date_orderEv
0000000000141bf0 W _ZNKSt6__ndk18time_getIcNS_19istreambuf_iteratorIcNS_11char_traitsIcEEEEE14do_get_weekdayES4_S4_RNS_8ios_baseERjP2tm
0000000000141f50 W _ZNKSt6__ndk18time_getIcNS_19istreambuf_iteratorIcNS_11char_traitsIcEEEEE15__get_monthnameERiRS4_S4_RjRKNS_5ctypeIcEE
0000000000141e04 W _ZNKSt6__ndk18time_getIcNS_19istreambuf_iteratorIcNS_11char_traitsIcEEEEE16do_get_monthnameES4_S4_RNS_8ios_baseERjP2tm
0000000000141d48 W _ZNKSt6__ndk18time_getIcNS_19istreambuf_iteratorIcNS_11char_traitsIcEEEEE17__get_weekdaynameERiRS4_S4_RjRKNS_5ctypeIcEE
0000000000142a4c W _ZNKSt6__ndk18time_getIcNS_19istreambuf_iteratorIcNS_11char_traitsIcEEEEE17__get_white_spaceERS4_S4_RjRKNS_5ctypeIcEE
0000000000142928 W _ZNKSt6__ndk18time_getIcNS_19istreambuf_iteratorIcNS_11char_traitsIcEEEEE18__get_day_year_numERiRS4_S4_RjRKNS_5ctypeIcEE
000000000014163c W _ZNKSt6__ndk18time_getIcNS_19istreambuf_iteratorIcNS_11char_traitsIcEEEEE3getES4_S4_RNS_8ios_baseERjP2tmPKcSC_
0000000000142184 W _ZNKSt6__ndk18time_getIcNS_19istreambuf_iteratorIcNS_11char_traitsIcEEEEE6do_getES4_S4_RNS_8ios_baseERjP2tmcc
0000000000142800 W _ZNKSt6__ndk18time_getIcNS_19istreambuf_iteratorIcNS_11char_traitsIcEEEEE9__get_dayERiRS4_S4_RjRKNS_5ctypeIcEE
0000000000144584 W _ZNKSt6__ndk18time_getIwNS_19istreambuf_iteratorIwNS_11char_traitsIwEEEEE10__get_hourERiRS4_S4_RjRKNS_5ctypeIwEE
0000000000143e4c W _ZNKSt6__ndk18time_getIwNS_19istreambuf_iteratorIwNS_11char_traitsIwEEEEE10__get_yearERiRS4_S4_RjRKNS_5ctypeIwEE
000000000014495c W _ZNKSt6__ndk18time_getIwNS_19istreambuf_iteratorIwNS_11char_traitsIwEEEEE11__get_am_pmERiRS4_S4_RjRKNS_5ctypeIwEE
00000000001446a8 W _ZNKSt6__ndk18time_getIwNS_19istreambuf_iteratorIwNS_11char_traitsIwEEEEE11__get_monthERiRS4_S4_RjRKNS_5ctypeIwEE
0000000000144b04 W _ZNKSt6__ndk18time_getIwNS_19istreambuf_iteratorIwNS_11char_traitsIwEEEEE11__get_year4ERiRS4_S4_RjRKNS_5ctypeIwEE
0000000000143890 W _ZNKSt6__ndk18time_getIwNS_19istreambuf_iteratorIwNS_11char_traitsIwEEEEE11do_get_dateES4_S4_RNS_8ios_baseERjP2tm
0000000000143850 W _ZNKSt6__ndk18time_getIwNS_19istreambuf_iteratorIwNS_11char_traitsIwEEEEE11do_get_timeES4_S4_RNS_8ios_baseERjP2tm
0000000000143d30 W _ZNKSt6__ndk18time_getIwNS_19istreambuf_iteratorIwNS_11char_traitsIwEEEEE11do_get_yearES4_S4_RNS_8ios_baseERjP2tm
000000000014470c W _ZNKSt6__ndk18time_getIwNS_19istreambuf_iteratorIwNS_11char_traitsIwEEEEE12__get_minuteERiRS4_S4_RjRKNS_5ctypeIwEE
0000000000144a44 W _ZNKSt6__ndk18time_getIwNS_19istreambuf_iteratorIwNS_11char_traitsIwEEEEE12__get_secondERiRS4_S4_RjRKNS_5ctypeIwEE
00000000001445e4 W _ZNKSt6__ndk18time_getIwNS_19istreambuf_iteratorIwNS_11char_traitsIwEEEEE13__get_12_hourERiRS4_S4_RjRKNS_5ctypeIwEE
0000000000144b54 W _ZNKSt6__ndk18time_getIwNS_19istreambuf_iteratorIwNS_11char_traitsIwEEEEE13__get_percentERS4_S4_RjRKNS_5ctypeIwEE
0000000000144aa4 W _ZNKSt6__ndk18time_getIwNS_19istreambuf_iteratorIwNS_11char_traitsIwEEEEE13__get_weekdayERiRS4_S4_RjRKNS_5ctypeIwEE
0000000000143844 W _ZNKSt6__ndk18time_getIwNS_19istreambuf_iteratorIwNS_11char_traitsIwEEEEE13do_date_orderEv
0000000000143920 W _ZNKSt6__ndk18time_getIwNS_19istreambuf_iteratorIwNS_11char_traitsIwEEEEE14do_get_weekdayES4_S4_RNS_8ios_baseERjP2tm
0000000000143c80 W _ZNKSt6__ndk18time_getIwNS_19istreambuf_iteratorIwNS_11char_traitsIwEEEEE15__get_monthnameERiRS4_S4_RjRKNS_5ctypeIwEE
0000000000143b34 W _ZNKSt6__ndk18time_getIwNS_19istreambuf_iteratorIwNS_11char_traitsIwEEEEE16do_get_monthnameES4_S4_RNS_8ios_baseERjP2tm
0000000000143a78 W _ZNKSt6__ndk18time_getIwNS_19istreambuf_iteratorIwNS_11char_traitsIwEEEEE17__get_weekdaynameERiRS4_S4_RjRKNS_5ctypeIwEE
000000000014476c W _ZNKSt6__ndk18time_getIwNS_19istreambuf_iteratorIwNS_11char_traitsIwEEEEE17__get_white_spaceERS4_S4_RjRKNS_5ctypeIwEE
0000000000144648 W _ZNKSt6__ndk18time_getIwNS_19istreambuf_iteratorIwNS_11char_traitsIwEEEEE18__get_day_year_numERiRS4_S4_RjRKNS_5ctypeIwEE
000000000014335c W _ZNKSt6__ndk18time_getIwNS_19istreambuf_iteratorIwNS_11char_traitsIwEEEEE3getES4_S4_RNS_8ios_baseERjP2tmPKwSC_
0000000000143eb4 W _ZNKSt6__ndk18time_getIwNS_19istreambuf_iteratorIwNS_11char_traitsIwEEEEE6do_getES4_S4_RNS_8ios_baseERjP2tmcc
0000000000144520 W _ZNKSt6__ndk18time_getIwNS_19istreambuf_iteratorIwNS_11char_traitsIwEEEEE9__get_dayERiRS4_S4_RjRKNS_5ctypeIwEE
00000000001450a0 W _ZNKSt6__ndk18time_putIcNS_19ostreambuf_iteratorIcNS_11char_traitsIcEEEEE3putES4_RNS_8ios_baseEcPK2tmPKcSC_
000000000014533c W _ZNKSt6__ndk18time_putIcNS_19ostreambuf_iteratorIcNS_11char_traitsIcEEEEE6do_putES4_RNS_8ios_baseEcPK2tmcc
000000000014547c W _ZNKSt6__ndk18time_putIwNS_19ostreambuf_iteratorIwNS_11char_traitsIwEEEEE3putES4_RNS_8ios_baseEwPK2tmPKwSC_
0000000000145728 W _ZNKSt6__ndk18time_putIwNS_19ostreambuf_iteratorIwNS_11char_traitsIwEEEEE6do_putES4_RNS_8ios_baseEwPK2tmcc
00000000001475a0 W _ZNKSt6__ndk19money_getIcNS_19istreambuf_iteratorIcNS_11char_traitsIcEEEEE6do_getES4_S4_bRNS_8ios_baseERjRNS_12basic_stringIcS3_NS_9allocatorIcEEEE
0000000000145efc W _ZNKSt6__ndk19money_getIcNS_19istreambuf_iteratorIcNS_11char_traitsIcEEEEE6do_getES4_S4_bRNS_8ios_baseERjRe
00000000001496dc W _ZNKSt6__ndk19money_getIwNS_19istreambuf_iteratorIwNS_11char_traitsIwEEEEE6do_getES4_S4_bRNS_8ios_baseERjRNS_12basic_stringIwS3_NS_9allocatorIwEEEE
0000000000148054 W _ZNKSt6__ndk19money_getIwNS_19istreambuf_iteratorIwNS_11char_traitsIwEEEEE6do_getES4_S4_bRNS_8ios_baseERjRe
000000000014ac9c W _ZNKSt6__ndk19money_putIcNS_19ostreambuf_iteratorIcNS_11char_traitsIcEEEEE6do_putES4_bRNS_8ios_baseEcRKNS_12basic_stringIcS3_NS_9allocatorIcEEEE
0000000000149fd8 W _ZNKSt6__ndk19money_putIcNS_19ostreambuf_iteratorIcNS_11char_traitsIcEEEEE6do_putES4_bRNS_8ios_baseEce
000000000014bc20 W _ZNKSt6__ndk19money_putIwNS_19ostreambuf_iteratorIwNS_11char_traitsIwEEEEE6do_putES4_bRNS_8ios_baseEwRKNS_12basic_stringIwS3_NS_9allocatorIwEEEE
000000000014b050 W _ZNKSt6__ndk19money_putIwNS_19ostreambuf_iteratorIwNS_11char_traitsIwEEEEE6do_putES4_bRNS_8ios_baseEwe
0000000000166d54 T _ZNKSt8bad_cast4whatEv
00000000001669ec T _ZNKSt9bad_alloc4whatEv
0000000000166954 T _ZNKSt9exception4whatEv
0000000000166d64 T _ZNSt10bad_typeidC1Ev
0000000000166d64 T _ZNSt10bad_typeidC2Ev
0000000000166d84 T _ZNSt10bad_typeidD0Ev
0000000000166d7c T _ZNSt10bad_typeidD1Ev
0000000000166d7c T _ZNSt10bad_typeidD2Ev
000000000011bdf8 T _ZNSt11logic_errorC1EPKc
000000000011bd64 T _ZNSt11logic_errorC1ERKNSt6__ndk112basic_stringIcNS0_11char_traitsIcEENS0_9allocatorIcEEEE
000000000011be80 T _ZNSt11logic_errorC1ERKS_
000000000011bdf8 T _ZNSt11logic_errorC2EPKc
000000000011bd64 T _ZNSt11logic_errorC2ERKNSt6__ndk112basic_stringIcNS0_11char_traitsIcEENS0_9allocatorIcEEEE
000000000011be80 T _ZNSt11logic_errorC2ERKS_
0000000000166aac T _ZNSt11logic_errorD0Ev
0000000000166a54 T _ZNSt11logic_errorD1Ev
0000000000166a54 T _ZNSt11logic_errorD2Ev
000000000011beb8 T _ZNSt11logic_erroraSERKS_
0000000000166c3c T _ZNSt11range_errorD0Ev
0000000000166ae8 T _ZNSt11range_errorD1Ev
0000000000166ae8 T _ZNSt11range_errorD2Ev
0000000000166b7c T _ZNSt12domain_errorD0Ev
0000000000166a54 T _ZNSt12domain_errorD1Ev
0000000000166a54 T _ZNSt12domain_errorD2Ev
0000000000166bdc T _ZNSt12length_errorD0Ev
0000000000166a54 T _ZNSt12length_errorD1Ev
0000000000166a54 T _ZNSt12length_errorD2Ev
0000000000166c0c T _ZNSt12out_of_rangeD0Ev
0000000000166a54 T _ZNSt12out_of_rangeD1Ev
0000000000166a54 T _ZNSt12out_of_rangeD2Ev
0000000000166964 T _ZNSt13bad_exceptionD0Ev
000000000016691c T _ZNSt13bad_exceptionD1Ev
000000000016691c T _ZNSt13bad_exceptionD2Ev
0000000000132de8 T _ZNSt13exception_ptr31__from_native_exception_pointerEPv
0000000000132d80 T _ZNSt13exception_ptrC1ERKS_
0000000000132d80 T _ZNSt13exception_ptrC2ERKS_
0000000000132d74 T _ZNSt13exception_ptrD1Ev
0000000000132d74 T _ZNSt13exception_ptrD2Ev
0000000000132d98 T _ZNSt13exception_ptraSERKS_
000000000011bfa8 T _ZNSt13runtime_errorC1EPKc
000000000011bf14 T _ZNSt13runtime_errorC1ERKNSt6__ndk112basic_stringIcNS0_11char_traitsIcEENS0_9allocatorIcEEEE
000000000011c030 T _ZNSt13runtime_errorC1ERKS_
000000000011bfa8 T _ZNSt13runtime_errorC2EPKc
000000000011bf14 T _ZNSt13runtime_errorC2ERKNSt6__ndk112basic_stringIcNS0_11char_traitsIcEENS0_9allocatorIcEEEE
000000000011c030 T _ZNSt13runtime_errorC2ERKS_
0000000000166b40 T _ZNSt13runtime_errorD0Ev
0000000000166ae8 T _ZNSt13runtime_errorD1Ev
0000000000166ae8 T _ZNSt13runtime_errorD2Ev
000000000011c068 T _ZNSt13runtime_erroraSERKS_
0000000000166c6c T _ZNSt14overflow_errorD0Ev
0000000000166ae8 T _ZNSt14overflow_errorD1Ev
0000000000166ae8 T _ZNSt14overflow_errorD2Ev
0000000000166c9c T _ZNSt15underflow_errorD0Ev
0000000000166ae8 T _ZNSt15underflow_errorD1Ev
0000000000166ae8 T _ZNSt15underflow_errorD2Ev
0000000000166bac T _ZNSt16invalid_argumentD0Ev
0000000000166a54 T _ZNSt16invalid_argumentD1Ev
0000000000166a54 T _ZNSt16invalid_argumentD2Ev
0000000000132df4 T _ZNSt16nested_exceptionC1Ev
0000000000132df4 T _ZNSt16nested_exceptionC2Ev
0000000000132e74 T _ZNSt16nested_exceptionD0Ev
0000000000132e5c T _ZNSt16nested_exceptionD1Ev
0000000000132e5c T _ZNSt16nested_exceptionD2Ev
00000000001669fc T _ZNSt20bad_array_new_lengthC1Ev
00000000001669fc T _ZNSt20bad_array_new_lengthC2Ev
0000000000166a14 T _ZNSt20bad_array_new_lengthD0Ev
000000000016691c T _ZNSt20bad_array_new_lengthD1Ev
000000000016691c T _ZNSt20bad_array_new_lengthD2Ev
000000000015d524 T _ZNSt6__ndk110__time_getC1EPKc
000000000015d5fc T _ZNSt6__ndk110__time_getC1ERKNS_12basic_stringIcNS_11char_traitsIcEENS_9allocatorIcEEEE
000000000015d524 T _ZNSt6__ndk110__time_getC2EPKc
000000000015d5fc T _ZNSt6__ndk110__time_getC2ERKNS_12basic_stringIcNS_11char_traitsIcEENS_9allocatorIcEEEE
000000000015d6a0 T _ZNSt6__ndk110__time_getD1Ev
000000000015d6a0 T _ZNSt6__ndk110__time_getD2Ev
0000000000161494 T _ZNSt6__ndk110__time_putC1EPKc
000000000016156c T _ZNSt6__ndk110__time_putC1ERKNS_12basic_stringIcNS_11char_traitsIcEENS_9allocatorIcEEEE
0000000000161494 T _ZNSt6__ndk110__time_putC2EPKc
000000000016156c T _ZNSt6__ndk110__time_putC2ERKNS_12basic_stringIcNS_11char_traitsIcEENS_9allocatorIcEEEE
0000000000161610 T _ZNSt6__ndk110__time_putD1Ev
0000000000161610 T _ZNSt6__ndk110__time_putD2Ev
0000000000074788 R _ZNSt6__ndk110ctype_base5alnumE
0000000000074760 R _ZNSt6__ndk110ctype_base5alphaE
0000000000074780 R _ZNSt6__ndk110ctype_base5blankE
0000000000074748 R _ZNSt6__ndk110ctype_base5cntrlE
0000000000074768 R _ZNSt6__ndk110ctype_base5digitE
0000000000074790 R _ZNSt6__ndk110ctype_base5graphE
0000000000074758 R _ZNSt6__ndk110ctype_base5lowerE
0000000000074740 R _ZNSt6__ndk110ctype_base5printE
0000000000074770 R _ZNSt6__ndk110ctype_base5punctE
0000000000074738 R _ZNSt6__ndk110ctype_base5spaceE
0000000000074750 R _ZNSt6__ndk110ctype_base5upperE
0000000000074778 R _ZNSt6__ndk110ctype_base6xdigitE
000000000019f400 V _ZNSt6__ndk110moneypunctIcLb0EE2idE
0000000000074714 V _ZNSt6__ndk110moneypunctIcLb0EE4intlE
000000000019f410 V _ZNSt6__ndk110moneypunctIcLb1EE2idE
0000000000074715 V _ZNSt6__ndk110moneypunctIcLb1EE4intlE
000000000019f420 V _ZNSt6__ndk110moneypunctIwLb0EE2idE
0000000000074716 V _ZNSt6__ndk110moneypunctIwLb0EE4intlE
000000000019f430 V _ZNSt6__ndk110moneypunctIwLb1EE2idE
0000000000074717 V _ZNSt6__ndk110moneypunctIwLb1EE4intlE
00000000000b958c W _ZNSt6__ndk110shared_ptrINS_6vectorIhNS_9allocatorIhEEEEE27__create_with_control_blockB8ne210000IS4_NS_20__shared_ptr_emplaceIS4_NS2_IS4_EEEEEES5_PT_PT0_
0000000000123e2c T _ZNSt6__ndk110to_wstringEd
0000000000123f70 T _ZNSt6__ndk110to_wstringEe
0000000000123ce4 T _ZNSt6__ndk110to_wstringEf
0000000000122af4 T _ZNSt6__ndk110to_wstringEi
0000000000123210 T _ZNSt6__ndk110to_wstringEj
0000000000122cb0 T _ZNSt6__ndk110to_wstringEl
0000000000123368 T _ZNSt6__ndk110to_wstringEm
0000000000122f60 T _ZNSt6__ndk110to_wstringEx
00000000001235c4 T _ZNSt6__ndk110to_wstringEy
00000000000d9d88 W _ZNSt6__ndk110unique_ptrI10Elf32_PhdrNS_26__temporary_buffer_deleterIS1_EEEC2B8ne210000ILb1EvEEPS1_NS_16__dependent_typeINS_27__unique_ptr_deleter_sfinaeIS3_EEXT_EE20__good_rval_ref_typeE
00000000000d97fc W _ZNSt6__ndk110unique_ptrI10Elf32_PhdrNS_26__temporary_buffer_deleterIS1_EEEC2B8ne210000ILb1EvEEv
00000000000da24c W _ZNSt6__ndk110unique_ptrI10Elf32_PhdrRNS_12__destruct_nEEC2B8ne210000ILb1EvEEPS1_NS_16__dependent_typeINS_27__unique_ptr_deleter_sfinaeIS3_EEXT_EE15__lval_ref_typeE
00000000000de33c W _ZNSt6__ndk110unique_ptrI10Elf32_ShdrNS_26__temporary_buffer_deleterIS1_EEEC2B8ne210000ILb1EvEEPS1_NS_16__dependent_typeINS_27__unique_ptr_deleter_sfinaeIS3_EEXT_EE20__good_rval_ref_typeE
00000000000ddd88 W _ZNSt6__ndk110unique_ptrI10Elf32_ShdrNS_26__temporary_buffer_deleterIS1_EEEC2B8ne210000ILb1EvEEv
00000000000de77c W _ZNSt6__ndk110unique_ptrI10Elf32_ShdrRNS_12__destruct_nEEC2B8ne210000ILb1EvEEPS1_NS_16__dependent_typeINS_27__unique_ptr_deleter_sfinaeIS3_EEXT_EE15__lval_ref_typeE
0000000000105a9c W _ZNSt6__ndk110unique_ptrI10Elf64_PhdrNS_26__temporary_buffer_deleterIS1_EEEC2B8ne210000ILb1EvEEPS1_NS_16__dependent_typeINS_27__unique_ptr_deleter_sfinaeIS3_EEXT_EE20__good_rval_ref_typeE
00000000001054d4 W _ZNSt6__ndk110unique_ptrI10Elf64_PhdrNS_26__temporary_buffer_deleterIS1_EEEC2B8ne210000ILb1EvEEv
0000000000105f70 W _ZNSt6__ndk110unique_ptrI10Elf64_PhdrRNS_12__destruct_nEEC2B8ne210000ILb1EvEEPS1_NS_16__dependent_typeINS_27__unique_ptr_deleter_sfinaeIS3_EEXT_EE15__lval_ref_typeE
000000000010a12c W _ZNSt6__ndk110unique_ptrI10Elf64_ShdrNS_26__temporary_buffer_deleterIS1_EEEC2B8ne210000ILb1EvEEPS1_NS_16__dependent_typeINS_27__unique_ptr_deleter_sfinaeIS3_EEXT_EE20__good_rval_ref_typeE
0000000000109ba0 W _ZNSt6__ndk110unique_ptrI10Elf64_ShdrNS_26__temporary_buffer_deleterIS1_EEEC2B8ne210000ILb1EvEEv
000000000010a584 W _ZNSt6__ndk110unique_ptrI10Elf64_ShdrRNS_12__destruct_nEEC2B8ne210000ILb1EvEEPS1_NS_16__dependent_typeINS_27__unique_ptr_deleter_sfinaeIS3_EEXT_EE15__lval_ref_typeE
00000000000c3ae8 W _ZNSt6__ndk110unique_ptrIA_PNS_16__hash_node_baseIPNS_11__hash_nodeINS_12basic_stringIcNS_11char_traitsIcEENS_9allocatorIcEEEEPvEEEENS_25__bucket_list_deallocatorINS6_ISD_EEEEE5resetB8ne210000IPSD_TnNS_9enable_ifIXsr28_CheckArrayPointerConversionIT_EE5valueEiE4typeELi0EEEvSM_
000000000011b01c W _ZNSt6__ndk110unique_ptrIA_PNS_16__hash_node_baseIPNS_11__hash_nodeINS_12basic_stringIcNS_11char_traitsIcEENS_9allocatorIcEEEEPvEEEENS_25__bucket_list_deallocatorINS6_ISD_EEEEEC2B8ne210000ILb1EvEEv
00000000000e86d0 W _ZNSt6__ndk110unique_ptrIA_PNS_16__hash_node_baseIPNS_11__hash_nodeINS_17__hash_value_typeINS_12basic_stringIcNS_11char_traitsIcEENS_9allocatorIcEEEEjEEPvEEEENS_25__bucket_list_deallocatorINS7_ISF_EEEEE5resetB8ne210000IPSF_TnNS_9enable_ifIXsr28_CheckArrayPointerConversionIT_EE5valueEiE4typeELi0EEEvSO_
00000000000e6c80 W _ZNSt6__ndk110unique_ptrIA_PNS_16__hash_node_baseIPNS_11__hash_nodeINS_17__hash_value_typeINS_12basic_stringIcNS_11char_traitsIcEENS_9allocatorIcEEEEjEEPvEEEENS_25__bucket_list_deallocatorINS7_ISF_EEEEEC2B8ne210000ILb1EvEEv
00000000001126f0 W _ZNSt6__ndk110unique_ptrIA_PNS_16__hash_node_baseIPNS_11__hash_nodeINS_17__hash_value_typeINS_12basic_stringIcNS_11char_traitsIcEENS_9allocatorIcEEEEmEEPvEEEENS_25__bucket_list_deallocatorINS7_ISF_EEEEE5resetB8ne210000IPSF_TnNS_9enable_ifIXsr28_CheckArrayPointerConversionIT_EE5valueEiE4typeELi0EEEvSO_
000000000011105c W _ZNSt6__ndk110unique_ptrIA_PNS_16__hash_node_baseIPNS_11__hash_nodeINS_17__hash_value_typeINS_12basic_stringIcNS_11char_traitsIcEENS_9allocatorIcEEEEmEEPvEEEENS_25__bucket_list_deallocatorINS7_ISF_EEEEEC2B8ne210000ILb1EvEEv
00000000000c23f8 W _ZNSt6__ndk110unique_ptrIA_PNS_16__hash_node_baseIPNS_11__hash_nodeINS_17__hash_value_typeINS_17basic_string_viewIcNS_11char_traitsIcEEEENS_12basic_stringIcS6_NS_9allocatorIcEEEEEEPvEEEENS_25__bucket_list_deallocatorINS9_ISH_EEEEE5resetB8ne210000IPSH_TnNS_9enable_ifIXsr28_CheckArrayPointerConversionIT_EE5valueEiE4typeELi0EEEvSQ_
000000000011ad80 W _ZNSt6__ndk110unique_ptrIA_PNS_16__hash_node_baseIPNS_11__hash_nodeINS_17__hash_value_typeINS_17basic_string_viewIcNS_11char_traitsIcEEEENS_12basic_stringIcS6_NS_9allocatorIcEEEEEEPvEEEENS_25__bucket_list_deallocatorINS9_ISH_EEEEEC2B8ne210000ILb1EvEEv
00000000000c33e4 W _ZNSt6__ndk110unique_ptrINS_11__hash_nodeINS_12basic_stringIcNS_11char_traitsIcEENS_9allocatorIcEEEEPvEENS_22__hash_node_destructorINS5_IS9_EEEEEC2B8ne210000ILb1EvEEPS9_NS_16__dependent_typeINS_27__unique_ptr_deleter_sfinaeISC_EEXT_EE20__good_rval_ref_typeE
00000000000e7ea0 W _ZNSt6__ndk110unique_ptrINS_11__hash_nodeINS_17__hash_value_typeINS_12basic_stringIcNS_11char_traitsIcEENS_9allocatorIcEEEEjEEPvEENS_22__hash_node_destructorINS6_ISB_EEEEEC2B8ne210000ILb1EvEEPSB_NS_16__dependent_typeINS_27__unique_ptr_deleter_sfinaeISE_EEXT_EE20__good_rval_ref_typeE
0000000000111ec0 W _ZNSt6__ndk110unique_ptrINS_11__hash_nodeINS_17__hash_value_typeINS_12basic_stringIcNS_11char_traitsIcEENS_9allocatorIcEEEEmEEPvEENS_22__hash_node_destructorINS6_ISB_EEEEEC2B8ne210000ILb1EvEEPSB_NS_16__dependent_typeINS_27__unique_ptr_deleter_sfinaeISE_EEXT_EE20__good_rval_ref_typeE
00000000000c1b20 W _ZNSt6__ndk110unique_ptrINS_11__hash_nodeINS_17__hash_value_typeINS_17basic_string_viewIcNS_11char_traitsIcEEEENS_12basic_stringIcS5_NS_9allocatorIcEEEEEEPvEENS_22__hash_node_destructorINS8_ISD_EEEEEC2B8ne210000ILb1EvEEPSD_NS_16__dependent_typeINS_27__unique_ptr_deleter_sfinaeISG_EEXT_EE20__good_rval_ref_typeE
00000000000bde74 W _ZNSt6__ndk110unique_ptrINS_11__tree_nodeINS_12__value_typeINS_12basic_stringIcNS_11char_traitsIcEENS_9allocatorIcEEEES8_EEPvEENS_22__tree_node_destructorINS6_ISB_EEEEEC2B8ne210000ILb1EvEEPSB_NS_16__dependent_typeINS_27__unique_ptr_deleter_sfinaeISE_EEXT_EE20__good_rval_ref_typeE
00000000000bcc48 W _ZNSt6__ndk110unique_ptrINS_11__tree_nodeINS_12basic_stringIcNS_11char_traitsIcEENS_9allocatorIcEEEEPvEENS_22__tree_node_destructorINS5_IS9_EEEEEC2B8ne210000ILb1EvEEPS9_NS_16__dependent_typeINS_27__unique_ptr_deleter_sfinaeISC_EEXT_EE20__good_rval_ref_typeE
00000000000d841c W _ZNSt6__ndk110unique_ptrINS_11__tree_nodeIjPvEENS_22__tree_node_destructorINS_9allocatorIS3_EEEEEC2B8ne210000ILb1EvEEPS3_NS_16__dependent_typeINS_27__unique_ptr_deleter_sfinaeIS7_EEXT_EE20__good_rval_ref_typeE
00000000000e9c00 W _ZNSt6__ndk110unique_ptrINS_11__tree_nodeImPvEENS_22__tree_node_destructorINS_9allocatorIS3_EEEEEC2B8ne210000ILb1EvEEPS3_NS_16__dependent_typeINS_27__unique_ptr_deleter_sfinaeIS7_EEXT_EE20__good_rval_ref_typeE
00000000001661c4 T _ZNSt6__ndk111__call_onceERVmPvPFvS2_E
00000000000f00e4 W _ZNSt6__ndk111__introsortINS_17_ClassicAlgPolicyERZN7ElfFileI10Elf32_Ehdr10Elf32_Phdr10Elf32_Shdrjj9Elf32_Dyn9Elf32_Symt12Elf32_Verdef13Elf32_Verdaux13Elf32_Verneed13Elf32_Vernaux9Elf32_Rel10Elf32_RelaLj32EE19rebuildGnuHashTableE4spanIcESF_IS7_EEUlRT_RT0_E_PZNSE_19rebuildGnuHashTableESG_SH_E5EntryLb0EEEvT1_SQ_SK_NS_15iterator_traitsISQ_E15difference_typeEb
0000000000115930 W _ZNSt6__ndk111__introsortINS_17_ClassicAlgPolicyERZN7ElfFileI10Elf64_Ehdr10Elf64_Phdr10Elf64_Shdrmm9Elf64_Dyn9Elf64_Symt12Elf64_Verdef13Elf64_Verdaux13Elf64_Verneed13Elf64_Vernaux9Elf64_Rel10Elf64_RelaLj64EE19rebuildGnuHashTableE4spanIcESF_IS7_EEUlRT_RT0_E_PZNSE_19rebuildGnuHashTableESG_SH_E5EntryLb0EEEvT1_SQ_SK_NS_15iterator_traitsISQ_E15difference_typeEb
0000000000147b48 W _ZNSt6__ndk111__money_getIcE13__gather_infoEbRKNS_6localeERNS_10money_base7patternERcS8_RNS_12basic_stringIcNS_11char_traitsIcEENS_9allocatorIcEEEESF_SF_SF_Ri
0000000000149ca0 W _ZNSt6__ndk111__money_getIwE13__gather_infoEbRKNS_6localeERNS_10money_base7patternERwS8_RNS_12basic_stringIcNS_11char_traitsIcEENS_9allocatorIcEEEERNS9_IwNSA_IwEENSC_IwEEEESJ_SJ_Ri
000000000014a4b4 W _ZNSt6__ndk111__money_putIcE13__gather_infoEbbRKNS_6localeERNS_10money_base7patternERcS8_RNS_12basic_stringIcNS_11char_traitsIcEENS_9allocatorIcEEEESF_SF_Ri
000000000014a6e0 W _ZNSt6__ndk111__money_putIcE8__formatEPcRS2_S3_jPKcS5_RKNS_5ctypeIcEEbRKNS_10money_base7patternEccRKNS_12basic_stringIcNS_11char_traitsIcEENS_9allocatorIcEEEESL_SL_i
000000000014b548 W _ZNSt6__ndk111__money_putIwE13__gather_infoEbbRKNS_6localeERNS_10money_base7patternERwS8_RNS_12basic_stringIcNS_11char_traitsIcEENS_9allocatorIcEEEERNS9_IwNSA_IwEENSC_IwEEEESJ_Ri
000000000014b77c W _ZNSt6__ndk111__money_putIwE8__formatEPwRS2_S3_jPKwS5_RKNS_5ctypeIwEEbRKNS_10money_base7patternEwwRKNS_12basic_stringIcNS_11char_traitsIcEENS_9allocatorIcEEEERKNSE_IwNSF_IwEENSH_IwEEEESQ_i
00000000000d5584 W _ZNSt6__ndk111__wrap_iterIPK10Elf32_PhdrEC2B8ne210000IPS1_TnNS_9enable_ifIXsr4_AndINS_14is_convertibleIRKT_S3_EENS_7_OrImplIXaantcvbsr7is_sameIRS2_NS_15iterator_traitsIS9_E9referenceEEE5valuenesZT1_Li0EEE7_ResultINS_7is_sameISE_SH_EENSK_ISE_RKu20__remove_reference_tISH_EEEEEEE5valueEiE4typeELi0EEERKNS0_IS9_EE
00000000001023ac W _ZNSt6__ndk111__wrap_iterIPK10Elf64_PhdrEC2B8ne210000IPS1_TnNS_9enable_ifIXsr4_AndINS_14is_convertibleIRKT_S3_EENS_7_OrImplIXaantcvbsr7is_sameIRS2_NS_15iterator_traitsIS9_E9referenceEEE5valuenesZT1_Li0EEE7_ResultINS_7is_sameISE_SH_EENSK_ISE_RKu20__remove_reference_tISH_EEEEEEE5valueEiE4typeELi0EEERKNS0_IS9_EE
00000000000cca80 W _ZNSt6__ndk111__wrap_iterIPKcEC2B8ne210000IPcTnNS_9enable_ifIXsr4_AndINS_14is_convertibleIRKT_S2_EENS_7_OrImplIXaantcvbsr7is_sameIRS1_NS_15iterator_traitsIS8_E9referenceEEE5valuenesZT1_Li0EEE7_ResultINS_7is_sameISD_SG_EENSJ_ISD_RKu20__remove_reference_tISG_EEEEEEE5valueEiE4typeELi0EEERKNS0_IS8_EE
0000000000146238 T _ZNSt6__ndk112__do_nothingEPv
000000000011bc88 T _ZNSt6__ndk112__get_sp_mutEPKv
00000000000c3860 W _ZNSt6__ndk112__hash_tableINS_12basic_stringIcNS_11char_traitsIcEENS_9allocatorIcEEEENS_4hashIS6_EENS_8equal_toIS6_EENS4_IS6_EEE11__do_rehashILb1EEEvm
00000000000c30b4 W _ZNSt6__ndk112__hash_tableINS_12basic_stringIcNS_11char_traitsIcEENS_9allocatorIcEEEENS_4hashIS6_EENS_8equal_toIS6_EENS4_IS6_EEE21__construct_node_hashIRKS6_JEEENS_10unique_ptrINS_11__hash_nodeIS6_PvEENS_22__hash_node_destructorINS4_ISJ_EEEEEEmOT_DpOT0_
00000000000c2bc4 W _ZNSt6__ndk112__hash_tableINS_12basic_stringIcNS_11char_traitsIcEENS_9allocatorIcEEEENS_4hashIS6_EENS_8equal_toIS6_EENS4_IS6_EEE25__emplace_unique_key_argsIS6_JRKS6_EEENS_4pairINS_15__hash_iteratorIPNS_11__hash_nodeIS6_PvEEEEbEERKT_DpOT0_
00000000000c36b0 W _ZNSt6__ndk112__hash_tableINS_12basic_stringIcNS_11char_traitsIcEENS_9allocatorIcEEEENS_4hashIS6_EENS_8equal_toIS6_EENS4_IS6_EEE8__rehashILb1EEEvm
00000000000e8448 W _ZNSt6__ndk112__hash_tableINS_17__hash_value_typeINS_12basic_stringIcNS_11char_traitsIcEENS_9allocatorIcEEEEjEENS_22__unordered_map_hasherIS7_S8_NS_4hashIS7_EENS_8equal_toIS7_EELb1EEENS_21__unordered_map_equalIS7_S8_SD_SB_Lb1EEENS5_IS8_EEE11__do_rehashILb1EEEvm
00000000000e7b80 W _ZNSt6__ndk112__hash_tableINS_17__hash_value_typeINS_12basic_stringIcNS_11char_traitsIcEENS_9allocatorIcEEEEjEENS_22__unordered_map_hasherIS7_S8_NS_4hashIS7_EENS_8equal_toIS7_EELb1EEENS_21__unordered_map_equalIS7_S8_SD_SB_Lb1EEENS5_IS8_EEE21__construct_node_hashIRKNS_21piecewise_construct_tEJNS_5tupleIJRKS7_EEENSN_IJEEEEEENS_10unique_ptrINS_11__hash_nodeIS8_PvEENS_22__hash_node_destructorINS5_ISV_EEEEEEmOT_DpOT0_
00000000000e76c4 W _ZNSt6__ndk112__hash_tableINS_17__hash_value_typeINS_12basic_stringIcNS_11char_traitsIcEENS_9allocatorIcEEEEjEENS_22__unordered_map_hasherIS7_S8_NS_4hashIS7_EENS_8equal_toIS7_EELb1EEENS_21__unordered_map_equalIS7_S8_SD_SB_Lb1EEENS5_IS8_EEE25__emplace_unique_key_argsIS7_JRKNS_21piecewise_construct_tENS_5tupleIJRKS7_EEENSN_IJEEEEEENS_4pairINS_15__hash_iteratorIPNS_11__hash_nodeIS8_PvEEEEbEERKT_DpOT0_
00000000000e7130 W _ZNSt6__ndk112__hash_tableINS_17__hash_value_typeINS_12basic_stringIcNS_11char_traitsIcEENS_9allocatorIcEEEEjEENS_22__unordered_map_hasherIS7_S8_NS_4hashIS7_EENS_8equal_toIS7_EELb1EEENS_21__unordered_map_equalIS7_S8_SD_SB_Lb1EEENS5_IS8_EEE4findIS7_EENS_15__hash_iteratorIPNS_11__hash_nodeIS8_PvEEEERKT_
00000000000e8298 W _ZNSt6__ndk112__hash_tableINS_17__hash_value_typeINS_12basic_stringIcNS_11char_traitsIcEENS_9allocatorIcEEEEjEENS_22__unordered_map_hasherIS7_S8_NS_4hashIS7_EENS_8equal_toIS7_EELb1EEENS_21__unordered_map_equalIS7_S8_SD_SB_Lb1EEENS5_IS8_EEE8__rehashILb1EEEvm
0000000000112468 W _ZNSt6__ndk112__hash_tableINS_17__hash_value_typeINS_12basic_stringIcNS_11char_traitsIcEENS_9allocatorIcEEEEmEENS_22__unordered_map_hasherIS7_S8_NS_4hashIS7_EENS_8equal_toIS7_EELb1EEENS_21__unordered_map_equalIS7_S8_SD_SB_Lb1EEENS5_IS8_EEE11__do_rehashILb1EEEvm
0000000000111ba0 W _ZNSt6__ndk112__hash_tableINS_17__hash_value_typeINS_12basic_stringIcNS_11char_traitsIcEENS_9allocatorIcEEEEmEENS_22__unordered_map_hasherIS7_S8_NS_4hashIS7_EENS_8equal_toIS7_EELb1EEENS_21__unordered_map_equalIS7_S8_SD_SB_Lb1EEENS5_IS8_EEE21__construct_node_hashIRKNS_21piecewise_construct_tEJNS_5tupleIJRKS7_EEENSN_IJEEEEEENS_10unique_ptrINS_11__hash_nodeIS8_PvEENS_22__hash_node_destructorINS5_ISV_EEEEEEmOT_DpOT0_
00000000001116e4 W _ZNSt6__ndk112__hash_tableINS_17__hash_value_typeINS_12basic_stringIcNS_11char_traitsIcEENS_9allocatorIcEEEEmEENS_22__unordered_map_hasherIS7_S8_NS_4hashIS7_EENS_8equal_toIS7_EELb1EEENS_21__unordered_map_equalIS7_S8_SD_SB_Lb1EEENS5_IS8_EEE25__emplace_unique_key_argsIS7_JRKNS_21piecewise_construct_tENS_5tupleIJRKS7_EEENSN_IJEEEEEENS_4pairINS_15__hash_iteratorIPNS_11__hash_nodeIS8_PvEEEEbEERKT_DpOT0_
0000000000111150 W _ZNSt6__ndk112__hash_tableINS_17__hash_value_typeINS_12basic_stringIcNS_11char_traitsIcEENS_9allocatorIcEEEEmEENS_22__unordered_map_hasherIS7_S8_NS_4hashIS7_EENS_8equal_toIS7_EELb1EEENS_21__unordered_map_equalIS7_S8_SD_SB_Lb1EEENS5_IS8_EEE4findIS7_EENS_15__hash_iteratorIPNS_11__hash_nodeIS8_PvEEEERKT_
00000000001122b8 W _ZNSt6__ndk112__hash_tableINS_17__hash_value_typeINS_12basic_stringIcNS_11char_traitsIcEENS_9allocatorIcEEEEmEENS_22__unordered_map_hasherIS7_S8_NS_4hashIS7_EENS_8equal_toIS7_EELb1EEENS_21__unordered_map_equalIS7_S8_SD_SB_Lb1EEENS5_IS8_EEE8__rehashILb1EEEvm
00000000000c2110 W _ZNSt6__ndk112__hash_tableINS_17__hash_value_typeINS_17basic_string_viewIcNS_11char_traitsIcEEEENS_12basic_stringIcS4_NS_9allocatorIcEEEEEENS_22__unordered_map_hasherIS5_SA_NS_4hashIS5_EENS_8equal_toIS5_EELb1EEENS_21__unordered_map_equalIS5_SA_SF_SD_Lb1EEENS7_ISA_EEE11__do_rehashILb1EEEvm
00000000000c13bc W _ZNSt6__ndk112__hash_tableINS_17__hash_value_typeINS_17basic_string_viewIcNS_11char_traitsIcEEEENS_12basic_stringIcS4_NS_9allocatorIcEEEEEENS_22__unordered_map_hasherIS5_SA_NS_4hashIS5_EENS_8equal_toIS5_EELb1EEENS_21__unordered_map_equalIS5_SA_SF_SD_Lb1EEENS7_ISA_EEE21__construct_node_hashIRKNS_21piecewise_construct_tEJNS_5tupleIJOS5_EEENSP_IJEEEEEENS_10unique_ptrINS_11__hash_nodeISA_PvEENS_22__hash_node_destructorINS7_ISW_EEEEEEmOT_DpOT0_
00000000000c0c98 W _ZNSt6__ndk112__hash_tableINS_17__hash_value_typeINS_17basic_string_viewIcNS_11char_traitsIcEEEENS_12basic_stringIcS4_NS_9allocatorIcEEEEEENS_22__unordered_map_hasherIS5_SA_NS_4hashIS5_EENS_8equal_toIS5_EELb1EEENS_21__unordered_map_equalIS5_SA_SF_SD_Lb1EEENS7_ISA_EEE25__emplace_unique_key_argsIS5_JRKNS_21piecewise_construct_tENS_5tupleIJOS5_EEENSP_IJEEEEEENS_4pairINS_15__hash_iteratorIPNS_11__hash_nodeISA_PvEEEEbEERKT_DpOT0_
00000000000c1f60 W _ZNSt6__ndk112__hash_tableINS_17__hash_value_typeINS_17basic_string_viewIcNS_11char_traitsIcEEEENS_12basic_stringIcS4_NS_9allocatorIcEEEEEENS_22__unordered_map_hasherIS5_SA_NS_4hashIS5_EENS_8equal_toIS5_EELb1EEENS_21__unordered_map_equalIS5_SA_SF_SD_Lb1EEENS7_ISA_EEE8__rehashILb1EEEvm
000000000011b238 T _ZNSt6__ndk112__next_primeEm
00000000000be518 W _ZNSt6__ndk112__tuple_implINS_15__tuple_indicesIJLm0EEEEJONS_12basic_stringIcNS_11char_traitsIcEENS_9allocatorIcEEEEEEC2B8ne210000IJLm0EEJS9_ETpTnmJEJEJS8_EEENS1_IJXspT_EEEENS_13__tuple_typesIJDpT0_EEENS1_IJXspT1_EEEENSD_IJDpT2_EEEDpOT3_
00000000000c2a3c W _ZNSt6__ndk112__tuple_implINS_15__tuple_indicesIJLm0EEEEJONS_17basic_string_viewIcNS_11char_traitsIcEEEEEEC2B8ne210000IJLm0EEJS7_ETpTnmJEJEJS6_EEENS1_IJXspT_EEEENS_13__tuple_typesIJDpT0_EEENS1_IJXspT1_EEEENSB_IJDpT2_EEEDpOT3_
00000000000ce4b8 W _ZNSt6__ndk112__tuple_implINS_15__tuple_indicesIJLm0EEEEJRKNS_12basic_stringIcNS_11char_traitsIcEENS_9allocatorIcEEEEEEC2B8ne210000IJLm0EEJSA_ETpTnmJEJEJSA_EEENS1_IJXspT_EEEENS_13__tuple_typesIJDpT0_EEENS1_IJXspT1_EEEENSE_IJDpT2_EEEDpOT3_
00000000000be554 W _ZNSt6__ndk112__tuple_leafILm0EONS_12basic_stringIcNS_11char_traitsIcEENS_9allocatorIcEEEELb0EEC2B8ne210000IS6_TnNS_9enable_ifIXsr4_AndINS_17integral_constantIbXntu9__is_sameu14__remove_cvrefIT_ES8_EEEENS_16is_constructibleIS7_JSC_EEEEE5valueEiE4typeELi0EEEOSC_
00000000000c2a78 W _ZNSt6__ndk112__tuple_leafILm0EONS_17basic_string_viewIcNS_11char_traitsIcEEEELb0EEC2B8ne210000IS4_TnNS_9enable_ifIXsr4_AndINS_17integral_constantIbXntu9__is_sameu14__remove_cvrefIT_ES6_EEEENS_16is_constructibleIS5_JSA_EEEEE5valueEiE4typeELi0EEEOSA_
00000000000ce4f4 W _ZNSt6__ndk112__tuple_leafILm0ERKNS_12basic_stringIcNS_11char_traitsIcEENS_9allocatorIcEEEELb0EEC2B8ne210000IS8_TnNS_9enable_ifIXsr4_AndINS_17integral_constantIbXntu9__is_sameu14__remove_cvrefIT_ES9_EEEENS_16is_constructibleIS8_JSD_EEEEE5valueEiE4typeELi0EEEOSD_
000000000011b9ec T _ZNSt6__ndk112bad_weak_ptrD0Ev
000000000011b9e4 T _ZNSt6__ndk112bad_weak_ptrD1Ev
000000000011b9e4 T _ZNSt6__ndk112bad_weak_ptrD2Ev
00000000000b83c8 W _ZNSt6__ndk112basic_stringIcNS_11char_traitsIcEENS_9allocatorIcEEE10__align_itB8ne210000ILm8EEEmm
000000000011c300 W _ZNSt6__ndk112basic_stringIcNS_11char_traitsIcEENS_9allocatorIcEEE21__grow_by_and_replaceEmmmmmmPKc
000000000011decc W _ZNSt6__ndk112basic_stringIcNS_11char_traitsIcEENS_9allocatorIcEEE2atEm
0000000000073930 V _ZNSt6__ndk112basic_stringIcNS_11char_traitsIcEENS_9allocatorIcEEE4nposE
000000000011dafc W _ZNSt6__ndk112basic_stringIcNS_11char_traitsIcEENS_9allocatorIcEEE5eraseEmm
000000000011c9f0 W _ZNSt6__ndk112basic_stringIcNS_11char_traitsIcEENS_9allocatorIcEEE6__initEPKcm
000000000011c514 W _ZNSt6__ndk112basic_stringIcNS_11char_traitsIcEENS_9allocatorIcEEE6__initEPKcmm
000000000011d438 W _ZNSt6__ndk112basic_stringIcNS_11char_traitsIcEENS_9allocatorIcEEE6__initEmc
000000000011e2ec W _ZNSt6__ndk112basic_stringIcNS_11char_traitsIcEENS_9allocatorIcEEE6appendEPKc
000000000011d168 W _ZNSt6__ndk112basic_stringIcNS_11char_traitsIcEENS_9allocatorIcEEE6appendEPKcm
000000000011dc08 W _ZNSt6__ndk112basic_stringIcNS_11char_traitsIcEENS_9allocatorIcEEE6appendERKS5_mm
000000000011d7e8 W _ZNSt6__ndk112basic_stringIcNS_11char_traitsIcEENS_9allocatorIcEEE6appendEmc
000000000011df10 W _ZNSt6__ndk112basic_stringIcNS_11char_traitsIcEENS_9allocatorIcEEE6assignEPKc
000000000011ce58 W _ZNSt6__ndk112basic_stringIcNS_11char_traitsIcEENS_9allocatorIcEEE6assignEPKcm
000000000011d23c W _ZNSt6__ndk112basic_stringIcNS_11char_traitsIcEENS_9allocatorIcEEE6assignERKS5_mm
000000000011d9b0 W _ZNSt6__ndk112basic_stringIcNS_11char_traitsIcEENS_9allocatorIcEEE6assignEmc
000000000011e420 W _ZNSt6__ndk112basic_stringIcNS_11char_traitsIcEENS_9allocatorIcEEE6insertENS_11__wrap_iterIPKcEEc
000000000011d4cc W _ZNSt6__ndk112basic_stringIcNS_11char_traitsIcEENS_9allocatorIcEEE6insertEmPKc
000000000011cac8 W _ZNSt6__ndk112basic_stringIcNS_11char_traitsIcEENS_9allocatorIcEEE6insertEmPKcm
000000000011e5f8 W _ZNSt6__ndk112basic_stringIcNS_11char_traitsIcEENS_9allocatorIcEEE6insertEmRKS5_mm
000000000011c808 W _ZNSt6__ndk112basic_stringIcNS_11char_traitsIcEENS_9allocatorIcEEE6insertEmmc
000000000011e5ac W _ZNSt6__ndk112basic_stringIcNS_11char_traitsIcEENS_9allocatorIcEEE6resizeEmc
000000000011c658 W _ZNSt6__ndk112basic_stringIcNS_11char_traitsIcEENS_9allocatorIcEEE7replaceEmmPKc
000000000011c118 W _ZNSt6__ndk112basic_stringIcNS_11char_traitsIcEENS_9allocatorIcEEE7replaceEmmPKcm
000000000011e3d0 W _ZNSt6__ndk112basic_stringIcNS_11char_traitsIcEENS_9allocatorIcEEE7replaceEmmRKS5_mm
000000000011cc5c W _ZNSt6__ndk112basic_stringIcNS_11char_traitsIcEENS_9allocatorIcEEE7replaceEmmmc
000000000011cfa0 W _ZNSt6__ndk112basic_stringIcNS_11char_traitsIcEENS_9allocatorIcEEE7reserveEm
000000000011d5a0 W _ZNSt6__ndk112basic_stringIcNS_11char_traitsIcEENS_9allocatorIcEEE9__grow_byEmmmmmm
000000000011d6c0 W _ZNSt6__ndk112basic_stringIcNS_11char_traitsIcEENS_9allocatorIcEEE9push_backEc
000000000011c5ac W _ZNSt6__ndk112basic_stringIcNS_11char_traitsIcEENS_9allocatorIcEEEC1ERKS5_
000000000011c6ac W _ZNSt6__ndk112basic_stringIcNS_11char_traitsIcEENS_9allocatorIcEEEC1ERKS5_RKS4_
000000000011d2fc W _ZNSt6__ndk112basic_stringIcNS_11char_traitsIcEENS_9allocatorIcEEEC1ERKS5_mmRKS4_
000000000011c5ac W _ZNSt6__ndk112basic_stringIcNS_11char_traitsIcEENS_9allocatorIcEEEC2ERKS5_
000000000011c6ac W _ZNSt6__ndk112basic_stringIcNS_11char_traitsIcEENS_9allocatorIcEEEC2ERKS5_RKS4_
000000000011d2fc W _ZNSt6__ndk112basic_stringIcNS_11char_traitsIcEENS_9allocatorIcEEEC2ERKS5_mmRKS4_
00000000000bb2f4 W _ZNSt6__ndk112basic_stringIcNS_11char_traitsIcEENS_9allocatorIcEEEC2INS_17basic_string_viewIcS2_EETnNS_9enable_ifIXaasr33__can_be_converted_to_string_viewIcS2_T_EE5valuentsr17__is_same_uncvrefISA_S5_EE5valueEiE4typeELi0EEERKSA_
000000000011c758 W _ZNSt6__ndk112basic_stringIcNS_11char_traitsIcEENS_9allocatorIcEEED1Ev
000000000011c758 W _ZNSt6__ndk112basic_stringIcNS_11char_traitsIcEENS_9allocatorIcEEED2Ev
000000000011e0d0 W _ZNSt6__ndk112basic_stringIcNS_11char_traitsIcEENS_9allocatorIcEEEaSERKS5_
000000000011c9bc W _ZNSt6__ndk112basic_stringIcNS_11char_traitsIcEENS_9allocatorIcEEEaSEc
000000000011e834 W _ZNSt6__ndk112basic_stringIwNS_11char_traitsIwEENS_9allocatorIwEEE21__grow_by_and_replaceEmmmmmmPKw
0000000000120324 W _ZNSt6__ndk112basic_stringIwNS_11char_traitsIwEENS_9allocatorIwEEE2atEm
0000000000073938 V _ZNSt6__ndk112basic_stringIwNS_11char_traitsIwEENS_9allocatorIwEEE4nposE
000000000011ff28 W _ZNSt6__ndk112basic_stringIwNS_11char_traitsIwEENS_9allocatorIwEEE5eraseEmm
000000000011ef38 W _ZNSt6__ndk112basic_stringIwNS_11char_traitsIwEENS_9allocatorIwEEE6__initEPKwm
000000000011ea74 W _ZNSt6__ndk112basic_stringIwNS_11char_traitsIwEENS_9allocatorIwEEE6__initEPKwmm
000000000011f8f4 W _ZNSt6__ndk112basic_stringIwNS_11char_traitsIwEENS_9allocatorIwEEE6__initEmw
00000000001206f4 W _ZNSt6__ndk112basic_stringIwNS_11char_traitsIwEENS_9allocatorIwEEE6appendEPKw
000000000011f60c W _ZNSt6__ndk112basic_stringIwNS_11char_traitsIwEENS_9allocatorIwEEE6appendEPKwm
000000000012003c W _ZNSt6__ndk112basic_stringIwNS_11char_traitsIwEENS_9allocatorIwEEE6appendERKS5_mm
000000000011fc90 W _ZNSt6__ndk112basic_stringIwNS_11char_traitsIwEENS_9allocatorIwEEE6appendEmw
000000000012036c W _ZNSt6__ndk112basic_stringIwNS_11char_traitsIwEENS_9allocatorIwEEE6assignEPKw
000000000011f348 W _ZNSt6__ndk112basic_stringIwNS_11char_traitsIwEENS_9allocatorIwEEE6assignEPKwm
000000000011f6e4 W _ZNSt6__ndk112basic_stringIwNS_11char_traitsIwEENS_9allocatorIwEEE6assignERKS5_mm
000000000011fe10 W _ZNSt6__ndk112basic_stringIwNS_11char_traitsIwEENS_9allocatorIwEEE6assignEmw
000000000012082c W _ZNSt6__ndk112basic_stringIwNS_11char_traitsIwEENS_9allocatorIwEEE6insertENS_11__wrap_iterIPKwEEw
000000000011f9c8 W _ZNSt6__ndk112basic_stringIwNS_11char_traitsIwEENS_9allocatorIwEEE6insertEmPKw
000000000011f018 W _ZNSt6__ndk112basic_stringIwNS_11char_traitsIwEENS_9allocatorIwEEE6insertEmPKwm
0000000000120a78 W _ZNSt6__ndk112basic_stringIwNS_11char_traitsIwEENS_9allocatorIwEEE6insertEmRKS5_mm
000000000011edac W _ZNSt6__ndk112basic_stringIwNS_11char_traitsIwEENS_9allocatorIwEEE6insertEmmw
0000000000120924 W _ZNSt6__ndk112basic_stringIwNS_11char_traitsIwEENS_9allocatorIwEEE6resizeEmw
000000000011ebdc W _ZNSt6__ndk112basic_stringIwNS_11char_traitsIwEENS_9allocatorIwEEE7replaceEmmPKw
000000000011e648 W _ZNSt6__ndk112basic_stringIwNS_11char_traitsIwEENS_9allocatorIwEEE7replaceEmmPKwm
00000000001207dc W _ZNSt6__ndk112basic_stringIwNS_11char_traitsIwEENS_9allocatorIwEEE7replaceEmmRKS5_mm
000000000011f1c0 W _ZNSt6__ndk112basic_stringIwNS_11char_traitsIwEENS_9allocatorIwEEE7replaceEmmmw
000000000011f418 W _ZNSt6__ndk112basic_stringIwNS_11char_traitsIwEENS_9allocatorIwEEE7reserveEm
000000000011fab0 W _ZNSt6__ndk112basic_stringIwNS_11char_traitsIwEENS_9allocatorIwEEE9__grow_byEmmmmmm
000000000011fbe8 W _ZNSt6__ndk112basic_stringIwNS_11char_traitsIwEENS_9allocatorIwEEE9push_backEw
000000000011eb28 W _ZNSt6__ndk112basic_stringIwNS_11char_traitsIwEENS_9allocatorIwEEEC1ERKS5_
000000000011ec30 W _ZNSt6__ndk112basic_stringIwNS_11char_traitsIwEENS_9allocatorIwEEEC1ERKS5_RKS4_
000000000011f7ac W _ZNSt6__ndk112basic_stringIwNS_11char_traitsIwEENS_9allocatorIwEEEC1ERKS5_mmRKS4_
000000000011eb28 W _ZNSt6__ndk112basic_stringIwNS_11char_traitsIwEENS_9allocatorIwEEEC2ERKS5_
000000000011ec30 W _ZNSt6__ndk112basic_stringIwNS_11char_traitsIwEENS_9allocatorIwEEEC2ERKS5_RKS4_
000000000011f7ac W _ZNSt6__ndk112basic_stringIwNS_11char_traitsIwEENS_9allocatorIwEEEC2ERKS5_mmRKS4_
000000000011ecec W _ZNSt6__ndk112basic_stringIwNS_11char_traitsIwEENS_9allocatorIwEEED1Ev
000000000011ecec W _ZNSt6__ndk112basic_stringIwNS_11char_traitsIwEENS_9allocatorIwEEED2Ev
0000000000120550 W _ZNSt6__ndk112basic_stringIwNS_11char_traitsIwEENS_9allocatorIwEEEaSERKS5_
000000000011ef04 W _ZNSt6__ndk112basic_stringIwNS_11char_traitsIwEENS_9allocatorIwEEEaSEw
0000000000156078 T _ZNSt6__ndk112ctype_bynameIcEC1EPKcm
0000000000156170 T _ZNSt6__ndk112ctype_bynameIcEC1ERKNS_12basic_stringIcNS_11char_traitsIcEENS_9allocatorIcEEEEm
0000000000156078 T _ZNSt6__ndk112ctype_bynameIcEC2EPKcm
0000000000156170 T _ZNSt6__ndk112ctype_bynameIcEC2ERKNS_12basic_stringIcNS_11char_traitsIcEENS_9allocatorIcEEEEm
000000000015624c T _ZNSt6__ndk112ctype_bynameIcED0Ev
0000000000160890 T _ZNSt6__ndk112ctype_bynameIcED1Ev
0000000000160890 T _ZNSt6__ndk112ctype_bynameIcED2Ev
000000000015650c T _ZNSt6__ndk112ctype_bynameIwEC1EPKcm
00000000001565f4 T _ZNSt6__ndk112ctype_bynameIwEC1ERKNS_12basic_stringIcNS_11char_traitsIcEENS_9allocatorIcEEEEm
000000000015650c T _ZNSt6__ndk112ctype_bynameIwEC2EPKcm
00000000001565f4 T _ZNSt6__ndk112ctype_bynameIwEC2ERKNS_12basic_stringIcNS_11char_traitsIcEENS_9allocatorIcEEEEm
00000000001566c0 T _ZNSt6__ndk112ctype_bynameIwED0Ev
0000000000160d0c T _ZNSt6__ndk112ctype_bynameIwED1Ev
0000000000160d0c T _ZNSt6__ndk112ctype_bynameIwED2Ev
0000000000125898 T _ZNSt6__ndk112system_errorC1ENS_10error_codeE
0000000000125720 T _ZNSt6__ndk112system_errorC1ENS_10error_codeEPKc
0000000000125524 T _ZNSt6__ndk112system_errorC1ENS_10error_codeERKNS_12basic_stringIcNS_11char_traitsIcEENS_9allocatorIcEEEE
0000000000125c10 T _ZNSt6__ndk112system_errorC1EiRKNS_14error_categoryE
0000000000125a84 T _ZNSt6__ndk112system_errorC1EiRKNS_14error_categoryEPKc
0000000000125958 T _ZNSt6__ndk112system_errorC1EiRKNS_14error_categoryERKNS_12basic_stringIcNS_11char_traitsIcEENS_9allocatorIcEEEE
0000000000125898 T _ZNSt6__ndk112system_errorC2ENS_10error_codeE
0000000000125720 T _ZNSt6__ndk112system_errorC2ENS_10error_codeEPKc
0000000000125524 T _ZNSt6__ndk112system_errorC2ENS_10error_codeERKNS_12basic_stringIcNS_11char_traitsIcEENS_9allocatorIcEEEE
0000000000125c10 T _ZNSt6__ndk112system_errorC2EiRKNS_14error_categoryE
0000000000125a84 T _ZNSt6__ndk112system_errorC2EiRKNS_14error_categoryEPKc
0000000000125958 T _ZNSt6__ndk112system_errorC2EiRKNS_14error_categoryERKNS_12basic_stringIcNS_11char_traitsIcEENS_9allocatorIcEEEE
0000000000125cdc T _ZNSt6__ndk112system_errorD0Ev
0000000000125cd4 T _ZNSt6__ndk112system_errorD1Ev
0000000000125cd4 T _ZNSt6__ndk112system_errorD2Ev
00000000000d99fc W _ZNSt6__ndk113__stable_sortINS_17_ClassicAlgPolicyERN7ElfFileI10Elf32_Ehdr10Elf32_Phdr10Elf32_Shdrjj9Elf32_Dyn9Elf32_Symt12Elf32_Verdef13Elf32_Verdaux13Elf32_Verneed13Elf32_Vernaux9Elf32_Rel10Elf32_RelaLj32EE8CompPhdrENS_11__wrap_iterIPS4_EEEEvT1_SK_T0_NS_15iterator_traitsISK_E15difference_typeEPNSN_10value_typeEl
00000000000ddf9c W _ZNSt6__ndk113__stable_sortINS_17_ClassicAlgPolicyERN7ElfFileI10Elf32_Ehdr10Elf32_Phdr10Elf32_Shdrjj9Elf32_Dyn9Elf32_Symt12Elf32_Verdef13Elf32_Verdaux13Elf32_Verneed13Elf32_Vernaux9Elf32_Rel10Elf32_RelaLj32EE8CompShdrENS_11__wrap_iterIPS5_EEEEvT1_SK_T0_NS_15iterator_traitsISK_E15difference_typeEPNSN_10value_typeEl
00000000001056fc W _ZNSt6__ndk113__stable_sortINS_17_ClassicAlgPolicyERN7ElfFileI10Elf64_Ehdr10Elf64_Phdr10Elf64_Shdrmm9Elf64_Dyn9Elf64_Symt12Elf64_Verdef13Elf64_Verdaux13Elf64_Verneed13Elf64_Vernaux9Elf64_Rel10Elf64_RelaLj64EE8CompPhdrENS_11__wrap_iterIPS4_EEEEvT1_SK_T0_NS_15iterator_traitsISK_E15difference_typeEPNSN_10value_typeEl
0000000000109da0 W _ZNSt6__ndk113__stable_sortINS_17_ClassicAlgPolicyERN7ElfFileI10Elf64_Ehdr10Elf64_Phdr10Elf64_Shdrmm9Elf64_Dyn9Elf64_Symt12Elf64_Verdef13Elf64_Verdaux13Elf64_Verneed13Elf64_Vernaux9Elf64_Rel10Elf64_RelaLj64EE8CompShdrENS_11__wrap_iterIPS5_EEEEvT1_SK_T0_NS_15iterator_traitsISK_E15difference_typeEPNSN_10value_typeEl
0000000000131c64 W _ZNSt6__ndk113basic_filebufIcNS_11char_traitsIcEEE11__read_modeEv
0000000000131f4c W _ZNSt6__ndk113basic_filebufIcNS_11char_traitsIcEEE12__write_modeEv
0000000000130f8c W _ZNSt6__ndk113basic_filebufIcNS_11char_traitsIcEEE4openEPKcj
00000000001315e0 W _ZNSt6__ndk113basic_filebufIcNS_11char_traitsIcEEE4swapERS3_
0000000000132250 W _ZNSt6__ndk113basic_filebufIcNS_11char_traitsIcEEE4syncEv
0000000000131524 W _ZNSt6__ndk113basic_filebufIcNS_11char_traitsIcEEE5closeEv
0000000000132418 W _ZNSt6__ndk113basic_filebufIcNS_11char_traitsIcEEE5imbueERKNS_6localeE
0000000000131fbc W _ZNSt6__ndk113basic_filebufIcNS_11char_traitsIcEEE6setbufEPcl
000000000013210c W _ZNSt6__ndk113basic_filebufIcNS_11char_traitsIcEEE7seekoffExNS_8ios_base7seekdirEj
00000000001321d8 W _ZNSt6__ndk113basic_filebufIcNS_11char_traitsIcEEE7seekposENS_4fposI9mbstate_tEEj
0000000000131d58 W _ZNSt6__ndk113basic_filebufIcNS_11char_traitsIcEEE8overflowEi
0000000000131cf4 W _ZNSt6__ndk113basic_filebufIcNS_11char_traitsIcEEE9pbackfailEi
0000000000131a10 W _ZNSt6__ndk113basic_filebufIcNS_11char_traitsIcEEE9underflowEv
00000000001312b0 W _ZNSt6__ndk113basic_filebufIcNS_11char_traitsIcEEEC1EOS3_
000000000013117c W _ZNSt6__ndk113basic_filebufIcNS_11char_traitsIcEEEC1Ev
00000000001312b0 W _ZNSt6__ndk113basic_filebufIcNS_11char_traitsIcEEEC2EOS3_
000000000013117c W _ZNSt6__ndk113basic_filebufIcNS_11char_traitsIcEEEC2Ev
00000000001315b0 W _ZNSt6__ndk113basic_filebufIcNS_11char_traitsIcEEED0Ev
0000000000131448 W _ZNSt6__ndk113basic_filebufIcNS_11char_traitsIcEEED1Ev
0000000000131448 W _ZNSt6__ndk113basic_filebufIcNS_11char_traitsIcEEED2Ev
0000000000127edc W _ZNSt6__ndk113basic_istreamIcNS_11char_traitsIcEEE3getEPcl
0000000000127f80 W _ZNSt6__ndk113basic_istreamIcNS_11char_traitsIcEEE3getEPclc
000000000012816c W _ZNSt6__ndk113basic_istreamIcNS_11char_traitsIcEEE3getERNS_15basic_streambufIcS2_EE
0000000000128200 W _ZNSt6__ndk113basic_istreamIcNS_11char_traitsIcEEE3getERNS_15basic_streambufIcS2_EEc
0000000000127ea0 W _ZNSt6__ndk113basic_istreamIcNS_11char_traitsIcEEE3getERc
0000000000127d84 W _ZNSt6__ndk113basic_istreamIcNS_11char_traitsIcEEE3getEv
0000000000128820 W _ZNSt6__ndk113basic_istreamIcNS_11char_traitsIcEEE4peekEv
0000000000128924 W _ZNSt6__ndk113basic_istreamIcNS_11char_traitsIcEEE4readEPcl
000000000012679c W _ZNSt6__ndk113basic_istreamIcNS_11char_traitsIcEEE4swapERS3_
0000000000128dd8 W _ZNSt6__ndk113basic_istreamIcNS_11char_traitsIcEEE4syncEv
0000000000128fcc W _ZNSt6__ndk113basic_istreamIcNS_11char_traitsIcEEE5seekgENS_4fposI9mbstate_tEE
00000000001290e0 W _ZNSt6__ndk113basic_istreamIcNS_11char_traitsIcEEE5seekgExNS_8ios_base7seekdirE
0000000000128ecc W _ZNSt6__ndk113basic_istreamIcNS_11char_traitsIcEEE5tellgEv
0000000000128cac W _ZNSt6__ndk113basic_istreamIcNS_11char_traitsIcEEE5ungetEv
0000000000128660 W _ZNSt6__ndk113basic_istreamIcNS_11char_traitsIcEEE6ignoreEli
0000000000126808 W _ZNSt6__ndk113basic_istreamIcNS_11char_traitsIcEEE6sentryC1ERS3_b
0000000000126808 W _ZNSt6__ndk113basic_istreamIcNS_11char_traitsIcEEE6sentryC2ERS3_b
0000000000128374 W _ZNSt6__ndk113basic_istreamIcNS_11char_traitsIcEEE7getlineEPcl
0000000000128418 W _ZNSt6__ndk113basic_istreamIcNS_11char_traitsIcEEE7getlineEPclc
0000000000128b74 W _ZNSt6__ndk113basic_istreamIcNS_11char_traitsIcEEE7putbackEc
0000000000128a20 W _ZNSt6__ndk113basic_istreamIcNS_11char_traitsIcEEE8readsomeEPcl
0000000000126694 W _ZNSt6__ndk113basic_istreamIcNS_11char_traitsIcEEEC1EPNS_15basic_streambufIcS2_EE
0000000000126638 W _ZNSt6__ndk113basic_istreamIcNS_11char_traitsIcEEEC2EPNS_15basic_streambufIcS2_EE
000000000012672c W _ZNSt6__ndk113basic_istreamIcNS_11char_traitsIcEEED0Ev
0000000000126708 W _ZNSt6__ndk113basic_istreamIcNS_11char_traitsIcEEED1Ev
0000000000126700 W _ZNSt6__ndk113basic_istreamIcNS_11char_traitsIcEEED2Ev
0000000000126b04 W _ZNSt6__ndk113basic_istreamIcNS_11char_traitsIcEEErsEPFRNS_8ios_baseES5_E
0000000000126acc W _ZNSt6__ndk113basic_istreamIcNS_11char_traitsIcEEErsEPFRNS_9basic_iosIcS2_EES6_E
0000000000126ac0 W _ZNSt6__ndk113basic_istreamIcNS_11char_traitsIcEEErsEPFRS3_S4_E
0000000000126b3c W _ZNSt6__ndk113basic_istreamIcNS_11char_traitsIcEEErsEPNS_15basic_streambufIcS2_EE
0000000000127c48 W _ZNSt6__ndk113basic_istreamIcNS_11char_traitsIcEEErsERPv
0000000000126cf4 W _ZNSt6__ndk113basic_istreamIcNS_11char_traitsIcEEErsERb
00000000001279d0 W _ZNSt6__ndk113basic_istreamIcNS_11char_traitsIcEEErsERd
0000000000127b0c W _ZNSt6__ndk113basic_istreamIcNS_11char_traitsIcEEErsERe
0000000000127894 W _ZNSt6__ndk113basic_istreamIcNS_11char_traitsIcEEErsERf
00000000001270e8 W _ZNSt6__ndk113basic_istreamIcNS_11char_traitsIcEEErsERi
0000000000127268 W _ZNSt6__ndk113basic_istreamIcNS_11char_traitsIcEEErsERj
00000000001273a4 W _ZNSt6__ndk113basic_istreamIcNS_11char_traitsIcEEErsERl
00000000001274e0 W _ZNSt6__ndk113basic_istreamIcNS_11char_traitsIcEEErsERm
0000000000126e30 W _ZNSt6__ndk113basic_istreamIcNS_11char_traitsIcEEErsERs
0000000000126fac W _ZNSt6__ndk113basic_istreamIcNS_11char_traitsIcEEErsERt
000000000012761c W _ZNSt6__ndk113basic_istreamIcNS_11char_traitsIcEEErsERx
0000000000127758 W _ZNSt6__ndk113basic_istreamIcNS_11char_traitsIcEEErsERy
000000000012d178 W _ZNSt6__ndk113basic_istreamIwNS_11char_traitsIwEEE3getEPwl
000000000012d21c W _ZNSt6__ndk113basic_istreamIwNS_11char_traitsIwEEE3getEPwlw
000000000012d404 W _ZNSt6__ndk113basic_istreamIwNS_11char_traitsIwEEE3getERNS_15basic_streambufIwS2_EE
000000000012d498 W _ZNSt6__ndk113basic_istreamIwNS_11char_traitsIwEEE3getERNS_15basic_streambufIwS2_EEw
000000000012d13c W _ZNSt6__ndk113basic_istreamIwNS_11char_traitsIwEEE3getERw
000000000012d020 W _ZNSt6__ndk113basic_istreamIwNS_11char_traitsIwEEE3getEv
000000000012da9c W _ZNSt6__ndk113basic_istreamIwNS_11char_traitsIwEEE4peekEv
000000000012dba0 W _ZNSt6__ndk113basic_istreamIwNS_11char_traitsIwEEE4readEPwl
000000000012ba24 W _ZNSt6__ndk113basic_istreamIwNS_11char_traitsIwEEE4swapERS3_
000000000012e070 W _ZNSt6__ndk113basic_istreamIwNS_11char_traitsIwEEE4syncEv
000000000012e264 W _ZNSt6__ndk113basic_istreamIwNS_11char_traitsIwEEE5seekgENS_4fposI9mbstate_tEE
000000000012e378 W _ZNSt6__ndk113basic_istreamIwNS_11char_traitsIwEEE5seekgExNS_8ios_base7seekdirE
000000000012e164 W _ZNSt6__ndk113basic_istreamIwNS_11char_traitsIwEEE5tellgEv
000000000012df38 W _ZNSt6__ndk113basic_istreamIwNS_11char_traitsIwEEE5ungetEv
000000000012d8e4 W _ZNSt6__ndk113basic_istreamIwNS_11char_traitsIwEEE6ignoreElj
000000000012ba90 W _ZNSt6__ndk113basic_istreamIwNS_11char_traitsIwEEE6sentryC1ERS3_b
000000000012ba90 W _ZNSt6__ndk113basic_istreamIwNS_11char_traitsIwEEE6sentryC2ERS3_b
000000000012d600 W _ZNSt6__ndk113basic_istreamIwNS_11char_traitsIwEEE7getlineEPwl
000000000012d6a4 W _ZNSt6__ndk113basic_istreamIwNS_11char_traitsIwEEE7getlineEPwlw
000000000012ddf4 W _ZNSt6__ndk113basic_istreamIwNS_11char_traitsIwEEE7putbackEw
000000000012dc9c W _ZNSt6__ndk113basic_istreamIwNS_11char_traitsIwEEE8readsomeEPwl
000000000012b91c W _ZNSt6__ndk113basic_istreamIwNS_11char_traitsIwEEEC1EPNS_15basic_streambufIwS2_EE
000000000012b8c0 W _ZNSt6__ndk113basic_istreamIwNS_11char_traitsIwEEEC2EPNS_15basic_streambufIwS2_EE
000000000012b9b4 W _ZNSt6__ndk113basic_istreamIwNS_11char_traitsIwEEED0Ev
000000000012b990 W _ZNSt6__ndk113basic_istreamIwNS_11char_traitsIwEEED1Ev
000000000012b988 W _ZNSt6__ndk113basic_istreamIwNS_11char_traitsIwEEED2Ev
000000000012bda4 W _ZNSt6__ndk113basic_istreamIwNS_11char_traitsIwEEErsEPFRNS_8ios_baseES5_E
000000000012bd6c W _ZNSt6__ndk113basic_istreamIwNS_11char_traitsIwEEErsEPFRNS_9basic_iosIwS2_EES6_E
000000000012bd60 W _ZNSt6__ndk113basic_istreamIwNS_11char_traitsIwEEErsEPFRS3_S4_E
000000000012bddc W _ZNSt6__ndk113basic_istreamIwNS_11char_traitsIwEEErsEPNS_15basic_streambufIwS2_EE
000000000012cee4 W _ZNSt6__ndk113basic_istreamIwNS_11char_traitsIwEEErsERPv
000000000012bf90 W _ZNSt6__ndk113basic_istreamIwNS_11char_traitsIwEEErsERb
000000000012cc6c W _ZNSt6__ndk113basic_istreamIwNS_11char_traitsIwEEErsERd
000000000012cda8 W _ZNSt6__ndk113basic_istreamIwNS_11char_traitsIwEEErsERe
000000000012cb30 W _ZNSt6__ndk113basic_istreamIwNS_11char_traitsIwEEErsERf
000000000012c384 W _ZNSt6__ndk113basic_istreamIwNS_11char_traitsIwEEErsERi
000000000012c504 W _ZNSt6__ndk113basic_istreamIwNS_11char_traitsIwEEErsERj
000000000012c640 W _ZNSt6__ndk113basic_istreamIwNS_11char_traitsIwEEErsERl
000000000012c77c W _ZNSt6__ndk113basic_istreamIwNS_11char_traitsIwEEErsERm
000000000012c0cc W _ZNSt6__ndk113basic_istreamIwNS_11char_traitsIwEEErsERs
000000000012c248 W _ZNSt6__ndk113basic_istreamIwNS_11char_traitsIwEEErsERt
000000000012c8b8 W _ZNSt6__ndk113basic_istreamIwNS_11char_traitsIwEEErsERx
000000000012c9f4 W _ZNSt6__ndk113basic_istreamIwNS_11char_traitsIwEEErsERy
000000000012aac8 W _ZNSt6__ndk113basic_ostreamIcNS_11char_traitsIcEEE3putEc
0000000000129354 W _ZNSt6__ndk113basic_ostreamIcNS_11char_traitsIcEEE4swapERS3_
00000000001269d8 W _ZNSt6__ndk113basic_ostreamIcNS_11char_traitsIcEEE5flushEv
000000000012ad10 W _ZNSt6__ndk113basic_ostreamIcNS_11char_traitsIcEEE5seekpENS_4fposI9mbstate_tEE
000000000012add4 W _ZNSt6__ndk113basic_ostreamIcNS_11char_traitsIcEEE5seekpExNS_8ios_base7seekdirE
000000000012acb0 W _ZNSt6__ndk113basic_ostreamIcNS_11char_traitsIcEEE5tellpEv
000000000012abc4 W _ZNSt6__ndk113basic_ostreamIcNS_11char_traitsIcEEE5writeEPKcl
00000000001293b8 W _ZNSt6__ndk113basic_ostreamIcNS_11char_traitsIcEEE6sentryC1ERS3_
00000000001293b8 W _ZNSt6__ndk113basic_ostreamIcNS_11char_traitsIcEEE6sentryC2ERS3_
000000000012941c W _ZNSt6__ndk113basic_ostreamIcNS_11char_traitsIcEEE6sentryD1Ev
000000000012941c W _ZNSt6__ndk113basic_ostreamIcNS_11char_traitsIcEEE6sentryD2Ev
000000000012924c W _ZNSt6__ndk113basic_ostreamIcNS_11char_traitsIcEEEC1EPNS_15basic_streambufIcS2_EE
00000000001291f4 W _ZNSt6__ndk113basic_ostreamIcNS_11char_traitsIcEEEC2EPNS_15basic_streambufIcS2_EE
00000000001292e4 W _ZNSt6__ndk113basic_ostreamIcNS_11char_traitsIcEEED0Ev
00000000001292c0 W _ZNSt6__ndk113basic_ostreamIcNS_11char_traitsIcEEED1Ev
00000000001292b8 W _ZNSt6__ndk113basic_ostreamIcNS_11char_traitsIcEEED2Ev
0000000000129508 W _ZNSt6__ndk113basic_ostreamIcNS_11char_traitsIcEEElsEPFRNS_8ios_baseES5_E
00000000001294d0 W _ZNSt6__ndk113basic_ostreamIcNS_11char_traitsIcEEElsEPFRNS_9basic_iosIcS2_EES6_E
00000000001294c4 W _ZNSt6__ndk113basic_ostreamIcNS_11char_traitsIcEEElsEPFRS3_S4_E
000000000012a760 W _ZNSt6__ndk113basic_ostreamIcNS_11char_traitsIcEEElsEPKv
000000000012a8fc W _ZNSt6__ndk113basic_ostreamIcNS_11char_traitsIcEEElsEPNS_15basic_streambufIcS2_EE
0000000000129540 W _ZNSt6__ndk113basic_ostreamIcNS_11char_traitsIcEEElsEb
000000000012a420 W _ZNSt6__ndk113basic_ostreamIcNS_11char_traitsIcEEElsEd
000000000012a5c4 W _ZNSt6__ndk113basic_ostreamIcNS_11char_traitsIcEEElsEe
000000000012a414 W _ZNSt6__ndk113basic_ostreamIcNS_11char_traitsIcEEElsEf
0000000000129a40 W _ZNSt6__ndk113basic_ostreamIcNS_11char_traitsIcEEElsEi
0000000000129c08 W _ZNSt6__ndk113basic_ostreamIcNS_11char_traitsIcEEElsEj
0000000000129da4 W _ZNSt6__ndk113basic_ostreamIcNS_11char_traitsIcEEElsEl
0000000000129f40 W _ZNSt6__ndk113basic_ostreamIcNS_11char_traitsIcEEElsEm
00000000001296dc W _ZNSt6__ndk113basic_ostreamIcNS_11char_traitsIcEEElsEs
00000000001298a4 W _ZNSt6__ndk113basic_ostreamIcNS_11char_traitsIcEEElsEt
000000000012a0dc W _ZNSt6__ndk113basic_ostreamIcNS_11char_traitsIcEEElsEx
000000000012a278 W _ZNSt6__ndk113basic_ostreamIcNS_11char_traitsIcEEElsEy
000000000012fd64 W _ZNSt6__ndk113basic_ostreamIwNS_11char_traitsIwEEE3putEw
000000000012e5ec W _ZNSt6__ndk113basic_ostreamIwNS_11char_traitsIwEEE4swapERS3_
000000000012bc78 W _ZNSt6__ndk113basic_ostreamIwNS_11char_traitsIwEEE5flushEv
000000000012ffb4 W _ZNSt6__ndk113basic_ostreamIwNS_11char_traitsIwEEE5seekpENS_4fposI9mbstate_tEE
0000000000130078 W _ZNSt6__ndk113basic_ostreamIwNS_11char_traitsIwEEE5seekpExNS_8ios_base7seekdirE
000000000012ff54 W _ZNSt6__ndk113basic_ostreamIwNS_11char_traitsIwEEE5tellpEv
000000000012fe68 W _ZNSt6__ndk113basic_ostreamIwNS_11char_traitsIwEEE5writeEPKwl
000000000012e650 W _ZNSt6__ndk113basic_ostreamIwNS_11char_traitsIwEEE6sentryC1ERS3_
000000000012e650 W _ZNSt6__ndk113basic_ostreamIwNS_11char_traitsIwEEE6sentryC2ERS3_
000000000012e6b4 W _ZNSt6__ndk113basic_ostreamIwNS_11char_traitsIwEEE6sentryD1Ev
000000000012e6b4 W _ZNSt6__ndk113basic_ostreamIwNS_11char_traitsIwEEE6sentryD2Ev
000000000012e4e4 W _ZNSt6__ndk113basic_ostreamIwNS_11char_traitsIwEEEC1EPNS_15basic_streambufIwS2_EE
000000000012e48c W _ZNSt6__ndk113basic_ostreamIwNS_11char_traitsIwEEEC2EPNS_15basic_streambufIwS2_EE
000000000012e57c W _ZNSt6__ndk113basic_ostreamIwNS_11char_traitsIwEEED0Ev
000000000012e558 W _ZNSt6__ndk113basic_ostreamIwNS_11char_traitsIwEEED1Ev
000000000012e550 W _ZNSt6__ndk113basic_ostreamIwNS_11char_traitsIwEEED2Ev
000000000012e7a0 W _ZNSt6__ndk113basic_ostreamIwNS_11char_traitsIwEEElsEPFRNS_8ios_baseES5_E
000000000012e768 W _ZNSt6__ndk113basic_ostreamIwNS_11char_traitsIwEEElsEPFRNS_9basic_iosIwS2_EES6_E
000000000012e75c W _ZNSt6__ndk113basic_ostreamIwNS_11char_traitsIwEEElsEPFRS3_S4_E
000000000012f9f8 W _ZNSt6__ndk113basic_ostreamIwNS_11char_traitsIwEEElsEPKv
000000000012fb94 W _ZNSt6__ndk113basic_ostreamIwNS_11char_traitsIwEEElsEPNS_15basic_streambufIwS2_EE
000000000012e7d8 W _ZNSt6__ndk113basic_ostreamIwNS_11char_traitsIwEEElsEb
000000000012f6b8 W _ZNSt6__ndk113basic_ostreamIwNS_11char_traitsIwEEElsEd
000000000012f85c W _ZNSt6__ndk113basic_ostreamIwNS_11char_traitsIwEEElsEe
000000000012f6ac W _ZNSt6__ndk113basic_ostreamIwNS_11char_traitsIwEEElsEf
000000000012ecd8 W _ZNSt6__ndk113basic_ostreamIwNS_11char_traitsIwEEElsEi
000000000012eea0 W _ZNSt6__ndk113basic_ostreamIwNS_11char_traitsIwEEElsEj
000000000012f03c W _ZNSt6__ndk113basic_ostreamIwNS_11char_traitsIwEEElsEl
000000000012f1d8 W _ZNSt6__ndk113basic_ostreamIwNS_11char_traitsIwEEElsEm
000000000012e974 W _ZNSt6__ndk113basic_ostreamIwNS_11char_traitsIwEEElsEs
000000000012eb3c W _ZNSt6__ndk113basic_ostreamIwNS_11char_traitsIwEEElsEt
000000000012f374 W _ZNSt6__ndk113basic_ostreamIwNS_11char_traitsIwEEElsEx
000000000012f510 W _ZNSt6__ndk113basic_ostreamIwNS_11char_traitsIwEEElsEy
000000000015b7d8 T _ZNSt6__ndk114__num_get_base10__get_baseERNS_8ios_baseE
0000000000074640 R _ZNSt6__ndk114__num_get_base5__srcE
000000000015b81c T _ZNSt6__ndk114__num_put_base12__format_intEPcPKcbj
000000000015b8c0 T _ZNSt6__ndk114__num_put_base14__format_floatEPcPKcj
000000000013e268 T _ZNSt6__ndk114__num_put_base18__identify_paddingEPcS1_RKNS_8ios_baseE
000000000011ba44 T _ZNSt6__ndk114__shared_count12__add_sharedEv
000000000011ba68 T _ZNSt6__ndk114__shared_count16__release_sharedEv
000000000011ba34 T _ZNSt6__ndk114__shared_countD0Ev
000000000011ba2c T _ZNSt6__ndk114__shared_countD1Ev
000000000011ba2c T _ZNSt6__ndk114__shared_countD2Ev
00000000000d6368 W _ZNSt6__ndk114__split_bufferI10Elf32_PhdrRNS_9allocatorIS1_EEE28__construct_at_end_with_sizeINS_11__wrap_iterIPS1_EEEEvT_m
00000000001031c8 W _ZNSt6__ndk114__split_bufferI10Elf64_PhdrRNS_9allocatorIS1_EEE28__construct_at_end_with_sizeINS_11__wrap_iterIPS1_EEEEvT_m
00000000000ec7ec W _ZNSt6__ndk114__split_bufferIcRNS_9allocatorIcEEE28__construct_at_end_with_sizeINS_11__wrap_iterIPKcEEEEvT_m
0000000000130f38 W _ZNSt6__ndk114basic_ifstreamIcNS_11char_traitsIcEEE4openEPKcj
0000000000131060 W _ZNSt6__ndk114basic_ifstreamIcNS_11char_traitsIcEEE4openERKNS_12basic_stringIcS2_NS_9allocatorIcEEEEj
00000000000c4124 W _ZNSt6__ndk114basic_ifstreamIcNS_11char_traitsIcEEED2Ev
000000000012b09c W _ZNSt6__ndk114basic_iostreamIcNS_11char_traitsIcEEE4swapERS3_
000000000012af38 W _ZNSt6__ndk114basic_iostreamIcNS_11char_traitsIcEEEC1EPNS_15basic_streambufIcS2_EE
000000000012ae98 W _ZNSt6__ndk114basic_iostreamIcNS_11char_traitsIcEEEC2EPNS_15basic_streambufIcS2_EE
000000000012aff8 W _ZNSt6__ndk114basic_iostreamIcNS_11char_traitsIcEEED0Ev
000000000012afc8 W _ZNSt6__ndk114basic_iostreamIcNS_11char_traitsIcEEED1Ev
000000000012afc0 W _ZNSt6__ndk114basic_iostreamIcNS_11char_traitsIcEEED2Ev
00000000001310c4 W _ZNSt6__ndk114basic_ofstreamIcNS_11char_traitsIcEEE4openEPKcj
0000000000131118 W _ZNSt6__ndk114basic_ofstreamIcNS_11char_traitsIcEEE4openERKNS_12basic_stringIcS2_NS_9allocatorIcEEEEj
000000000014c194 W _ZNSt6__ndk114codecvt_bynameIDiDu9mbstate_tED0Ev
000000000014c18c W _ZNSt6__ndk114codecvt_bynameIDiDu9mbstate_tED1Ev
000000000014c18c W _ZNSt6__ndk114codecvt_bynameIDiDu9mbstate_tED2Ev
000000000014c124 W _ZNSt6__ndk114codecvt_bynameIDic9mbstate_tED0Ev
000000000014c11c W _ZNSt6__ndk114codecvt_bynameIDic9mbstate_tED1Ev
000000000014c11c W _ZNSt6__ndk114codecvt_bynameIDic9mbstate_tED2Ev
000000000014c15c W _ZNSt6__ndk114codecvt_bynameIDsDu9mbstate_tED0Ev
000000000014c154 W _ZNSt6__ndk114codecvt_bynameIDsDu9mbstate_tED1Ev
000000000014c154 W _ZNSt6__ndk114codecvt_bynameIDsDu9mbstate_tED2Ev
000000000014c0ec W _ZNSt6__ndk114codecvt_bynameIDsc9mbstate_tED0Ev
000000000014c0e4 W _ZNSt6__ndk114codecvt_bynameIDsc9mbstate_tED1Ev
000000000014c0e4 W _ZNSt6__ndk114codecvt_bynameIDsc9mbstate_tED2Ev
000000000014c07c W _ZNSt6__ndk114codecvt_bynameIcc9mbstate_tED0Ev
000000000014c074 W _ZNSt6__ndk114codecvt_bynameIcc9mbstate_tED1Ev
000000000014c074 W _ZNSt6__ndk114codecvt_bynameIcc9mbstate_tED2Ev
000000000014c0b4 W _ZNSt6__ndk114codecvt_bynameIwc9mbstate_tED0Ev
000000000014c0ac W _ZNSt6__ndk114codecvt_bynameIwc9mbstate_tED1Ev
000000000014c0ac W _ZNSt6__ndk114codecvt_bynameIwc9mbstate_tED2Ev
00000000001548f0 T _ZNSt6__ndk114collate_bynameIcEC1EPKcm
0000000000154a3c T _ZNSt6__ndk114collate_bynameIcEC1ERKNS_12basic_stringIcNS_11char_traitsIcEENS_9allocatorIcEEEEm
00000000001548f0 T _ZNSt6__ndk114collate_bynameIcEC2EPKcm
0000000000154a3c T _ZNSt6__ndk114collate_bynameIcEC2ERKNS_12basic_stringIcNS_11char_traitsIcEENS_9allocatorIcEEEEm
0000000000154b4c T _ZNSt6__ndk114collate_bynameIcED0Ev
0000000000154b08 T _ZNSt6__ndk114collate_bynameIcED1Ev
0000000000154b08 T _ZNSt6__ndk114collate_bynameIcED2Ev
0000000000154f44 T _ZNSt6__ndk114collate_bynameIwEC1EPKcm
000000000015502c T _ZNSt6__ndk114collate_bynameIwEC1ERKNS_12basic_stringIcNS_11char_traitsIcEENS_9allocatorIcEEEEm
0000000000154f44 T _ZNSt6__ndk114collate_bynameIwEC2EPKcm
000000000015502c T _ZNSt6__ndk114collate_bynameIwEC2ERKNS_12basic_stringIcNS_11char_traitsIcEENS_9allocatorIcEEEEm
000000000015513c T _ZNSt6__ndk114collate_bynameIwED0Ev
00000000001550f8 T _ZNSt6__ndk114collate_bynameIwED1Ev
00000000001550f8 T _ZNSt6__ndk114collate_bynameIwED2Ev
0000000000125dfc T _ZNSt6__ndk114error_categoryC2Ev
0000000000125e1c T _ZNSt6__ndk114error_categoryD0Ev
0000000000125e14 T _ZNSt6__ndk114error_categoryD1Ev
0000000000125e14 T _ZNSt6__ndk114error_categoryD2Ev
00000000000da7dc W _ZNSt6__ndk115__inplace_mergeINS_17_ClassicAlgPolicyERN7ElfFileI10Elf32_Ehdr10Elf32_Phdr10Elf32_Shdrjj9Elf32_Dyn9Elf32_Symt12Elf32_Verdef13Elf32_Verdaux13Elf32_Verneed13Elf32_Vernaux9Elf32_Rel10Elf32_RelaLj32EE8CompPhdrENS_11__wrap_iterIPS4_EEEEvT1_SK_SK_OT0_NS_15iterator_traitsISK_E15difference_typeESP_PNSO_10value_typeEl
00000000000ded34 W _ZNSt6__ndk115__inplace_mergeINS_17_ClassicAlgPolicyERN7ElfFileI10Elf32_Ehdr10Elf32_Phdr10Elf32_Shdrjj9Elf32_Dyn9Elf32_Symt12Elf32_Verdef13Elf32_Verdaux13Elf32_Verneed13Elf32_Vernaux9Elf32_Rel10Elf32_RelaLj32EE8CompShdrENS_11__wrap_iterIPS5_EEEEvT1_SK_SK_OT0_NS_15iterator_traitsISK_E15difference_typeESP_PNSO_10value_typeEl
0000000000106548 W _ZNSt6__ndk115__inplace_mergeINS_17_ClassicAlgPolicyERN7ElfFileI10Elf64_Ehdr10Elf64_Phdr10Elf64_Shdrmm9Elf64_Dyn9Elf64_Symt12Elf64_Verdef13Elf64_Verdaux13Elf64_Verneed13Elf64_Vernaux9Elf64_Rel10Elf64_RelaLj64EE8CompPhdrENS_11__wrap_iterIPS4_EEEEvT1_SK_SK_OT0_NS_15iterator_traitsISK_E15difference_typeESP_PNSO_10value_typeEl
000000000010ab54 W _ZNSt6__ndk115__inplace_mergeINS_17_ClassicAlgPolicyERN7ElfFileI10Elf64_Ehdr10Elf64_Phdr10Elf64_Shdrmm9Elf64_Dyn9Elf64_Symt12Elf64_Verdef13Elf64_Verdaux13Elf64_Verneed13Elf64_Vernaux9Elf64_Rel10Elf64_RelaLj64EE8CompShdrENS_11__wrap_iterIPS5_EEEEvT1_SK_SK_OT0_NS_15iterator_traitsISK_E15difference_typeESP_PNSO_10value_typeEl
0000000000126008 W _ZNSt6__ndk115basic_streambufIcNS_11char_traitsIcEEE10pubseekoffExNS_8ios_base7seekdirEj
0000000000126018 W _ZNSt6__ndk115basic_streambufIcNS_11char_traitsIcEEE10pubseekposENS_4fposI9mbstate_tEEj
00000000001263b0 W _ZNSt6__ndk115basic_streambufIcNS_11char_traitsIcEEE4setgEPcS4_S4_
00000000001263d4 W _ZNSt6__ndk115basic_streambufIcNS_11char_traitsIcEEE4setpEPcS4_
00000000001262e0 W _ZNSt6__ndk115basic_streambufIcNS_11char_traitsIcEEE4swapERS3_
0000000000126414 W _ZNSt6__ndk115basic_streambufIcNS_11char_traitsIcEEE4syncEv
000000000012639c W _ZNSt6__ndk115basic_streambufIcNS_11char_traitsIcEEE5gbumpEi
00000000001263e4 W _ZNSt6__ndk115basic_streambufIcNS_11char_traitsIcEEE5imbueERKNS_6localeE
00000000001263c0 W _ZNSt6__ndk115basic_streambufIcNS_11char_traitsIcEEE5pbumpEi
000000000012610c W _ZNSt6__ndk115basic_streambufIcNS_11char_traitsIcEEE5sgetcEv
0000000000126130 W _ZNSt6__ndk115basic_streambufIcNS_11char_traitsIcEEE5sgetnEPcl
00000000001261a8 W _ZNSt6__ndk115basic_streambufIcNS_11char_traitsIcEEE5sputcEc
00000000001261e4 W _ZNSt6__ndk115basic_streambufIcNS_11char_traitsIcEEE5sputnEPKcl
0000000000126508 W _ZNSt6__ndk115basic_streambufIcNS_11char_traitsIcEEE5uflowEv
00000000001260e0 W _ZNSt6__ndk115basic_streambufIcNS_11char_traitsIcEEE6sbumpcEv
00000000001263ec W _ZNSt6__ndk115basic_streambufIcNS_11char_traitsIcEEE6setbufEPcl
000000000012605c W _ZNSt6__ndk115basic_streambufIcNS_11char_traitsIcEEE6snextcEv
000000000012642c W _ZNSt6__ndk115basic_streambufIcNS_11char_traitsIcEEE6xsgetnEPcl
000000000012655c W _ZNSt6__ndk115basic_streambufIcNS_11char_traitsIcEEE6xsputnEPKcl
0000000000126028 W _ZNSt6__ndk115basic_streambufIcNS_11char_traitsIcEEE7pubsyncEv
00000000001263f4 W _ZNSt6__ndk115basic_streambufIcNS_11char_traitsIcEEE7seekoffExNS_8ios_base7seekdirEj
0000000000126404 W _ZNSt6__ndk115basic_streambufIcNS_11char_traitsIcEEE7seekposENS_4fposI9mbstate_tEEj
0000000000126178 W _ZNSt6__ndk115basic_streambufIcNS_11char_traitsIcEEE7sungetcEv
0000000000126038 W _ZNSt6__ndk115basic_streambufIcNS_11char_traitsIcEEE8in_availEv
000000000012662c W _ZNSt6__ndk115basic_streambufIcNS_11char_traitsIcEEE8overflowEi
0000000000125f94 W _ZNSt6__ndk115basic_streambufIcNS_11char_traitsIcEEE8pubimbueERKNS_6localeE
0000000000126550 W _ZNSt6__ndk115basic_streambufIcNS_11char_traitsIcEEE9pbackfailEi
0000000000125ff8 W _ZNSt6__ndk115basic_streambufIcNS_11char_traitsIcEEE9pubsetbufEPcl
0000000000126420 W _ZNSt6__ndk115basic_streambufIcNS_11char_traitsIcEEE9showmanycEv
0000000000126140 W _ZNSt6__ndk115basic_streambufIcNS_11char_traitsIcEEE9sputbackcEc
00000000001264fc W _ZNSt6__ndk115basic_streambufIcNS_11char_traitsIcEEE9underflowEv
0000000000126238 W _ZNSt6__ndk115basic_streambufIcNS_11char_traitsIcEEEC1ERKS3_
00000000001261f4 W _ZNSt6__ndk115basic_streambufIcNS_11char_traitsIcEEEC1Ev
0000000000126238 W _ZNSt6__ndk115basic_streambufIcNS_11char_traitsIcEEEC2ERKS3_
00000000001261f4 W _ZNSt6__ndk115basic_streambufIcNS_11char_traitsIcEEEC2Ev
0000000000125f64 W _ZNSt6__ndk115basic_streambufIcNS_11char_traitsIcEEED0Ev
0000000000125f4c W _ZNSt6__ndk115basic_streambufIcNS_11char_traitsIcEEED1Ev
0000000000125f4c W _ZNSt6__ndk115basic_streambufIcNS_11char_traitsIcEEED2Ev
0000000000126290 W _ZNSt6__ndk115basic_streambufIcNS_11char_traitsIcEEEaSERKS3_
000000000012b278 W _ZNSt6__ndk115basic_streambufIwNS_11char_traitsIwEEE10pubseekoffExNS_8ios_base7seekdirEj
000000000012b288 W _ZNSt6__ndk115basic_streambufIwNS_11char_traitsIwEEE10pubseekposENS_4fposI9mbstate_tEEj
000000000012b62c W _ZNSt6__ndk115basic_streambufIwNS_11char_traitsIwEEE4setgEPwS4_S4_
000000000012b650 W _ZNSt6__ndk115basic_streambufIwNS_11char_traitsIwEEE4setpEPwS4_
000000000012b55c W _ZNSt6__ndk115basic_streambufIwNS_11char_traitsIwEEE4swapERS3_
000000000012b690 W _ZNSt6__ndk115basic_streambufIwNS_11char_traitsIwEEE4syncEv
000000000012b618 W _ZNSt6__ndk115basic_streambufIwNS_11char_traitsIwEEE5gbumpEi
000000000012b660 W _ZNSt6__ndk115basic_streambufIwNS_11char_traitsIwEEE5imbueERKNS_6localeE
000000000012b63c W _ZNSt6__ndk115basic_streambufIwNS_11char_traitsIwEEE5pbumpEi
000000000012b38c W _ZNSt6__ndk115basic_streambufIwNS_11char_traitsIwEEE5sgetcEv
000000000012b3b0 W _ZNSt6__ndk115basic_streambufIwNS_11char_traitsIwEEE5sgetnEPwl
000000000012b42c W _ZNSt6__ndk115basic_streambufIwNS_11char_traitsIwEEE5sputcEw
000000000012b460 W _ZNSt6__ndk115basic_streambufIwNS_11char_traitsIwEEE5sputnEPKwl
000000000012b78c W _ZNSt6__ndk115basic_streambufIwNS_11char_traitsIwEEE5uflowEv
000000000012b35c W _ZNSt6__ndk115basic_streambufIwNS_11char_traitsIwEEE6sbumpcEv
000000000012b668 W _ZNSt6__ndk115basic_streambufIwNS_11char_traitsIwEEE6setbufEPwl
000000000012b2d0 W _ZNSt6__ndk115basic_streambufIwNS_11char_traitsIwEEE6snextcEv
000000000012b6a8 W _ZNSt6__ndk115basic_streambufIwNS_11char_traitsIwEEE6xsgetnEPwl
000000000012b7dc W _ZNSt6__ndk115basic_streambufIwNS_11char_traitsIwEEE6xsputnEPKwl
000000000012b298 W _ZNSt6__ndk115basic_streambufIwNS_11char_traitsIwEEE7pubsyncEv
000000000012b670 W _ZNSt6__ndk115basic_streambufIwNS_11char_traitsIwEEE7seekoffExNS_8ios_base7seekdirEj
000000000012b680 W _ZNSt6__ndk115basic_streambufIwNS_11char_traitsIwEEE7seekposENS_4fposI9mbstate_tEEj
000000000012b3f8 W _ZNSt6__ndk115basic_streambufIwNS_11char_traitsIwEEE7sungetcEv
000000000012b2a8 W _ZNSt6__ndk115basic_streambufIwNS_11char_traitsIwEEE8in_availEv
000000000012b8b4 W _ZNSt6__ndk115basic_streambufIwNS_11char_traitsIwEEE8overflowEj
000000000012b204 W _ZNSt6__ndk115basic_streambufIwNS_11char_traitsIwEEE8pubimbueERKNS_6localeE
000000000012b7d0 W _ZNSt6__ndk115basic_streambufIwNS_11char_traitsIwEEE9pbackfailEj
000000000012b268 W _ZNSt6__ndk115basic_streambufIwNS_11char_traitsIwEEE9pubsetbufEPwl
000000000012b69c W _ZNSt6__ndk115basic_streambufIwNS_11char_traitsIwEEE9showmanycEv
000000000012b3c0 W _ZNSt6__ndk115basic_streambufIwNS_11char_traitsIwEEE9sputbackcEw
000000000012b780 W _ZNSt6__ndk115basic_streambufIwNS_11char_traitsIwEEE9underflowEv
000000000012b4b4 W _ZNSt6__ndk115basic_streambufIwNS_11char_traitsIwEEEC1ERKS3_
000000000012b470 W _ZNSt6__ndk115basic_streambufIwNS_11char_traitsIwEEEC1Ev
000000000012b4b4 W _ZNSt6__ndk115basic_streambufIwNS_11char_traitsIwEEEC2ERKS3_
000000000012b470 W _ZNSt6__ndk115basic_streambufIwNS_11char_traitsIwEEEC2Ev
000000000012b1d4 W _ZNSt6__ndk115basic_streambufIwNS_11char_traitsIwEEED0Ev
000000000012b1bc W _ZNSt6__ndk115basic_streambufIwNS_11char_traitsIwEEED1Ev
000000000012b1bc W _ZNSt6__ndk115basic_streambufIwNS_11char_traitsIwEEED2Ev
000000000012b50c W _ZNSt6__ndk115basic_streambufIwNS_11char_traitsIwEEEaSERKS3_
000000000013098c W _ZNSt6__ndk115basic_stringbufIcNS_11char_traitsIcEENS_9allocatorIcEEE3strERKNS_12basic_stringIcS2_S4_EE
00000000001305d0 W _ZNSt6__ndk115basic_stringbufIcNS_11char_traitsIcEENS_9allocatorIcEEE4swapERS5_
0000000000130c98 W _ZNSt6__ndk115basic_stringbufIcNS_11char_traitsIcEENS_9allocatorIcEEE7seekoffExNS_8ios_base7seekdirEj
0000000000130ae0 W _ZNSt6__ndk115basic_stringbufIcNS_11char_traitsIcEENS_9allocatorIcEEE8overflowEi
0000000000130a6c W _ZNSt6__ndk115basic_stringbufIcNS_11char_traitsIcEENS_9allocatorIcEEE9pbackfailEi
0000000000130a18 W _ZNSt6__ndk115basic_stringbufIcNS_11char_traitsIcEENS_9allocatorIcEEE9underflowEv
000000000013013c W _ZNSt6__ndk115basic_stringbufIcNS_11char_traitsIcEENS_9allocatorIcEEEC1EOS5_
000000000013013c W _ZNSt6__ndk115basic_stringbufIcNS_11char_traitsIcEENS_9allocatorIcEEEC2EOS5_
00000000001303cc W _ZNSt6__ndk115basic_stringbufIcNS_11char_traitsIcEENS_9allocatorIcEEEaSEOS5_
000000000015b108 T _ZNSt6__ndk115numpunct_bynameIcE6__initEPKc
000000000015b0a8 T _ZNSt6__ndk115numpunct_bynameIcEC1EPKcm
000000000015b3ec T _ZNSt6__ndk115numpunct_bynameIcEC1ERKNS_12basic_stringIcNS_11char_traitsIcEENS_9allocatorIcEEEEm
000000000015b0a8 T _ZNSt6__ndk115numpunct_bynameIcEC2EPKcm
000000000015b3ec T _ZNSt6__ndk115numpunct_bynameIcEC2ERKNS_12basic_stringIcNS_11char_traitsIcEENS_9allocatorIcEEEEm
000000000015b45c T _ZNSt6__ndk115numpunct_bynameIcED0Ev
000000000015adac T _ZNSt6__ndk115numpunct_bynameIcED1Ev
000000000015adac T _ZNSt6__ndk115numpunct_bynameIcED2Ev
000000000015b518 T _ZNSt6__ndk115numpunct_bynameIwE6__initEPKc
000000000015b4b4 T _ZNSt6__ndk115numpunct_bynameIwEC1EPKcm
000000000015b734 T _ZNSt6__ndk115numpunct_bynameIwEC1ERKNS_12basic_stringIcNS_11char_traitsIcEENS_9allocatorIcEEEEm
000000000015b4b4 T _ZNSt6__ndk115numpunct_bynameIwEC2EPKcm
000000000015b734 T _ZNSt6__ndk115numpunct_bynameIwEC2ERKNS_12basic_stringIcNS_11char_traitsIcEENS_9allocatorIcEEEEm
000000000015b7a8 T _ZNSt6__ndk115numpunct_bynameIwED0Ev
000000000015ae34 T _ZNSt6__ndk115numpunct_bynameIwED1Ev
000000000015ae34 T _ZNSt6__ndk115numpunct_bynameIwED2Ev
000000000012549c T _ZNSt6__ndk115system_categoryEv
0000000000147e70 T _ZNSt6__ndk116__check_groupingERKNS_12basic_stringIcNS_11char_traitsIcEENS_9allocatorIcEEEEPjS8_Rj
000000000015ac90 T _ZNSt6__ndk116__narrow_to_utf8ILm16EED0Ev
0000000000164568 T _ZNSt6__ndk116__narrow_to_utf8ILm16EED1Ev
0000000000164568 T _ZNSt6__ndk116__narrow_to_utf8ILm16EED2Ev
000000000015acc0 T _ZNSt6__ndk116__narrow_to_utf8ILm32EED0Ev
0000000000164568 T _ZNSt6__ndk116__narrow_to_utf8ILm32EED1Ev
0000000000164568 T _ZNSt6__ndk116__narrow_to_utf8ILm32EED2Ev
00000000000d5140 W _ZNSt6__ndk116allocator_traitsINS_9allocatorI10Elf32_PhdrEEE7destroyB8ne210000IS2_TnNS_9enable_ifIXsr13__has_destroyIS3_PT_EE5valueEiE4typeELi0EEEvRS3_S8_
00000000000d4db8 W _ZNSt6__ndk116allocator_traitsINS_9allocatorI10Elf32_PhdrEEE8max_sizeB8ne210000IS3_TnNS_9enable_ifIXsr14__has_max_sizeIKT_EE5valueEiE4typeELi0EEEmRKS3_
00000000000d4c74 W _ZNSt6__ndk116allocator_traitsINS_9allocatorI10Elf32_PhdrEEE9constructB8ne210000IS2_JETnNS_9enable_ifIXsr15__has_constructIS3_PT_DpT0_EE5valueEiE4typeELi0EEEvRS3_S8_DpOS9_
00000000000d5bb4 W _ZNSt6__ndk116allocator_traitsINS_9allocatorI10Elf32_PhdrEEE9constructB8ne210000IS2_JRKS2_ETnNS_9enable_ifIXsr15__has_constructIS3_PT_DpT0_EE5valueEiE4typeELi0EEEvRS3_SA_DpOSB_
00000000000d771c W _ZNSt6__ndk116allocator_traitsINS_9allocatorI10Elf32_PhdrEEE9constructB8ne210000IS2_JRS2_ETnNS_9enable_ifIXsr15__has_constructIS3_PT_DpT0_EE5valueEiE4typeELi0EEEvRS3_S9_DpOSA_
00000000000d6f98 W _ZNSt6__ndk116allocator_traitsINS_9allocatorI10Elf32_PhdrEEE9constructB8ne210000IS2_JS2_ETnNS_9enable_ifIXsr15__has_constructIS3_PT_DpT0_EE5valueEiE4typeELi0EEEvRS3_S8_DpOS9_
00000000000f6cc8 W _ZNSt6__ndk116allocator_traitsINS_9allocatorI10Elf32_ShdrEEE7destroyB8ne210000IS2_TnNS_9enable_ifIXsr13__has_destroyIS3_PT_EE5valueEiE4typeELi0EEEvRS3_S8_
00000000000f699c W _ZNSt6__ndk116allocator_traitsINS_9allocatorI10Elf32_ShdrEEE8max_sizeB8ne210000IS3_TnNS_9enable_ifIXsr14__has_max_sizeIKT_EE5valueEiE4typeELi0EEEmRKS3_
00000000000f653c W _ZNSt6__ndk116allocator_traitsINS_9allocatorI10Elf32_ShdrEEE9constructB8ne210000IS2_JRKS2_ETnNS_9enable_ifIXsr15__has_constructIS3_PT_DpT0_EE5valueEiE4typeELi0EEEvRS3_SA_DpOSB_
0000000000101f64 W _ZNSt6__ndk116allocator_traitsINS_9allocatorI10Elf64_PhdrEEE7destroyB8ne210000IS2_TnNS_9enable_ifIXsr13__has_destroyIS3_PT_EE5valueEiE4typeELi0EEEvRS3_S8_
0000000000101bc4 W _ZNSt6__ndk116allocator_traitsINS_9allocatorI10Elf64_PhdrEEE8max_sizeB8ne210000IS3_TnNS_9enable_ifIXsr14__has_max_sizeIKT_EE5valueEiE4typeELi0EEEmRKS3_
0000000000101a74 W _ZNSt6__ndk116allocator_traitsINS_9allocatorI10Elf64_PhdrEEE9constructB8ne210000IS2_JETnNS_9enable_ifIXsr15__has_constructIS3_PT_DpT0_EE5valueEiE4typeELi0EEEvRS3_S8_DpOS9_
0000000000102990 W _ZNSt6__ndk116allocator_traitsINS_9allocatorI10Elf64_PhdrEEE9constructB8ne210000IS2_JRKS2_ETnNS_9enable_ifIXsr15__has_constructIS3_PT_DpT0_EE5valueEiE4typeELi0EEEvRS3_SA_DpOSB_
00000000001045d0 W _ZNSt6__ndk116allocator_traitsINS_9allocatorI10Elf64_PhdrEEE9constructB8ne210000IS2_JRS2_ETnNS_9enable_ifIXsr15__has_constructIS3_PT_DpT0_EE5valueEiE4typeELi0EEEvRS3_S9_DpOSA_
0000000000103e18 W _ZNSt6__ndk116allocator_traitsINS_9allocatorI10Elf64_PhdrEEE9constructB8ne210000IS2_JS2_ETnNS_9enable_ifIXsr15__has_constructIS3_PT_DpT0_EE5valueEiE4typeELi0EEEvRS3_S8_DpOS9_
000000000011a734 W _ZNSt6__ndk116allocator_traitsINS_9allocatorI10Elf64_ShdrEEE7destroyB8ne210000IS2_TnNS_9enable_ifIXsr13__has_destroyIS3_PT_EE5valueEiE4typeELi0EEEvRS3_S8_
000000000011a410 W _ZNSt6__ndk116allocator_traitsINS_9allocatorI10Elf64_ShdrEEE8max_sizeB8ne210000IS3_TnNS_9enable_ifIXsr14__has_max_sizeIKT_EE5valueEiE4typeELi0EEEmRKS3_
0000000000119fbc W _ZNSt6__ndk116allocator_traitsINS_9allocatorI10Elf64_ShdrEEE9constructB8ne210000IS2_JRKS2_ETnNS_9enable_ifIXsr15__has_constructIS3_PT_DpT0_EE5valueEiE4typeELi0EEEvRS3_SA_DpOSB_
00000000000f4414 W _ZNSt6__ndk116allocator_traitsINS_9allocatorI9Elf32_SymEEE7destroyB8ne210000IS2_TnNS_9enable_ifIXsr13__has_destroyIS3_PT_EE5valueEiE4typeELi0EEEvRS3_S8_
00000000000f3a7c W _ZNSt6__ndk116allocator_traitsINS_9allocatorI9Elf32_SymEEE8max_sizeB8ne210000IS3_TnNS_9enable_ifIXsr14__has_max_sizeIKT_EE5valueEiE4typeELi0EEEmRKS3_
0000000000119368 W _ZNSt6__ndk116allocator_traitsINS_9allocatorI9Elf64_SymEEE7destroyB8ne210000IS2_TnNS_9enable_ifIXsr13__has_destroyIS3_PT_EE5valueEiE4typeELi0EEEvRS3_S8_
00000000001189a0 W _ZNSt6__ndk116allocator_traitsINS_9allocatorI9Elf64_SymEEE8max_sizeB8ne210000IS3_TnNS_9enable_ifIXsr14__has_max_sizeIKT_EE5valueEiE4typeELi0EEEmRKS3_
00000000000c3eec W _ZNSt6__ndk116allocator_traitsINS_9allocatorINS_11__hash_nodeINS_12basic_stringIcNS_11char_traitsIcEENS1_IcEEEEPvEEEEE7destroyB8ne210000IS7_vTnNS_9enable_ifIXntsr13__has_destroyISA_PT_EE5valueEiE4typeELi0EEEvRSA_SF_
00000000000c3530 W _ZNSt6__ndk116allocator_traitsINS_9allocatorINS_11__hash_nodeINS_12basic_stringIcNS_11char_traitsIcEENS1_IcEEEEPvEEEEE8max_sizeB8ne210000ISA_TnNS_9enable_ifIXsr14__has_max_sizeIKT_EE5valueEiE4typeELi0EEEmRKSA_
00000000000c3480 W _ZNSt6__ndk116allocator_traitsINS_9allocatorINS_11__hash_nodeINS_12basic_stringIcNS_11char_traitsIcEENS1_IcEEEEPvEEEEE9constructB8ne210000IS7_JRKS7_ETnNS_9enable_ifIXsr15__has_constructISA_PT_DpT0_EE5valueEiE4typeELi0EEEvRSA_SH_DpOSI_
00000000000e8ad4 W _ZNSt6__ndk116allocator_traitsINS_9allocatorINS_11__hash_nodeINS_17__hash_value_typeINS_12basic_stringIcNS_11char_traitsIcEENS1_IcEEEEjEEPvEEEEE7destroyB8ne210000INS_4pairIKS8_jEEvTnNS_9enable_ifIXntsr13__has_destroyISC_PT_EE5valueEiE4typeELi0EEEvRSC_SK_
00000000000e800c W _ZNSt6__ndk116allocator_traitsINS_9allocatorINS_11__hash_nodeINS_17__hash_value_typeINS_12basic_stringIcNS_11char_traitsIcEENS1_IcEEEEjEEPvEEEEE8max_sizeB8ne210000ISC_TnNS_9enable_ifIXsr14__has_max_sizeIKT_EE5valueEiE4typeELi0EEEmRKSC_
00000000000e7f3c W _ZNSt6__ndk116allocator_traitsINS_9allocatorINS_11__hash_nodeINS_17__hash_value_typeINS_12basic_stringIcNS_11char_traitsIcEENS1_IcEEEEjEEPvEEEEE9constructB8ne210000INS_4pairIKS8_jEEJRKNS_21piecewise_construct_tENS_5tupleIJRSG_EEENSL_IJEEEETnNS_9enable_ifIXsr15__has_constructISC_PT_DpT0_EE5valueEiE4typeELi0EEEvRSC_SR_DpOSS_
0000000000112af4 W _ZNSt6__ndk116allocator_traitsINS_9allocatorINS_11__hash_nodeINS_17__hash_value_typeINS_12basic_stringIcNS_11char_traitsIcEENS1_IcEEEEmEEPvEEEEE7destroyB8ne210000INS_4pairIKS8_mEEvTnNS_9enable_ifIXntsr13__has_destroyISC_PT_EE5valueEiE4typeELi0EEEvRSC_SK_
000000000011202c W _ZNSt6__ndk116allocator_traitsINS_9allocatorINS_11__hash_nodeINS_17__hash_value_typeINS_12basic_stringIcNS_11char_traitsIcEENS1_IcEEEEmEEPvEEEEE8max_sizeB8ne210000ISC_TnNS_9enable_ifIXsr14__has_max_sizeIKT_EE5valueEiE4typeELi0EEEmRKSC_
0000000000111f5c W _ZNSt6__ndk116allocator_traitsINS_9allocatorINS_11__hash_nodeINS_17__hash_value_typeINS_12basic_stringIcNS_11char_traitsIcEENS1_IcEEEEmEEPvEEEEE9constructB8ne210000INS_4pairIKS8_mEEJRKNS_21piecewise_construct_tENS_5tupleIJRSG_EEENSL_IJEEEETnNS_9enable_ifIXsr15__has_constructISC_PT_DpT0_EE5valueEiE4typeELi0EEEvRSC_SR_DpOSS_
00000000000c2820 W _ZNSt6__ndk116allocator_traitsINS_9allocatorINS_11__hash_nodeINS_17__hash_value_typeINS_17basic_string_viewIcNS_11char_traitsIcEEEENS_12basic_stringIcS6_NS1_IcEEEEEEPvEEEEE7destroyB8ne210000INS_4pairIKS7_SA_EEvTnNS_9enable_ifIXntsr13__has_destroyISE_PT_EE5valueEiE4typeELi0EEEvRSE_SM_
00000000000c1c8c W _ZNSt6__ndk116allocator_traitsINS_9allocatorINS_11__hash_nodeINS_17__hash_value_typeINS_17basic_string_viewIcNS_11char_traitsIcEEEENS_12basic_stringIcS6_NS1_IcEEEEEEPvEEEEE8max_sizeB8ne210000ISE_TnNS_9enable_ifIXsr14__has_max_sizeIKT_EE5valueEiE4typeELi0EEEmRKSE_
00000000000c1bbc W _ZNSt6__ndk116allocator_traitsINS_9allocatorINS_11__hash_nodeINS_17__hash_value_typeINS_17basic_string_viewIcNS_11char_traitsIcEEEENS_12basic_stringIcS6_NS1_IcEEEEEEPvEEEEE9constructB8ne210000INS_4pairIKS7_SA_EEJRKNS_21piecewise_construct_tENS_5tupleIJOS7_EEENSN_IJEEEETnNS_9enable_ifIXsr15__has_constructISE_PT_DpT0_EE5valueEiE4typeELi0EEEvRSE_ST_DpOSU_
00000000000be324 W _ZNSt6__ndk116allocator_traitsINS_9allocatorINS_11__tree_nodeINS_12__value_typeINS_12basic_stringIcNS_11char_traitsIcEENS1_IcEEEES8_EEPvEEEEE7destroyB8ne210000INS_4pairIKS8_S8_EEvTnNS_9enable_ifIXntsr13__has_destroyISC_PT_EE5valueEiE4typeELi0EEEvRSC_SK_
00000000000bdfa0 W _ZNSt6__ndk116allocator_traitsINS_9allocatorINS_11__tree_nodeINS_12__value_typeINS_12basic_stringIcNS_11char_traitsIcEENS1_IcEEEES8_EEPvEEEEE8max_sizeB8ne210000ISC_TnNS_9enable_ifIXsr14__has_max_sizeIKT_EE5valueEiE4typeELi0EEEmRKSC_
00000000000bdeb8 W _ZNSt6__ndk116allocator_traitsINS_9allocatorINS_11__tree_nodeINS_12__value_typeINS_12basic_stringIcNS_11char_traitsIcEENS1_IcEEEES8_EEPvEEEEE9constructB8ne210000INS_4pairIKS8_S8_EEJRKNS_21piecewise_construct_tENS_5tupleIJOS8_EEENSL_IJEEEETnNS_9enable_ifIXsr15__has_constructISC_PT_DpT0_EE5valueEiE4typeELi0EEEvRSC_SR_DpOSS_
00000000000ce2bc W _ZNSt6__ndk116allocator_traitsINS_9allocatorINS_11__tree_nodeINS_12__value_typeINS_12basic_stringIcNS_11char_traitsIcEENS1_IcEEEES8_EEPvEEEEE9constructB8ne210000INS_4pairIKS8_S8_EEJRKNS_21piecewise_construct_tENS_5tupleIJRSG_EEENSL_IJEEEETnNS_9enable_ifIXsr15__has_constructISC_PT_DpT0_EE5valueEiE4typeELi0EEEvRSC_SR_DpOSS_
00000000000bd488 W _ZNSt6__ndk116allocator_traitsINS_9allocatorINS_11__tree_nodeINS_12basic_stringIcNS_11char_traitsIcEENS1_IcEEEEPvEEEEE7destroyB8ne210000IS7_vTnNS_9enable_ifIXntsr13__has_destroyISA_PT_EE5valueEiE4typeELi0EEEvRSA_SF_
00000000000bcd54 W _ZNSt6__ndk116allocator_traitsINS_9allocatorINS_11__tree_nodeINS_12basic_stringIcNS_11char_traitsIcEENS1_IcEEEEPvEEEEE8max_sizeB8ne210000ISA_TnNS_9enable_ifIXsr14__has_max_sizeIKT_EE5valueEiE4typeELi0EEEmRKSA_
00000000000bcc8c W _ZNSt6__ndk116allocator_traitsINS_9allocatorINS_11__tree_nodeINS_12basic_stringIcNS_11char_traitsIcEENS1_IcEEEEPvEEEEE9constructB8ne210000IS7_JS7_ETnNS_9enable_ifIXsr15__has_constructISA_PT_DpT0_EE5valueEiE4typeELi0EEEvRSA_SF_DpOSG_
00000000000d8730 W _ZNSt6__ndk116allocator_traitsINS_9allocatorINS_11__tree_nodeIjPvEEEEE7destroyB8ne210000IjvTnNS_9enable_ifIXntsr13__has_destroyIS5_PT_EE5valueEiE4typeELi0EEEvRS5_SA_
00000000000d8528 W _ZNSt6__ndk116allocator_traitsINS_9allocatorINS_11__tree_nodeIjPvEEEEE8max_sizeB8ne210000IS5_TnNS_9enable_ifIXsr14__has_max_sizeIKT_EE5valueEiE4typeELi0EEEmRKS5_
00000000000d8460 W _ZNSt6__ndk116allocator_traitsINS_9allocatorINS_11__tree_nodeIjPvEEEEE9constructB8ne210000IjJRKjETnNS_9enable_ifIXsr15__has_constructIS5_PT_DpT0_EE5valueEiE4typeELi0EEEvRS5_SC_DpOSD_
00000000000e9f1c W _ZNSt6__ndk116allocator_traitsINS_9allocatorINS_11__tree_nodeImPvEEEEE7destroyB8ne210000ImvTnNS_9enable_ifIXntsr13__has_destroyIS5_PT_EE5valueEiE4typeELi0EEEvRS5_SA_
00000000000e9d0c W _ZNSt6__ndk116allocator_traitsINS_9allocatorINS_11__tree_nodeImPvEEEEE8max_sizeB8ne210000IS5_TnNS_9enable_ifIXsr14__has_max_sizeIKT_EE5valueEiE4typeELi0EEEmRKS5_
00000000000e9c44 W _ZNSt6__ndk116allocator_traitsINS_9allocatorINS_11__tree_nodeImPvEEEEE9constructB8ne210000ImJmETnNS_9enable_ifIXsr15__has_constructIS5_PT_DpT0_EE5valueEiE4typeELi0EEEvRS5_SA_DpOSB_
00000000000bbb40 W _ZNSt6__ndk116allocator_traitsINS_9allocatorINS_12basic_stringIcNS_11char_traitsIcEENS1_IcEEEEEEE7destroyB8ne210000IS6_TnNS_9enable_ifIXsr13__has_destroyIS7_PT_EE5valueEiE4typeELi0EEEvRS7_SC_
00000000000bb78c W _ZNSt6__ndk116allocator_traitsINS_9allocatorINS_12basic_stringIcNS_11char_traitsIcEENS1_IcEEEEEEE8max_sizeB8ne210000IS7_TnNS_9enable_ifIXsr14__has_max_sizeIKT_EE5valueEiE4typeELi0EEEmRKS7_
00000000000f71a4 W _ZNSt6__ndk116allocator_traitsINS_9allocatorINS_12basic_stringIcNS_11char_traitsIcEENS1_IcEEEEEEE9constructB8ne210000IS6_JETnNS_9enable_ifIXsr15__has_constructIS7_PT_DpT0_EE5valueEiE4typeELi0EEEvRS7_SC_DpOSD_
00000000000bb25c W _ZNSt6__ndk116allocator_traitsINS_9allocatorINS_12basic_stringIcNS_11char_traitsIcEENS1_IcEEEEEEE9constructB8ne210000IS6_JNS_17basic_string_viewIcS4_EEETnNS_9enable_ifIXsr15__has_constructIS7_PT_DpT0_EE5valueEiE4typeELi0EEEvRS7_SE_DpOSF_
00000000000c4430 W _ZNSt6__ndk116allocator_traitsINS_9allocatorINS_12basic_stringIcNS_11char_traitsIcEENS1_IcEEEEEEE9constructB8ne210000IS6_JRKS6_ETnNS_9enable_ifIXsr15__has_constructIS7_PT_DpT0_EE5valueEiE4typeELi0EEEvRS7_SE_DpOSF_
00000000000bbf90 W _ZNSt6__ndk116allocator_traitsINS_9allocatorINS_12basic_stringIcNS_11char_traitsIcEENS1_IcEEEEEEE9constructB8ne210000IS6_JRNS_17basic_string_viewIcS4_EEETnNS_9enable_ifIXsr15__has_constructIS7_PT_DpT0_EE5valueEiE4typeELi0EEEvRS7_SF_DpOSG_
00000000000e4428 W _ZNSt6__ndk116allocator_traitsINS_9allocatorINS_12basic_stringIcNS_11char_traitsIcEENS1_IcEEEEEEE9constructB8ne210000IS6_JS6_ETnNS_9enable_ifIXsr15__has_constructIS7_PT_DpT0_EE5valueEiE4typeELi0EEEvRS7_SC_DpOSD_
00000000000b9724 W _ZNSt6__ndk116allocator_traitsINS_9allocatorINS_20__shared_ptr_emplaceINS_6vectorIhNS1_IhEEEENS1_IS5_EEEEEEE8max_sizeB8ne210000IS8_TnNS_9enable_ifIXsr14__has_max_sizeIKT_EE5valueEiE4typeELi0EEEmRKS8_
00000000000ba4b0 W _ZNSt6__ndk116allocator_traitsINS_9allocatorINS_6vectorIhNS1_IhEEEEEEE7destroyB8ne210000IS4_TnNS_9enable_ifIXsr13__has_destroyIS5_PT_EE5valueEiE4typeELi0EEEvRS5_SA_
00000000000b986c W _ZNSt6__ndk116allocator_traitsINS_9allocatorINS_6vectorIhNS1_IhEEEEEEE9constructB8ne210000IS4_JRmETnNS_9enable_ifIXsr15__has_constructIS5_PT_DpT0_EE5valueEiE4typeELi0EEEvRS5_SB_DpOSC_
00000000000c3d5c W _ZNSt6__ndk116allocator_traitsINS_9allocatorIPNS_16__hash_node_baseIPNS_11__hash_nodeINS_12basic_stringIcNS_11char_traitsIcEENS1_IcEEEEPvEEEEEEE8max_sizeB8ne210000ISE_TnNS_9enable_ifIXsr14__has_max_sizeIKT_EE5valueEiE4typeELi0EEEmRKSE_
00000000000e8944 W _ZNSt6__ndk116allocator_traitsINS_9allocatorIPNS_16__hash_node_baseIPNS_11__hash_nodeINS_17__hash_value_typeINS_12basic_stringIcNS_11char_traitsIcEENS1_IcEEEEjEEPvEEEEEEE8max_sizeB8ne210000ISG_TnNS_9enable_ifIXsr14__has_max_sizeIKT_EE5valueEiE4typeELi0EEEmRKSG_
0000000000112964 W _ZNSt6__ndk116allocator_traitsINS_9allocatorIPNS_16__hash_node_baseIPNS_11__hash_nodeINS_17__hash_value_typeINS_12basic_stringIcNS_11char_traitsIcEENS1_IcEEEEmEEPvEEEEEEE8max_sizeB8ne210000ISG_TnNS_9enable_ifIXsr14__has_max_sizeIKT_EE5valueEiE4typeELi0EEEmRKSG_
00000000000c266c W _ZNSt6__ndk116allocator_traitsINS_9allocatorIPNS_16__hash_node_baseIPNS_11__hash_nodeINS_17__hash_value_typeINS_17basic_string_viewIcNS_11char_traitsIcEEEENS_12basic_stringIcS7_NS1_IcEEEEEEPvEEEEEEE8max_sizeB8ne210000ISI_TnNS_9enable_ifIXsr14__has_max_sizeIKT_EE5valueEiE4typeELi0EEEmRKSI_
00000000000ef910 W _ZNSt6__ndk116allocator_traitsINS_9allocatorIZN7ElfFileI10Elf32_Ehdr10Elf32_Phdr10Elf32_Shdrjj9Elf32_Dyn9Elf32_Symt12Elf32_Verdef13Elf32_Verdaux13Elf32_Verneed13Elf32_Vernaux9Elf32_Rel10Elf32_RelaLj32EE19rebuildGnuHashTableE4spanIcESF_IS7_EE5EntryEEE7destroyB8ne210000ISI_TnNS_9enable_ifIXsr13__has_destroyISJ_PT_EE5valueEiE4typeELi0EEEvRSJ_SO_
00000000000ef5d0 W _ZNSt6__ndk116allocator_traitsINS_9allocatorIZN7ElfFileI10Elf32_Ehdr10Elf32_Phdr10Elf32_Shdrjj9Elf32_Dyn9Elf32_Symt12Elf32_Verdef13Elf32_Verdaux13Elf32_Verneed13Elf32_Vernaux9Elf32_Rel10Elf32_RelaLj32EE19rebuildGnuHashTableE4spanIcESF_IS7_EE5EntryEEE8max_sizeB8ne210000ISJ_TnNS_9enable_ifIXsr14__has_max_sizeIKT_EE5valueEiE4typeELi0EEEmRKSJ_
00000000000efd68 W _ZNSt6__ndk116allocator_traitsINS_9allocatorIZN7ElfFileI10Elf32_Ehdr10Elf32_Phdr10Elf32_Shdrjj9Elf32_Dyn9Elf32_Symt12Elf32_Verdef13Elf32_Verdaux13Elf32_Verneed13Elf32_Vernaux9Elf32_Rel10Elf32_RelaLj32EE19rebuildGnuHashTableE4spanIcESF_IS7_EE5EntryEEE9constructB8ne210000ISI_JRKSI_ETnNS_9enable_ifIXsr15__has_constructISJ_PT_DpT0_EE5valueEiE4typeELi0EEEvRSJ_SQ_DpOSR_
00000000001151e4 W _ZNSt6__ndk116allocator_traitsINS_9allocatorIZN7ElfFileI10Elf64_Ehdr10Elf64_Phdr10Elf64_Shdrmm9Elf64_Dyn9Elf64_Symt12Elf64_Verdef13Elf64_Verdaux13Elf64_Verneed13Elf64_Vernaux9Elf64_Rel10Elf64_RelaLj64EE19rebuildGnuHashTableE4spanIcESF_IS7_EE5EntryEEE7destroyB8ne210000ISI_TnNS_9enable_ifIXsr13__has_destroyISJ_PT_EE5valueEiE4typeELi0EEEvRSJ_SO_
0000000000114ea4 W _ZNSt6__ndk116allocator_traitsINS_9allocatorIZN7ElfFileI10Elf64_Ehdr10Elf64_Phdr10Elf64_Shdrmm9Elf64_Dyn9Elf64_Symt12Elf64_Verdef13Elf64_Verdaux13Elf64_Verneed13Elf64_Vernaux9Elf64_Rel10Elf64_RelaLj64EE19rebuildGnuHashTableE4spanIcESF_IS7_EE5EntryEEE8max_sizeB8ne210000ISJ_TnNS_9enable_ifIXsr14__has_max_sizeIKT_EE5valueEiE4typeELi0EEEmRKSJ_
0000000000115600 W _ZNSt6__ndk116allocator_traitsINS_9allocatorIZN7ElfFileI10Elf64_Ehdr10Elf64_Phdr10Elf64_Shdrmm9Elf64_Dyn9Elf64_Symt12Elf64_Verdef13Elf64_Verdaux13Elf64_Verneed13Elf64_Vernaux9Elf64_Rel10Elf64_RelaLj64EE19rebuildGnuHashTableE4spanIcESF_IS7_EE5EntryEEE9constructB8ne210000ISI_JRKSI_ETnNS_9enable_ifIXsr15__has_constructISJ_PT_DpT0_EE5valueEiE4typeELi0EEEvRSJ_SQ_DpOSR_
00000000000b7e80 W _ZNSt6__ndk116allocator_traitsINS_9allocatorIcEEE37select_on_container_copy_constructionB8ne210000IS2_vTnNS_9enable_ifIXntsr43__has_select_on_container_copy_constructionIKT_EE5valueEiE4typeELi0EEES2_RKS2_
00000000000ebb90 W _ZNSt6__ndk116allocator_traitsINS_9allocatorIcEEE7destroyB8ne210000IcTnNS_9enable_ifIXsr13__has_destroyIS2_PT_EE5valueEiE4typeELi0EEEvRS2_S7_
00000000000b82cc W _ZNSt6__ndk116allocator_traitsINS_9allocatorIcEEE8max_sizeB8ne210000IS2_TnNS_9enable_ifIXsr14__has_max_sizeIKT_EE5valueEiE4typeELi0EEEmRKS2_
00000000000ecea4 W _ZNSt6__ndk116allocator_traitsINS_9allocatorIcEEE9constructB8ne210000IcJRKcETnNS_9enable_ifIXsr15__has_constructIS2_PT_DpT0_EE5valueEiE4typeELi0EEEvRS2_S9_DpOSA_
00000000000ed274 W _ZNSt6__ndk116allocator_traitsINS_9allocatorIcEEE9constructB8ne210000IcJcETnNS_9enable_ifIXsr15__has_constructIS2_PT_DpT0_EE5valueEiE4typeELi0EEEvRS2_S7_DpOS8_
00000000000ba304 W _ZNSt6__ndk116allocator_traitsINS_9allocatorIhEEE7destroyB8ne210000IhTnNS_9enable_ifIXsr13__has_destroyIS2_PT_EE5valueEiE4typeELi0EEEvRS2_S7_
00000000000b9f68 W _ZNSt6__ndk116allocator_traitsINS_9allocatorIhEEE8max_sizeB8ne210000IS2_TnNS_9enable_ifIXsr14__has_max_sizeIKT_EE5valueEiE4typeELi0EEEmRKS2_
00000000000ba0bc W _ZNSt6__ndk116allocator_traitsINS_9allocatorIhEEE9constructB8ne210000IhJETnNS_9enable_ifIXsr15__has_constructIS2_PT_DpT0_EE5valueEiE4typeELi0EEEvRS2_S7_DpOS8_
00000000000d4350 W _ZNSt6__ndk116allocator_traitsINS_9allocatorIhEEE9constructB8ne210000IhJRKhETnNS_9enable_ifIXsr15__has_constructIS2_PT_DpT0_EE5valueEiE4typeELi0EEEvRS2_S9_DpOSA_
00000000000f330c W _ZNSt6__ndk116allocator_traitsINS_9allocatorIjEEE7destroyB8ne210000IjTnNS_9enable_ifIXsr13__has_destroyIS2_PT_EE5valueEiE4typeELi0EEEvRS2_S7_
00000000000f2f5c W _ZNSt6__ndk116allocator_traitsINS_9allocatorIjEEE8max_sizeB8ne210000IS2_TnNS_9enable_ifIXsr14__has_max_sizeIKT_EE5valueEiE4typeELi0EEEmRKS2_
00000000000f3094 W _ZNSt6__ndk116allocator_traitsINS_9allocatorIjEEE9constructB8ne210000IjJETnNS_9enable_ifIXsr15__has_constructIS2_PT_DpT0_EE5valueEiE4typeELi0EEEvRS2_S7_DpOS8_
00000000000e4968 W _ZNSt6__ndk116allocator_traitsINS_9allocatorImEEE8max_sizeB8ne210000IS2_TnNS_9enable_ifIXsr14__has_max_sizeIKT_EE5valueEiE4typeELi0EEEmRKS2_
00000000000f5534 W _ZNSt6__ndk116allocator_traitsINS_9allocatorItEEE7destroyB8ne210000ItTnNS_9enable_ifIXsr13__has_destroyIS2_PT_EE5valueEiE4typeELi0EEEvRS2_S7_
00000000000f4b9c W _ZNSt6__ndk116allocator_traitsINS_9allocatorItEEE8max_sizeB8ne210000IS2_TnNS_9enable_ifIXsr14__has_max_sizeIKT_EE5valueEiE4typeELi0EEEmRKS2_
00000000001253b4 T _ZNSt6__ndk116generic_categoryEv
000000000015acf0 T _ZNSt6__ndk117__widen_from_utf8ILm16EED0Ev
0000000000164568 T _ZNSt6__ndk117__widen_from_utf8ILm16EED1Ev
0000000000164568 T _ZNSt6__ndk117__widen_from_utf8ILm16EED2Ev
000000000015ad20 T _ZNSt6__ndk117__widen_from_utf8ILm32EED0Ev
0000000000164568 T _ZNSt6__ndk117__widen_from_utf8ILm32EED1Ev
0000000000164568 T _ZNSt6__ndk117__widen_from_utf8ILm32EED2Ev
00000000001245c4 T _ZNSt6__ndk117iostream_categoryEv
00000000001616bc T _ZNSt6__ndk117moneypunct_bynameIcLb0EE4initEPKc
0000000000161ef8 T _ZNSt6__ndk117moneypunct_bynameIcLb1EE4initEPKc
00000000001622fc T _ZNSt6__ndk117moneypunct_bynameIwLb0EE4initEPKc
0000000000163010 T _ZNSt6__ndk117moneypunct_bynameIwLb1EE4initEPKc
00000000000cc198 W _ZNSt6__ndk117reference_wrapperIK10Elf32_ShdrEC2B8ne210000IRS2_vTnNS_9enable_ifIXntsr17__is_same_uncvrefIT_S3_EE5valueEiE4typeELi0EEEOS7_
00000000000fc6cc W _ZNSt6__ndk117reference_wrapperIK10Elf64_ShdrEC2B8ne210000IRS2_vTnNS_9enable_ifIXntsr17__is_same_uncvrefIT_S3_EE5valueEiE4typeELi0EEEOS7_
00000000000b93c4 W _ZNSt6__ndk118__allocation_guardINS_9allocatorINS_20__shared_ptr_emplaceINS_6vectorIhNS1_IhEEEENS1_IS5_EEEEEEEC2B8ne210000IS6_EET_m
00000000000da278 W _ZNSt6__ndk118__stable_sort_moveINS_17_ClassicAlgPolicyERN7ElfFileI10Elf32_Ehdr10Elf32_Phdr10Elf32_Shdrjj9Elf32_Dyn9Elf32_Symt12Elf32_Verdef13Elf32_Verdaux13Elf32_Verneed13Elf32_Vernaux9Elf32_Rel10Elf32_RelaLj32EE8CompPhdrENS_11__wrap_iterIPS4_EEEEvT1_SK_T0_NS_15iterator_traitsISK_E15difference_typeEPNSN_10value_typeE
00000000000de7a8 W _ZNSt6__ndk118__stable_sort_moveINS_17_ClassicAlgPolicyERN7ElfFileI10Elf32_Ehdr10Elf32_Phdr10Elf32_Shdrjj9Elf32_Dyn9Elf32_Symt12Elf32_Verdef13Elf32_Verdaux13Elf32_Verneed13Elf32_Vernaux9Elf32_Rel10Elf32_RelaLj32EE8CompShdrENS_11__wrap_iterIPS5_EEEEvT1_SK_T0_NS_15iterator_traitsISK_E15difference_typeEPNSN_10value_typeE
0000000000105f9c W _ZNSt6__ndk118__stable_sort_moveINS_17_ClassicAlgPolicyERN7ElfFileI10Elf64_Ehdr10Elf64_Phdr10Elf64_Shdrmm9Elf64_Dyn9Elf64_Symt12Elf64_Verdef13Elf64_Verdaux13Elf64_Verneed13Elf64_Vernaux9Elf64_Rel10Elf64_RelaLj64EE8CompPhdrENS_11__wrap_iterIPS4_EEEEvT1_SK_T0_NS_15iterator_traitsISK_E15difference_typeEPNSN_10value_typeE
000000000010a5b0 W _ZNSt6__ndk118__stable_sort_moveINS_17_ClassicAlgPolicyERN7ElfFileI10Elf64_Ehdr10Elf64_Phdr10Elf64_Shdrmm9Elf64_Dyn9Elf64_Symt12Elf64_Verdef13Elf64_Verdaux13Elf64_Verneed13Elf64_Vernaux9Elf64_Rel10Elf64_RelaLj64EE8CompShdrENS_11__wrap_iterIPS5_EEEEvT1_SK_T0_NS_15iterator_traitsISK_E15difference_typeEPNSN_10value_typeE
000000000015f954 T _ZNSt6__ndk118__time_get_storageIcE4initERKNS_5ctypeIcEE
000000000015d6c4 T _ZNSt6__ndk118__time_get_storageIcE9__analyzeEcRKNS_5ctypeIcEE
0000000000160694 T _ZNSt6__ndk118__time_get_storageIcEC1EPKc
00000000001608fc T _ZNSt6__ndk118__time_get_storageIcEC1ERKNS_12basic_stringIcNS_11char_traitsIcEENS_9allocatorIcEEEE
0000000000160694 T _ZNSt6__ndk118__time_get_storageIcEC2EPKc
00000000001608fc T _ZNSt6__ndk118__time_get_storageIcEC2ERKNS_12basic_stringIcNS_11char_traitsIcEENS_9allocatorIcEEEE
000000000015fbec T _ZNSt6__ndk118__time_get_storageIwE4initERKNS_5ctypeIwEE
000000000015dfb4 T _ZNSt6__ndk118__time_get_storageIwE9__analyzeEcRKNS_5ctypeIwEE
0000000000160af8 T _ZNSt6__ndk118__time_get_storageIwEC1EPKc
0000000000160d50 T _ZNSt6__ndk118__time_get_storageIwEC1ERKNS_12basic_stringIcNS_11char_traitsIcEENS_9allocatorIcEEEE
0000000000160af8 T _ZNSt6__ndk118__time_get_storageIwEC2EPKc
0000000000160d50 T _ZNSt6__ndk118__time_get_storageIwEC2ERKNS_12basic_stringIcNS_11char_traitsIcEENS_9allocatorIcEEEE
0000000000130d90 W _ZNSt6__ndk118basic_stringstreamIcNS_11char_traitsIcEENS_9allocatorIcEEEaSEOS5_
000000000011badc T _ZNSt6__ndk119__shared_weak_count10__add_weakEv
000000000011bab8 T _ZNSt6__ndk119__shared_weak_count12__add_sharedEv
000000000011bb7c T _ZNSt6__ndk119__shared_weak_count14__release_weakEv
000000000011bb00 T _ZNSt6__ndk119__shared_weak_count16__release_sharedEv
000000000011bbd4 T _ZNSt6__ndk119__shared_weak_count4lockEv
000000000011ba3c T _ZNSt6__ndk119__shared_weak_countD0Ev
000000000011ba2c T _ZNSt6__ndk119__shared_weak_countD1Ev
000000000011ba2c T _ZNSt6__ndk119__shared_weak_countD2Ev
00000000000c40a4 W _ZNSt6__ndk119basic_istringstreamIcNS_11char_traitsIcEENS_9allocatorIcEEED2Ev
0000000000130eac W _ZNSt6__ndk119basic_istringstreamIcNS_11char_traitsIcEENS_9allocatorIcEEEaSEOS5_
00000000000b7c7c W _ZNSt6__ndk119basic_ostringstreamIcNS_11char_traitsIcEENS_9allocatorIcEEED2Ev
0000000000130e1c W _ZNSt6__ndk119basic_ostringstreamIcNS_11char_traitsIcEENS_9allocatorIcEEEaSEOS5_
00000000000735a2 V _ZNSt6__ndk119piecewise_constructE
00000000000cc22c W _ZNSt6__ndk120__optional_copy_baseINS_17reference_wrapperIK10Elf32_ShdrEELb1EEC2Ev
00000000000cc0f0 W _ZNSt6__ndk120__optional_copy_baseINS_17reference_wrapperIK10Elf32_ShdrEELb1EECI2NS_24__optional_destruct_baseIS4_Lb1EEEIJRS3_EEENS_10in_place_tEDpOT_
00000000000fc760 W _ZNSt6__ndk120__optional_copy_baseINS_17reference_wrapperIK10Elf64_ShdrEELb1EEC2Ev
00000000000fc624 W _ZNSt6__ndk120__optional_copy_baseINS_17reference_wrapperIK10Elf64_ShdrEELb1EECI2NS_24__optional_destruct_baseIS4_Lb1EEEIJRS3_EEENS_10in_place_tEDpOT_
00000000000cc208 W _ZNSt6__ndk120__optional_move_baseINS_17reference_wrapperIK10Elf32_ShdrEELb1EEC2Ev
00000000000cc0bc W _ZNSt6__ndk120__optional_move_baseINS_17reference_wrapperIK10Elf32_ShdrEELb1EECI2NS_24__optional_destruct_baseIS4_Lb1EEEIJRS3_EEENS_10in_place_tEDpOT_
00000000000fc73c W _ZNSt6__ndk120__optional_move_baseINS_17reference_wrapperIK10Elf64_ShdrEELb1EEC2Ev
00000000000fc5f0 W _ZNSt6__ndk120__optional_move_baseINS_17reference_wrapperIK10Elf64_ShdrEELb1EECI2NS_24__optional_destruct_baseIS4_Lb1EEEIJRS3_EEENS_10in_place_tEDpOT_
00000000000ba444 W _ZNSt6__ndk120__shared_ptr_emplaceINS_6vectorIhNS_9allocatorIhEEEENS2_IS4_EEE21__on_zero_shared_implB8ne210000IS5_TnNS_9enable_ifIXntsr7is_sameINT_10value_typeENS_19__for_overwrite_tagEEE5valueEiE4typeELi0EEEvv
00000000000b9458 W _ZNSt6__ndk120__shared_ptr_emplaceINS_6vectorIhNS_9allocatorIhEEEENS2_IS4_EEEC2B8ne210000IJRmES5_TnNS_9enable_ifIXntsr7is_sameINT0_10value_typeENS_19__for_overwrite_tagEEE5valueEiE4typeELi0EEES5_DpOT_
00000000000b9908 W _ZNSt6__ndk120__shared_ptr_emplaceINS_6vectorIhNS_9allocatorIhEEEENS2_IS4_EEED0Ev
00000000000b98c4 W _ZNSt6__ndk120__shared_ptr_emplaceINS_6vectorIhNS_9allocatorIhEEEENS2_IS4_EEED2Ev
0000000000125d0c T _ZNSt6__ndk120__throw_system_errorEiPKc
000000000011c0c4 T _ZNSt6__ndk121__throw_runtime_errorEPKc
00000000000cc250 W _ZNSt6__ndk123__optional_storage_baseINS_17reference_wrapperIK10Elf32_ShdrEELb0EEC2Ev
00000000000cc124 W _ZNSt6__ndk123__optional_storage_baseINS_17reference_wrapperIK10Elf32_ShdrEELb0EECI2NS_24__optional_destruct_baseIS4_Lb1EEEIJRS3_EEENS_10in_place_tEDpOT_
00000000000fc784 W _ZNSt6__ndk123__optional_storage_baseINS_17reference_wrapperIK10Elf64_ShdrEELb0EEC2Ev
00000000000fc658 W _ZNSt6__ndk123__optional_storage_baseINS_17reference_wrapperIK10Elf64_ShdrEELb0EECI2NS_24__optional_destruct_baseIS4_Lb1EEEIJRS3_EEENS_10in_place_tEDpOT_
00000000000cc158 W _ZNSt6__ndk124__optional_destruct_baseINS_17reference_wrapperIK10Elf32_ShdrEELb1EEC2B8ne210000IJRS3_EEENS_10in_place_tEDpOT_
00000000000fc68c W _ZNSt6__ndk124__optional_destruct_baseINS_17reference_wrapperIK10Elf64_ShdrEELb1EEC2B8ne210000IJRS3_EEENS_10in_place_tEDpOT_
00000000000c35dc W _ZNSt6__ndk125__compressed_pair_paddingINS_22__hash_node_destructorINS_9allocatorINS_11__hash_nodeINS_12basic_stringIcNS_11char_traitsIcEENS2_IcEEEEPvEEEEEELb0EEC2Ev
00000000000e80b8 W _ZNSt6__ndk125__compressed_pair_paddingINS_22__hash_node_destructorINS_9allocatorINS_11__hash_nodeINS_17__hash_value_typeINS_12basic_stringIcNS_11char_traitsIcEENS2_IcEEEEjEEPvEEEEEELb0EEC2Ev
00000000001120d8 W _ZNSt6__ndk125__compressed_pair_paddingINS_22__hash_node_destructorINS_9allocatorINS_11__hash_nodeINS_17__hash_value_typeINS_12basic_stringIcNS_11char_traitsIcEENS2_IcEEEEmEEPvEEEEEELb0EEC2Ev
00000000000c1d40 W _ZNSt6__ndk125__compressed_pair_paddingINS_22__hash_node_destructorINS_9allocatorINS_11__hash_nodeINS_17__hash_value_typeINS_17basic_string_viewIcNS_11char_traitsIcEEEENS_12basic_stringIcS7_NS2_IcEEEEEEPvEEEEEELb0EEC2Ev
00000000000be04c W _ZNSt6__ndk125__compressed_pair_paddingINS_22__tree_node_destructorINS_9allocatorINS_11__tree_nodeINS_12__value_typeINS_12basic_stringIcNS_11char_traitsIcEENS2_IcEEEES9_EEPvEEEEEELb0EEC2Ev
00000000000bce08 W _ZNSt6__ndk125__compressed_pair_paddingINS_22__tree_node_destructorINS_9allocatorINS_11__tree_nodeINS_12basic_stringIcNS_11char_traitsIcEENS2_IcEEEEPvEEEEEELb0EEC2Ev
00000000000d85cc W _ZNSt6__ndk125__compressed_pair_paddingINS_22__tree_node_destructorINS_9allocatorINS_11__tree_nodeIjPvEEEEEELb0EEC2Ev
00000000000e9db8 W _ZNSt6__ndk125__compressed_pair_paddingINS_22__tree_node_destructorINS_9allocatorINS_11__tree_nodeImPvEEEEEELb0EEC2Ev
00000000000cc1e4 W _ZNSt6__ndk127__optional_copy_assign_baseINS_17reference_wrapperIK10Elf32_ShdrEELb1EEC2Ev
00000000000cc088 W _ZNSt6__ndk127__optional_copy_assign_baseINS_17reference_wrapperIK10Elf32_ShdrEELb1EECI2NS_24__optional_destruct_baseIS4_Lb1EEEIJRS3_EEENS_10in_place_tEDpOT_
00000000000fc718 W _ZNSt6__ndk127__optional_copy_assign_baseINS_17reference_wrapperIK10Elf64_ShdrEELb1EEC2Ev
00000000000fc5bc W _ZNSt6__ndk127__optional_copy_assign_baseINS_17reference_wrapperIK10Elf64_ShdrEELb1EECI2NS_24__optional_destruct_baseIS4_Lb1EEEIJRS3_EEENS_10in_place_tEDpOT_
00000000000cc1c0 W _ZNSt6__ndk127__optional_move_assign_baseINS_17reference_wrapperIK10Elf32_ShdrEELb1EEC2Ev
00000000000cc054 W _ZNSt6__ndk127__optional_move_assign_baseINS_17reference_wrapperIK10Elf32_ShdrEELb1EECI2NS_24__optional_destruct_baseIS4_Lb1EEEIJRS3_EEENS_10in_place_tEDpOT_
00000000000fc6f4 W _ZNSt6__ndk127__optional_move_assign_baseINS_17reference_wrapperIK10Elf64_ShdrEELb1EEC2Ev
00000000000fc588 W _ZNSt6__ndk127__optional_move_assign_baseINS_17reference_wrapperIK10Elf64_ShdrEELb1EECI2NS_24__optional_destruct_baseIS4_Lb1EEEIJRS3_EEENS_10in_place_tEDpOT_
00000000000be108 W _ZNSt6__ndk14pairIKNS_12basic_stringIcNS_11char_traitsIcEENS_9allocatorIcEEEES6_EC2B8ne210000IJOS6_EJEEENS_21piecewise_construct_tENS_5tupleIJDpT_EEENSC_IJDpT0_EEE
00000000000be17c W _ZNSt6__ndk14pairIKNS_12basic_stringIcNS_11char_traitsIcEENS_9allocatorIcEEEES6_EC2B8ne210000IJOS6_EJEJLm0EETpTnmJEEENS_21piecewise_construct_tERNS_5tupleIJDpT_EEERNSC_IJDpT0_EEENS_15__tuple_indicesIJXspT1_EEEENSL_IJXspT2_EEEE
00000000000ce378 W _ZNSt6__ndk14pairIKNS_12basic_stringIcNS_11char_traitsIcEENS_9allocatorIcEEEES6_EC2B8ne210000IJRS7_EJEEENS_21piecewise_construct_tENS_5tupleIJDpT_EEENSC_IJDpT0_EEE
00000000000ce3e8 W _ZNSt6__ndk14pairIKNS_12basic_stringIcNS_11char_traitsIcEENS_9allocatorIcEEEES6_EC2B8ne210000IJRS7_EJEJLm0EETpTnmJEEENS_21piecewise_construct_tERNS_5tupleIJDpT_EEERNSC_IJDpT0_EEENS_15__tuple_indicesIJXspT1_EEEENSL_IJXspT2_EEEE
00000000000be3a4 W _ZNSt6__ndk14pairIKNS_12basic_stringIcNS_11char_traitsIcEENS_9allocatorIcEEEES6_ED2Ev
00000000000e81d4 W _ZNSt6__ndk14pairIKNS_12basic_stringIcNS_11char_traitsIcEENS_9allocatorIcEEEEjEC2B8ne210000IJRS7_EJEEENS_21piecewise_construct_tENS_5tupleIJDpT_EEENSC_IJDpT0_EEE
00000000000e8244 W _ZNSt6__ndk14pairIKNS_12basic_stringIcNS_11char_traitsIcEENS_9allocatorIcEEEEjEC2B8ne210000IJRS7_EJEJLm0EETpTnmJEEENS_21piecewise_construct_tERNS_5tupleIJDpT_EEERNSC_IJDpT0_EEENS_15__tuple_indicesIJXspT1_EEEENSL_IJXspT2_EEEE
00000000000e8b78 W _ZNSt6__ndk14pairIKNS_12basic_stringIcNS_11char_traitsIcEENS_9allocatorIcEEEEjED2Ev
00000000001121f4 W _ZNSt6__ndk14pairIKNS_12basic_stringIcNS_11char_traitsIcEENS_9allocatorIcEEEEmEC2B8ne210000IJRS7_EJEEENS_21piecewise_construct_tENS_5tupleIJDpT_EEENSC_IJDpT0_EEE
0000000000112264 W _ZNSt6__ndk14pairIKNS_12basic_stringIcNS_11char_traitsIcEENS_9allocatorIcEEEEmEC2B8ne210000IJRS7_EJEJLm0EETpTnmJEEENS_21piecewise_construct_tERNS_5tupleIJDpT_EEERNSC_IJDpT0_EEENS_15__tuple_indicesIJXspT1_EEEENSL_IJXspT2_EEEE
0000000000112b98 W _ZNSt6__ndk14pairIKNS_12basic_stringIcNS_11char_traitsIcEENS_9allocatorIcEEEEmED2Ev
00000000000c1e5c W _ZNSt6__ndk14pairIKNS_17basic_string_viewIcNS_11char_traitsIcEEEENS_12basic_stringIcS3_NS_9allocatorIcEEEEEC2B8ne210000IJOS4_EJEEENS_21piecewise_construct_tENS_5tupleIJDpT_EEENSE_IJDpT0_EEE
00000000000c1ed0 W _ZNSt6__ndk14pairIKNS_17basic_string_viewIcNS_11char_traitsIcEEEENS_12basic_stringIcS3_NS_9allocatorIcEEEEEC2B8ne210000IJOS4_EJEJLm0EETpTnmJEEENS_21piecewise_construct_tERNS_5tupleIJDpT_EEERNSE_IJDpT0_EEENS_15__tuple_indicesIJXspT1_EEEENSN_IJXspT2_EEEE
00000000000c28c4 W _ZNSt6__ndk14pairIKNS_17basic_string_viewIcNS_11char_traitsIcEEEENS_12basic_stringIcS3_NS_9allocatorIcEEEEED2Ev
00000000000d7574 W _ZNSt6__ndk14pairINS_11__wrap_iterIP10Elf32_PhdrEES3_EC2B8ne210000IS4_S3_TnNS_9enable_ifIXclsr10_CheckArgsE23__is_pair_constructibleIT_T0_EEEiE4typeELi0EEEOS8_OS9_
00000000000dcebc W _ZNSt6__ndk14pairINS_11__wrap_iterIP10Elf32_PhdrEES4_EC2B8ne210000IRS4_S7_TnNS_9enable_ifIXclsr10_CheckArgsE23__is_pair_constructibleIT_T0_EEEiE4typeELi0EEEOS9_OSA_
00000000000dcef0 W _ZNSt6__ndk14pairINS_11__wrap_iterIP10Elf32_PhdrEES4_EC2B8ne210000IS4_S4_TnNS_9enable_ifIXclsr10_CheckArgsE23__is_pair_constructibleIT_T0_EEEiE4typeELi0EEEOS8_OS9_
00000000000e1ca4 W _ZNSt6__ndk14pairINS_11__wrap_iterIP10Elf32_ShdrEES4_EC2B8ne210000IRS4_S7_TnNS_9enable_ifIXclsr10_CheckArgsE23__is_pair_constructibleIT_T0_EEEiE4typeELi0EEEOS9_OSA_
00000000000e1cd8 W _ZNSt6__ndk14pairINS_11__wrap_iterIP10Elf32_ShdrEES4_EC2B8ne210000IS4_S4_TnNS_9enable_ifIXclsr10_CheckArgsE23__is_pair_constructibleIT_T0_EEEiE4typeELi0EEEOS8_OS9_
0000000000104414 W _ZNSt6__ndk14pairINS_11__wrap_iterIP10Elf64_PhdrEES3_EC2B8ne210000IS4_S3_TnNS_9enable_ifIXclsr10_CheckArgsE23__is_pair_constructibleIT_T0_EEEiE4typeELi0EEEOS8_OS9_
0000000000108cac W _ZNSt6__ndk14pairINS_11__wrap_iterIP10Elf64_PhdrEES4_EC2B8ne210000IRS4_S7_TnNS_9enable_ifIXclsr10_CheckArgsE23__is_pair_constructibleIT_T0_EEEiE4typeELi0EEEOS9_OSA_
0000000000108ce0 W _ZNSt6__ndk14pairINS_11__wrap_iterIP10Elf64_PhdrEES4_EC2B8ne210000IS4_S4_TnNS_9enable_ifIXclsr10_CheckArgsE23__is_pair_constructibleIT_T0_EEEiE4typeELi0EEEOS8_OS9_
000000000010daf0 W _ZNSt6__ndk14pairINS_11__wrap_iterIP10Elf64_ShdrEES4_EC2B8ne210000IRS4_S7_TnNS_9enable_ifIXclsr10_CheckArgsE23__is_pair_constructibleIT_T0_EEEiE4typeELi0EEEOS9_OSA_
000000000010db24 W _ZNSt6__ndk14pairINS_11__wrap_iterIP10Elf64_ShdrEES4_EC2B8ne210000IS4_S4_TnNS_9enable_ifIXclsr10_CheckArgsE23__is_pair_constructibleIT_T0_EEEiE4typeELi0EEEOS8_OS9_
00000000000cef68 W _ZNSt6__ndk14pairINS_11__wrap_iterIPKcEENS1_IPcEEEC2B8ne210000IS4_S6_TnNS_9enable_ifIXclsr10_CheckArgsE23__is_pair_constructibleIT_T0_EEEiE4typeELi0EEEOSA_OSB_
00000000000ed998 W _ZNSt6__ndk14pairINS_11__wrap_iterIPKcEEPcEC2B8ne210000IS4_S5_TnNS_9enable_ifIXclsr10_CheckArgsE23__is_pair_constructibleIT_T0_EEEiE4typeELi0EEEOS9_OSA_
00000000000edf8c W _ZNSt6__ndk14pairINS_11__wrap_iterIPcEES2_EC2B8ne210000IS3_S2_TnNS_9enable_ifIXclsr10_CheckArgsE23__is_pair_constructibleIT_T0_EEEiE4typeELi0EEEOS7_OS8_
00000000000c3338 W _ZNSt6__ndk14pairINS_15__hash_iteratorIPNS_11__hash_nodeINS_12basic_stringIcNS_11char_traitsIcEENS_9allocatorIcEEEEPvEEEEbEC2B8ne210000ISC_RbTnNS_9enable_ifIXclsr10_CheckArgsE23__is_pair_constructibleIT_T0_EEEiE4typeELi0EEEOSH_OSI_
00000000000e7df4 W _ZNSt6__ndk14pairINS_15__hash_iteratorIPNS_11__hash_nodeINS_17__hash_value_typeINS_12basic_stringIcNS_11char_traitsIcEENS_9allocatorIcEEEEjEEPvEEEEbEC2B8ne210000ISE_RbTnNS_9enable_ifIXclsr10_CheckArgsE23__is_pair_constructibleIT_T0_EEEiE4typeELi0EEEOSJ_OSK_
0000000000111e14 W _ZNSt6__ndk14pairINS_15__hash_iteratorIPNS_11__hash_nodeINS_17__hash_value_typeINS_12basic_stringIcNS_11char_traitsIcEENS_9allocatorIcEEEEmEEPvEEEEbEC2B8ne210000ISE_RbTnNS_9enable_ifIXclsr10_CheckArgsE23__is_pair_constructibleIT_T0_EEEiE4typeELi0EEEOSJ_OSK_
00000000000c16b4 W _ZNSt6__ndk14pairINS_15__hash_iteratorIPNS_11__hash_nodeINS_17__hash_value_typeINS_17basic_string_viewIcNS_11char_traitsIcEEEENS_12basic_stringIcS6_NS_9allocatorIcEEEEEEPvEEEEbEC2B8ne210000ISG_RbTnNS_9enable_ifIXclsr10_CheckArgsE23__is_pair_constructibleIT_T0_EEEiE4typeELi0EEEOSL_OSM_
00000000000bdc20 W _ZNSt6__ndk14pairINS_15__tree_iteratorINS_12__value_typeINS_12basic_stringIcNS_11char_traitsIcEENS_9allocatorIcEEEES8_EEPNS_11__tree_nodeIS9_PvEElEEbEC2B8ne210000ISE_RbTnNS_9enable_ifIXclsr10_CheckArgsE23__is_pair_constructibleIT_T0_EEEiE4typeELi0EEEOSJ_OSK_
00000000000bc888 W _ZNSt6__ndk14pairINS_15__tree_iteratorINS_12basic_stringIcNS_11char_traitsIcEENS_9allocatorIcEEEEPNS_11__tree_nodeIS7_PvEElEEbEC2B8ne210000ISC_RbTnNS_9enable_ifIXclsr10_CheckArgsE23__is_pair_constructibleIT_T0_EEEiE4typeELi0EEEOSH_OSI_
00000000000d8334 W _ZNSt6__ndk14pairINS_15__tree_iteratorIjPNS_11__tree_nodeIjPvEElEEbEC2B8ne210000IS6_RbTnNS_9enable_ifIXclsr10_CheckArgsE23__is_pair_constructibleIT_T0_EEEiE4typeELi0EEEOSB_OSC_
00000000000e9a98 W _ZNSt6__ndk14pairINS_15__tree_iteratorImPNS_11__tree_nodeImPvEElEEbEC2B8ne210000IS6_RbTnNS_9enable_ifIXclsr10_CheckArgsE23__is_pair_constructibleIT_T0_EEEiE4typeELi0EEEOSB_OSC_
00000000000dc9a8 W _ZNSt6__ndk14pairINS_16reverse_iteratorIP10Elf32_PhdrEENS1_INS_11__wrap_iterIS3_EEEEEC2B8ne210000IS4_S7_TnNS_9enable_ifIXclsr10_CheckArgsE23__is_pair_constructibleIT_T0_EEEiE4typeELi0EEEOSB_OSC_
00000000000dc8ac W _ZNSt6__ndk14pairINS_16reverse_iteratorIP10Elf32_PhdrEES4_EC2B8ne210000IS4_S4_TnNS_9enable_ifIXclsr10_CheckArgsE23__is_pair_constructibleIT_T0_EEEiE4typeELi0EEEOS8_OS9_
00000000000e1610 W _ZNSt6__ndk14pairINS_16reverse_iteratorIP10Elf32_ShdrEENS1_INS_11__wrap_iterIS3_EEEEEC2B8ne210000IS4_S7_TnNS_9enable_ifIXclsr10_CheckArgsE23__is_pair_constructibleIT_T0_EEEiE4typeELi0EEEOSB_OSC_
00000000000e1514 W _ZNSt6__ndk14pairINS_16reverse_iteratorIP10Elf32_ShdrEES4_EC2B8ne210000IS4_S4_TnNS_9enable_ifIXclsr10_CheckArgsE23__is_pair_constructibleIT_T0_EEEiE4typeELi0EEEOS8_OS9_
00000000001087b4 W _ZNSt6__ndk14pairINS_16reverse_iteratorIP10Elf64_PhdrEENS1_INS_11__wrap_iterIS3_EEEEEC2B8ne210000IS4_S7_TnNS_9enable_ifIXclsr10_CheckArgsE23__is_pair_constructibleIT_T0_EEEiE4typeELi0EEEOSB_OSC_
00000000001086b8 W _ZNSt6__ndk14pairINS_16reverse_iteratorIP10Elf64_PhdrEES4_EC2B8ne210000IS4_S4_TnNS_9enable_ifIXclsr10_CheckArgsE23__is_pair_constructibleIT_T0_EEEiE4typeELi0EEEOS8_OS9_
000000000010d464 W _ZNSt6__ndk14pairINS_16reverse_iteratorIP10Elf64_ShdrEENS1_INS_11__wrap_iterIS3_EEEEEC2B8ne210000IS4_S7_TnNS_9enable_ifIXclsr10_CheckArgsE23__is_pair_constructibleIT_T0_EEEiE4typeELi0EEEOSB_OSC_
000000000010d368 W _ZNSt6__ndk14pairINS_16reverse_iteratorIP10Elf64_ShdrEES4_EC2B8ne210000IS4_S4_TnNS_9enable_ifIXclsr10_CheckArgsE23__is_pair_constructibleIT_T0_EEEiE4typeELi0EEEOS8_OS9_
00000000000c2b80 W _ZNSt6__ndk14pairINS_21__hash_const_iteratorIPNS_11__hash_nodeINS_12basic_stringIcNS_11char_traitsIcEENS_9allocatorIcEEEEPvEEEEbEC2B8ne210000INS_15__hash_iteratorISB_EEbTnNS_9enable_ifIXclsr10_CheckArgsE23__is_pair_constructibleIT_T0_EEEiE4typeELi0EEEONS0_ISI_SJ_EE
00000000000bc2d8 W _ZNSt6__ndk14pairINS_21__tree_const_iteratorINS_12basic_stringIcNS_11char_traitsIcEENS_9allocatorIcEEEEPNS_11__tree_nodeIS7_PvEElEEbEC2B8ne210000INS_15__tree_iteratorIS7_SB_lEEbTnNS_9enable_ifIXclsr10_CheckArgsE23__is_pair_constructibleIT_T0_EEEiE4typeELi0EEEONS0_ISI_SJ_EE
00000000000d7d84 W _ZNSt6__ndk14pairINS_21__tree_const_iteratorIjPNS_11__tree_nodeIjPvEElEEbEC2B8ne210000INS_15__tree_iteratorIjS5_lEEbTnNS_9enable_ifIXclsr10_CheckArgsE23__is_pair_constructibleIT_T0_EEEiE4typeELi0EEEONS0_ISC_SD_EE
00000000000e94e8 W _ZNSt6__ndk14pairINS_21__tree_const_iteratorImPNS_11__tree_nodeImPvEElEEbEC2B8ne210000INS_15__tree_iteratorImS5_lEEbTnNS_9enable_ifIXclsr10_CheckArgsE23__is_pair_constructibleIT_T0_EEEiE4typeELi0EEEONS0_ISC_SD_EE
00000000000dbfc4 W _ZNSt6__ndk14pairIP10Elf32_PhdrNS_11__wrap_iterIS2_EEEC2B8ne210000IS2_S4_TnNS_9enable_ifIXclsr10_CheckArgsE23__is_pair_constructibleIT_T0_EEEiE4typeELi0EEEOS8_OS9_
00000000000d6ef0 W _ZNSt6__ndk14pairIP10Elf32_PhdrS2_EC2B8ne210000IRS2_S2_TnNS_9enable_ifIXclsr10_CheckArgsE23__is_pair_constructibleIT_T0_EEEiE4typeELi0EEEOS7_OS8_
00000000000d72d0 W _ZNSt6__ndk14pairIP10Elf32_PhdrS2_EC2B8ne210000IRS2_S5_TnNS_9enable_ifIXclsr10_CheckArgsE23__is_pair_constructibleIT_T0_EEEiE4typeELi0EEEOS7_OS8_
00000000000d6990 W _ZNSt6__ndk14pairIP10Elf32_PhdrS2_EC2B8ne210000IS2_S2_TnNS_9enable_ifIXclsr10_CheckArgsE23__is_pair_constructibleIT_T0_EEEiE4typeELi0EEEOS6_OS7_
00000000000d9828 W _ZNSt6__ndk14pairIP10Elf32_PhdrlEC2B8ne210000ILb1ETnNS_9enable_ifIXclsr13_CheckArgsDepIXT_EEE23__is_pair_constructibleIRKS2_RKlEEEiE4typeELi0EEES7_S9_
00000000000e0afc W _ZNSt6__ndk14pairIP10Elf32_ShdrNS_11__wrap_iterIS2_EEEC2B8ne210000IS2_S4_TnNS_9enable_ifIXclsr10_CheckArgsE23__is_pair_constructibleIT_T0_EEEiE4typeELi0EEEOS8_OS9_
00000000000e098c W _ZNSt6__ndk14pairIP10Elf32_ShdrS2_EC2B8ne210000IRS2_S2_TnNS_9enable_ifIXclsr10_CheckArgsE23__is_pair_constructibleIT_T0_EEEiE4typeELi0EEEOS7_OS8_
00000000000e2978 W _ZNSt6__ndk14pairIP10Elf32_ShdrS2_EC2B8ne210000IRS2_S5_TnNS_9enable_ifIXclsr10_CheckArgsE23__is_pair_constructibleIT_T0_EEEiE4typeELi0EEEOS7_OS8_
00000000000e0784 W _ZNSt6__ndk14pairIP10Elf32_ShdrS2_EC2B8ne210000IS2_S2_TnNS_9enable_ifIXclsr10_CheckArgsE23__is_pair_constructibleIT_T0_EEEiE4typeELi0EEEOS6_OS7_
00000000000dddb4 W _ZNSt6__ndk14pairIP10Elf32_ShdrlEC2B8ne210000ILb1ETnNS_9enable_ifIXclsr13_CheckArgsDepIXT_EEE23__is_pair_constructibleIRKS2_RKlEEEiE4typeELi0EEES7_S9_
0000000000107dc0 W _ZNSt6__ndk14pairIP10Elf64_PhdrNS_11__wrap_iterIS2_EEEC2B8ne210000IS2_S4_TnNS_9enable_ifIXclsr10_CheckArgsE23__is_pair_constructibleIT_T0_EEEiE4typeELi0EEEOS8_OS9_
0000000000103d68 W _ZNSt6__ndk14pairIP10Elf64_PhdrS2_EC2B8ne210000IRS2_S2_TnNS_9enable_ifIXclsr10_CheckArgsE23__is_pair_constructibleIT_T0_EEEiE4typeELi0EEEOS7_OS8_
0000000000104170 W _ZNSt6__ndk14pairIP10Elf64_PhdrS2_EC2B8ne210000IRS2_S5_TnNS_9enable_ifIXclsr10_CheckArgsE23__is_pair_constructibleIT_T0_EEEiE4typeELi0EEEOS7_OS8_
00000000001037e8 W _ZNSt6__ndk14pairIP10Elf64_PhdrS2_EC2B8ne210000IS2_S2_TnNS_9enable_ifIXclsr10_CheckArgsE23__is_pair_constructibleIT_T0_EEEiE4typeELi0EEEOS6_OS7_
0000000000105500 W _ZNSt6__ndk14pairIP10Elf64_PhdrlEC2B8ne210000ILb1ETnNS_9enable_ifIXclsr13_CheckArgsDepIXT_EEE23__is_pair_constructibleIRKS2_RKlEEEiE4typeELi0EEES7_S9_
000000000010c95c W _ZNSt6__ndk14pairIP10Elf64_ShdrNS_11__wrap_iterIS2_EEEC2B8ne210000IS2_S4_TnNS_9enable_ifIXclsr10_CheckArgsE23__is_pair_constructibleIT_T0_EEEiE4typeELi0EEEOS8_OS9_
000000000010c7ec W _ZNSt6__ndk14pairIP10Elf64_ShdrS2_EC2B8ne210000IRS2_S2_TnNS_9enable_ifIXclsr10_CheckArgsE23__is_pair_constructibleIT_T0_EEEiE4typeELi0EEEOS7_OS8_
000000000010e800 W _ZNSt6__ndk14pairIP10Elf64_ShdrS2_EC2B8ne210000IRS2_S5_TnNS_9enable_ifIXclsr10_CheckArgsE23__is_pair_constructibleIT_T0_EEEiE4typeELi0EEEOS7_OS8_
000000000010c5fc W _ZNSt6__ndk14pairIP10Elf64_ShdrS2_EC2B8ne210000IS2_S2_TnNS_9enable_ifIXclsr10_CheckArgsE23__is_pair_constructibleIT_T0_EEEiE4typeELi0EEEOS6_OS7_
0000000000109bcc W _ZNSt6__ndk14pairIP10Elf64_ShdrlEC2B8ne210000ILb1ETnNS_9enable_ifIXclsr13_CheckArgsDepIXT_EEE23__is_pair_constructibleIRKS2_RKlEEEiE4typeELi0EEES7_S9_
00000000000f4184 W _ZNSt6__ndk14pairIP9Elf32_SymS2_EC2B8ne210000IRS2_S2_TnNS_9enable_ifIXclsr10_CheckArgsE23__is_pair_constructibleIT_T0_EEEiE4typeELi0EEEOS7_OS8_
00000000000f3df0 W _ZNSt6__ndk14pairIP9Elf32_SymS2_EC2B8ne210000IS2_S2_TnNS_9enable_ifIXclsr10_CheckArgsE23__is_pair_constructibleIT_T0_EEEiE4typeELi0EEEOS6_OS7_
00000000001190d0 W _ZNSt6__ndk14pairIP9Elf64_SymS2_EC2B8ne210000IRS2_S2_TnNS_9enable_ifIXclsr10_CheckArgsE23__is_pair_constructibleIT_T0_EEEiE4typeELi0EEEOS7_OS8_
0000000000118d24 W _ZNSt6__ndk14pairIP9Elf64_SymS2_EC2B8ne210000IS2_S2_TnNS_9enable_ifIXclsr10_CheckArgsE23__is_pair_constructibleIT_T0_EEEiE4typeELi0EEEOS6_OS7_
00000000000cedf8 W _ZNSt6__ndk14pairIPKcPcEC2B8ne210000IRS2_S3_TnNS_9enable_ifIXclsr10_CheckArgsE23__is_pair_constructibleIT_T0_EEEiE4typeELi0EEEOS8_OS9_
00000000000ceb68 W _ZNSt6__ndk14pairIPKcS2_EC2B8ne210000IS2_S2_TnNS_9enable_ifIXclsr10_CheckArgsE23__is_pair_constructibleIT_T0_EEEiE4typeELi0EEEOS6_OS7_
00000000000f293c W _ZNSt6__ndk14pairIPZN7ElfFileI10Elf32_Ehdr10Elf32_Phdr10Elf32_Shdrjj9Elf32_Dyn9Elf32_Symt12Elf32_Verdef13Elf32_Verdaux13Elf32_Verneed13Elf32_Vernaux9Elf32_Rel10Elf32_RelaLj32EE19rebuildGnuHashTableE4spanIcESE_IS6_EE5EntrybEC2B8ne210000IRSI_RbTnNS_9enable_ifIXclsr10_CheckArgsE23__is_pair_constructibleIT_T0_EEEiE4typeELi0EEEOSO_OSP_
000000000011813c W _ZNSt6__ndk14pairIPZN7ElfFileI10Elf64_Ehdr10Elf64_Phdr10Elf64_Shdrmm9Elf64_Dyn9Elf64_Symt12Elf64_Verdef13Elf64_Verdaux13Elf64_Verneed13Elf64_Vernaux9Elf64_Rel10Elf64_RelaLj64EE19rebuildGnuHashTableE4spanIcESE_IS6_EE5EntrybEC2B8ne210000IRSI_RbTnNS_9enable_ifIXclsr10_CheckArgsE23__is_pair_constructibleIT_T0_EEEiE4typeELi0EEEOSO_OSP_
00000000000edf58 W _ZNSt6__ndk14pairIPcS1_EC2B8ne210000IRS1_S1_TnNS_9enable_ifIXclsr10_CheckArgsE23__is_pair_constructibleIT_T0_EEEiE4typeELi0EEEOS6_OS7_
00000000000ed730 W _ZNSt6__ndk14pairIPcS1_EC2B8ne210000IRS1_S4_TnNS_9enable_ifIXclsr10_CheckArgsE23__is_pair_constructibleIT_T0_EEEiE4typeELi0EEEOS6_OS7_
00000000000ed764 W _ZNSt6__ndk14pairIPcS1_EC2B8ne210000IS1_S1_TnNS_9enable_ifIXclsr10_CheckArgsE23__is_pair_constructibleIT_T0_EEEiE4typeELi0EEEOS5_OS6_
00000000000f52a4 W _ZNSt6__ndk14pairIPtS1_EC2B8ne210000IRS1_S1_TnNS_9enable_ifIXclsr10_CheckArgsE23__is_pair_constructibleIT_T0_EEEiE4typeELi0EEEOS6_OS7_
00000000000f4f10 W _ZNSt6__ndk14pairIPtS1_EC2B8ne210000IS1_S1_TnNS_9enable_ifIXclsr10_CheckArgsE23__is_pair_constructibleIT_T0_EEEiE4typeELi0EEEOS5_OS6_
00000000000c0250 W _ZNSt6__ndk14pairImmEC2B8ne210000ImmTnNS_9enable_ifIXclsr10_CheckArgsE23__is_pair_constructibleIT_T0_EEEiE4typeELi0EEEOS4_OS5_
00000000001213e8 T _ZNSt6__ndk14stodERKNS_12basic_stringIcNS_11char_traitsIcEENS_9allocatorIcEEEEPm
0000000000121edc T _ZNSt6__ndk14stodERKNS_12basic_stringIwNS_11char_traitsIwEENS_9allocatorIwEEEEPm
00000000001212a0 T _ZNSt6__ndk14stofERKNS_12basic_stringIcNS_11char_traitsIcEENS_9allocatorIcEEEEPm
0000000000121d84 T _ZNSt6__ndk14stofERKNS_12basic_stringIwNS_11char_traitsIwEENS_9allocatorIwEEEEPm
0000000000120bf0 T _ZNSt6__ndk14stoiERKNS_12basic_stringIcNS_11char_traitsIcEENS_9allocatorIcEEEEPmi
0000000000121688 T _ZNSt6__ndk14stoiERKNS_12basic_stringIwNS_11char_traitsIwEENS_9allocatorIwEEEEPmi
0000000000120d4c T _ZNSt6__ndk14stolERKNS_12basic_stringIcNS_11char_traitsIcEENS_9allocatorIcEEEEPmi
00000000001217ec T _ZNSt6__ndk14stolERKNS_12basic_stringIwNS_11char_traitsIwEENS_9allocatorIwEEEEPmi
000000000011bcdc T _ZNSt6__ndk15alignEmmRPvRm
0000000000074798 R _ZNSt6__ndk15ctypeIcE10table_sizeE
00000000001555c0 T _ZNSt6__ndk15ctypeIcE13classic_tableEv
000000000019f620 B _ZNSt6__ndk15ctypeIcE2idE
0000000000155b90 T _ZNSt6__ndk15ctypeIcEC1EPKmbm
0000000000155b90 T _ZNSt6__ndk15ctypeIcEC2EPKmbm
0000000000155c20 T _ZNSt6__ndk15ctypeIcED0Ev
0000000000155bc8 T _ZNSt6__ndk15ctypeIcED1Ev
0000000000155bc8 T _ZNSt6__ndk15ctypeIcED2Ev
000000000019f610 B _ZNSt6__ndk15ctypeIwE2idE
0000000000155564 T _ZNSt6__ndk15ctypeIwED0Ev
0000000000164568 T _ZNSt6__ndk15ctypeIwED1Ev
0000000000164568 T _ZNSt6__ndk15ctypeIwED2Ev
0000000000121530 T _ZNSt6__ndk15stoldERKNS_12basic_stringIcNS_11char_traitsIcEENS_9allocatorIcEEEEPm
0000000000122034 T _ZNSt6__ndk15stoldERKNS_12basic_stringIwNS_11char_traitsIwEENS_9allocatorIwEEEEPm
0000000000120fcc T _ZNSt6__ndk15stollERKNS_12basic_stringIcNS_11char_traitsIcEENS_9allocatorIcEEEEPmi
0000000000121a88 T _ZNSt6__ndk15stollERKNS_12basic_stringIwNS_11char_traitsIwEENS_9allocatorIwEEEEPmi
0000000000120e64 T _ZNSt6__ndk15stoulERKNS_12basic_stringIcNS_11char_traitsIcEENS_9allocatorIcEEEEPmi
000000000012190c T _ZNSt6__ndk15stoulERKNS_12basic_stringIwNS_11char_traitsIwEENS_9allocatorIwEEEEPmi
00000000000be4dc W _ZNSt6__ndk15tupleIJONS_12basic_stringIcNS_11char_traitsIcEENS_9allocatorIcEEEEEEC2B8ne210000IJS6_ETnNS_9enable_ifIXsr4_AndINS_17integral_constantIbXeqsZT_sZT_EEENS8_17_EnableUTypesCtorIJDpT_EEEEE5valueEiE4typeELi0EEEDpOSE_
00000000000c2a00 W _ZNSt6__ndk15tupleIJONS_17basic_string_viewIcNS_11char_traitsIcEEEEEEC2B8ne210000IJS4_ETnNS_9enable_ifIXsr4_AndINS_17integral_constantIbXeqsZT_sZT_EEENS6_17_EnableUTypesCtorIJDpT_EEEEE5valueEiE4typeELi0EEEDpOSC_
00000000000ce47c W _ZNSt6__ndk15tupleIJRKNS_12basic_stringIcNS_11char_traitsIcEENS_9allocatorIcEEEEEEC2B8ne210000INS_4_AndETnNS_9enable_ifIXsrT_IJNS_17integral_constantIbLb1EEENS_21is_copy_constructibleIS8_EEEE5valueEiE4typeELi0EEES8_
0000000000137988 T _ZNSt6__ndk16__clocEv
00000000000bd818 W _ZNSt6__ndk16__treeINS_12__value_typeINS_12basic_stringIcNS_11char_traitsIcEENS_9allocatorIcEEEES7_EENS_19__map_value_compareIS7_S8_NS_4lessIS7_EELb1EEENS5_IS8_EEE12__find_equalIS7_EERPNS_16__tree_node_baseIPvEERPNS_15__tree_end_nodeISJ_EERKT_
00000000000cdde0 W _ZNSt6__ndk16__treeINS_12__value_typeINS_12basic_stringIcNS_11char_traitsIcEENS_9allocatorIcEEEES7_EENS_19__map_value_compareIS7_S8_NS_4lessIS7_EELb1EEENS5_IS8_EEE13__lower_boundIS7_EENS_15__tree_iteratorIS8_PNS_11__tree_nodeIS8_PvEElEERKT_SK_PNS_15__tree_end_nodeIPNS_16__tree_node_baseISI_EEEE
00000000000bd984 W _ZNSt6__ndk16__treeINS_12__value_typeINS_12basic_stringIcNS_11char_traitsIcEENS_9allocatorIcEEEES7_EENS_19__map_value_compareIS7_S8_NS_4lessIS7_EELb1EEENS5_IS8_EEE16__construct_nodeIJRKNS_21piecewise_construct_tENS_5tupleIJOS7_EEENSJ_IJEEEEEENS_10unique_ptrINS_11__tree_nodeIS8_PvEENS_22__tree_node_destructorINS5_ISQ_EEEEEEDpOT_
00000000000ce168 W _ZNSt6__ndk16__treeINS_12__value_typeINS_12basic_stringIcNS_11char_traitsIcEENS_9allocatorIcEEEES7_EENS_19__map_value_compareIS7_S8_NS_4lessIS7_EELb1EEENS5_IS8_EEE16__construct_nodeIJRKNS_21piecewise_construct_tENS_5tupleIJRKS7_EEENSJ_IJEEEEEENS_10unique_ptrINS_11__tree_nodeIS8_PvEENS_22__tree_node_destructorINS5_ISR_EEEEEEDpOT_
00000000000bd62c W _ZNSt6__ndk16__treeINS_12__value_typeINS_12basic_stringIcNS_11char_traitsIcEENS_9allocatorIcEEEES7_EENS_19__map_value_compareIS7_S8_NS_4lessIS7_EELb1EEENS5_IS8_EEE25__emplace_unique_key_argsIS7_JRKNS_21piecewise_construct_tENS_5tupleIJOS7_EEENSJ_IJEEEEEENS_4pairINS_15__tree_iteratorIS8_PNS_11__tree_nodeIS8_PvEElEEbEERKT_DpOT0_
00000000000cdfd0 W _ZNSt6__ndk16__treeINS_12__value_typeINS_12basic_stringIcNS_11char_traitsIcEENS_9allocatorIcEEEES7_EENS_19__map_value_compareIS7_S8_NS_4lessIS7_EELb1EEENS5_IS8_EEE25__emplace_unique_key_argsIS7_JRKNS_21piecewise_construct_tENS_5tupleIJRKS7_EEENSJ_IJEEEEEENS_4pairINS_15__tree_iteratorIS8_PNS_11__tree_nodeIS8_PvEElEEbEERKT_DpOT0_
00000000000cdc6c W _ZNSt6__ndk16__treeINS_12__value_typeINS_12basic_stringIcNS_11char_traitsIcEENS_9allocatorIcEEEES7_EENS_19__map_value_compareIS7_S8_NS_4lessIS7_EELb1EEENS5_IS8_EEE4findIS7_EENS_15__tree_iteratorIS8_PNS_11__tree_nodeIS8_PvEElEERKT_
00000000000bc490 W _ZNSt6__ndk16__treeINS_12basic_stringIcNS_11char_traitsIcEENS_9allocatorIcEEEENS_4lessIS6_EENS4_IS6_EEE12__find_equalIS6_EERPNS_16__tree_node_baseIPvEERPNS_15__tree_end_nodeISF_EERKT_
00000000000bc5fc W _ZNSt6__ndk16__treeINS_12basic_stringIcNS_11char_traitsIcEENS_9allocatorIcEEEENS_4lessIS6_EENS4_IS6_EEE16__construct_nodeIJS6_EEENS_10unique_ptrINS_11__tree_nodeIS6_PvEENS_22__tree_node_destructorINS4_ISF_EEEEEEDpOT_
00000000000bc354 W _ZNSt6__ndk16__treeINS_12basic_stringIcNS_11char_traitsIcEENS_9allocatorIcEEEENS_4lessIS6_EENS4_IS6_EEE25__emplace_unique_key_argsIS6_JS6_EEENS_4pairINS_15__tree_iteratorIS6_PNS_11__tree_nodeIS6_PvEElEEbEERKT_DpOT0_
00000000000d7f3c W _ZNSt6__ndk16__treeIjNS_4lessIjEENS_9allocatorIjEEE12__find_equalIjEERPNS_16__tree_node_baseIPvEERPNS_15__tree_end_nodeISA_EERKT_
00000000000d80a8 W _ZNSt6__ndk16__treeIjNS_4lessIjEENS_9allocatorIjEEE16__construct_nodeIJRKjEEENS_10unique_ptrINS_11__tree_nodeIjPvEENS_22__tree_node_destructorINS3_ISC_EEEEEEDpOT_
00000000000d7e00 W _ZNSt6__ndk16__treeIjNS_4lessIjEENS_9allocatorIjEEE25__emplace_unique_key_argsIjJRKjEEENS_4pairINS_15__tree_iteratorIjPNS_11__tree_nodeIjPvEElEEbEERKT_DpOT0_
00000000000e96a0 W _ZNSt6__ndk16__treeImNS_4lessImEENS_9allocatorImEEE12__find_equalImEERPNS_16__tree_node_baseIPvEERPNS_15__tree_end_nodeISA_EERKT_
00000000000e980c W _ZNSt6__ndk16__treeImNS_4lessImEENS_9allocatorImEEE16__construct_nodeIJmEEENS_10unique_ptrINS_11__tree_nodeImPvEENS_22__tree_node_destructorINS3_ISA_EEEEEEDpOT_
00000000000e9564 W _ZNSt6__ndk16__treeImNS_4lessImEENS_9allocatorImEEE25__emplace_unique_key_argsImJmEEENS_4pairINS_15__tree_iteratorImPNS_11__tree_nodeImPvEElEEbEERKT_DpOT0_
00000000001543b8 T _ZNSt6__ndk16locale14__install_ctorERKS0_PNS0_5facetEl
0000000000154704 T _ZNSt6__ndk16locale2id5__getEv
000000000019f608 B _ZNSt6__ndk16locale2id9__next_idE
0000000000074734 R _ZNSt6__ndk16locale3allE
0000000000074718 R _ZNSt6__ndk16locale4noneE
000000000007472c R _ZNSt6__ndk16locale4timeE
0000000000074720 R _ZNSt6__ndk16locale5ctypeE
00000000001548e0 T _ZNSt6__ndk16locale5facet16__on_zero_sharedEv
00000000001548b0 T _ZNSt6__ndk16locale5facetD0Ev
0000000000164568 T _ZNSt6__ndk16locale5facetD1Ev
0000000000164568 T _ZNSt6__ndk16locale5facetD2Ev
0000000000154454 T _ZNSt6__ndk16locale6globalERKS0_
000000000014e6c0 T _ZNSt6__ndk16locale7classicEv
000000000007471c R _ZNSt6__ndk16locale7collateE
0000000000074728 R _ZNSt6__ndk16locale7numericE
0000000000153c9c T _ZNSt6__ndk16locale8__globalEv
0000000000074730 R _ZNSt6__ndk16locale8messagesE
0000000000074724 R _ZNSt6__ndk16locale8monetaryE
0000000000153f88 T _ZNSt6__ndk16localeC1EPKc
00000000001540c8 T _ZNSt6__ndk16localeC1ERKNS_12basic_stringIcNS_11char_traitsIcEENS_9allocatorIcEEEE
0000000000153e60 T _ZNSt6__ndk16localeC1ERKS0_
0000000000154138 T _ZNSt6__ndk16localeC1ERKS0_PKci
0000000000154290 T _ZNSt6__ndk16localeC1ERKS0_RKNS_12basic_stringIcNS_11char_traitsIcEENS_9allocatorIcEEEEi
000000000015430c T _ZNSt6__ndk16localeC1ERKS0_S2_i
0000000000153db8 T _ZNSt6__ndk16localeC1Ev
0000000000153f88 T _ZNSt6__ndk16localeC2EPKc
00000000001540c8 T _ZNSt6__ndk16localeC2ERKNS_12basic_stringIcNS_11char_traitsIcEENS_9allocatorIcEEEE
0000000000153e60 T _ZNSt6__ndk16localeC2ERKS0_
0000000000154138 T _ZNSt6__ndk16localeC2ERKS0_PKci
0000000000154290 T _ZNSt6__ndk16localeC2ERKS0_RKNS_12basic_stringIcNS_11char_traitsIcEENS_9allocatorIcEEEEi
000000000015430c T _ZNSt6__ndk16localeC2ERKS0_S2_i
0000000000153db8 T _ZNSt6__ndk16localeC2Ev
0000000000153ea0 T _ZNSt6__ndk16localeD1Ev
0000000000153ea0 T _ZNSt6__ndk16localeD2Ev
0000000000153f00 T _ZNSt6__ndk16localeaSERKS0_
0000000000121134 T _ZNSt6__ndk16stoullERKNS_12basic_stringIcNS_11char_traitsIcEENS_9allocatorIcEEEEPmi
0000000000121c04 T _ZNSt6__ndk16stoullERKNS_12basic_stringIwNS_11char_traitsIwEENS_9allocatorIwEEEEPmi
00000000000d5928 W _ZNSt6__ndk16vectorI10Elf32_PhdrNS_9allocatorIS1_EEE12emplace_backIJRKS1_EEERS1_DpOT_
00000000000d600c W _ZNSt6__ndk16vectorI10Elf32_PhdrNS_9allocatorIS1_EEE18__construct_at_endINS_11__wrap_iterIPS1_EES8_EEvT_T0_m
00000000000d5c18 W _ZNSt6__ndk16vectorI10Elf32_PhdrNS_9allocatorIS1_EEE18__insert_with_sizeB8ne210000INS_11__wrap_iterIPS1_EES8_EES8_NS6_IPKS1_EET_T0_l
00000000000d59b0 W _ZNSt6__ndk16vectorI10Elf32_PhdrNS_9allocatorIS1_EEE22__construct_one_at_endB8ne210000IJRKS1_EEEvDpOT_
00000000000d5a8c W _ZNSt6__ndk16vectorI10Elf32_PhdrNS_9allocatorIS1_EEE24__emplace_back_slow_pathIJRKS1_EEEPS1_DpOT_
00000000000d3730 W _ZNSt6__ndk16vectorI10Elf32_PhdrNS_9allocatorIS1_EEE26__add_alignment_assumptionB8ne210000IPS1_TnNS_9enable_ifIXsr10is_pointerIT_EE5valueEiE4typeELi0EEES6_S8_
00000000000d54cc W _ZNSt6__ndk16vectorI10Elf32_PhdrNS_9allocatorIS1_EEE6insertB8ne210000INS_11__wrap_iterIPS1_EETnNS_9enable_ifIXaasr31__has_forward_iterator_categoryIT_EE5valuesr16is_constructibleIS1_NS_15iterator_traitsISA_E9referenceEEE5valueEiE4typeELi0EEES8_NS6_IPKS1_EESA_SA_
00000000000f6264 W _ZNSt6__ndk16vectorI10Elf32_ShdrNS_9allocatorIS1_EEE12emplace_backIJRKS1_EEERS1_DpOT_
00000000000f62ec W _ZNSt6__ndk16vectorI10Elf32_ShdrNS_9allocatorIS1_EEE22__construct_one_at_endB8ne210000IJRKS1_EEEvDpOT_
00000000000f63c8 W _ZNSt6__ndk16vectorI10Elf32_ShdrNS_9allocatorIS1_EEE24__emplace_back_slow_pathIJRKS1_EEEPS1_DpOT_
00000000000d3b78 W _ZNSt6__ndk16vectorI10Elf32_ShdrNS_9allocatorIS1_EEE26__add_alignment_assumptionB8ne210000IPS1_TnNS_9enable_ifIXsr10is_pointerIT_EE5valueEiE4typeELi0EEES6_S8_
0000000000102704 W _ZNSt6__ndk16vectorI10Elf64_PhdrNS_9allocatorIS1_EEE12emplace_backIJRKS1_EEERS1_DpOT_
0000000000102e44 W _ZNSt6__ndk16vectorI10Elf64_PhdrNS_9allocatorIS1_EEE18__construct_at_endINS_11__wrap_iterIPS1_EES8_EEvT_T0_m
00000000001029f8 W _ZNSt6__ndk16vectorI10Elf64_PhdrNS_9allocatorIS1_EEE18__insert_with_sizeB8ne210000INS_11__wrap_iterIPS1_EES8_EES8_NS6_IPKS1_EET_T0_l
000000000010278c W _ZNSt6__ndk16vectorI10Elf64_PhdrNS_9allocatorIS1_EEE22__construct_one_at_endB8ne210000IJRKS1_EEEvDpOT_
0000000000102868 W _ZNSt6__ndk16vectorI10Elf64_PhdrNS_9allocatorIS1_EEE24__emplace_back_slow_pathIJRKS1_EEEPS1_DpOT_
0000000000100fa4 W _ZNSt6__ndk16vectorI10Elf64_PhdrNS_9allocatorIS1_EEE26__add_alignment_assumptionB8ne210000IPS1_TnNS_9enable_ifIXsr10is_pointerIT_EE5valueEiE4typeELi0EEES6_S8_
00000000001022f4 W _ZNSt6__ndk16vectorI10Elf64_PhdrNS_9allocatorIS1_EEE6insertB8ne210000INS_11__wrap_iterIPS1_EETnNS_9enable_ifIXaasr31__has_forward_iterator_categoryIT_EE5valuesr16is_constructibleIS1_NS_15iterator_traitsISA_E9referenceEEE5valueEiE4typeELi0EEES8_NS6_IPKS1_EESA_SA_
0000000000119cec W _ZNSt6__ndk16vectorI10Elf64_ShdrNS_9allocatorIS1_EEE12emplace_backIJRKS1_EEERS1_DpOT_
0000000000119d74 W _ZNSt6__ndk16vectorI10Elf64_ShdrNS_9allocatorIS1_EEE22__construct_one_at_endB8ne210000IJRKS1_EEEvDpOT_
0000000000119e50 W _ZNSt6__ndk16vectorI10Elf64_ShdrNS_9allocatorIS1_EEE24__emplace_back_slow_pathIJRKS1_EEEPS1_DpOT_
000000000010133c W _ZNSt6__ndk16vectorI10Elf64_ShdrNS_9allocatorIS1_EEE26__add_alignment_assumptionB8ne210000IPS1_TnNS_9enable_ifIXsr10is_pointerIT_EE5valueEiE4typeELi0EEES6_S8_
00000000000f35b4 W _ZNSt6__ndk16vectorI9Elf32_SymNS_9allocatorIS1_EEE16__init_with_sizeB8ne210000IPS1_S6_EEvT_T0_m
00000000000f3804 W _ZNSt6__ndk16vectorI9Elf32_SymNS_9allocatorIS1_EEE18__construct_at_endIPS1_S6_EEvT_T0_m
00000000000f344c W _ZNSt6__ndk16vectorI9Elf32_SymNS_9allocatorIS1_EEEC2B8ne210000IPS1_TnNS_9enable_ifIXaasr31__has_forward_iterator_categoryIT_EE5valuesr16is_constructibleIS1_NS_15iterator_traitsIS8_E9referenceEEE5valueEiE4typeELi0EEES8_S8_
00000000001184d0 W _ZNSt6__ndk16vectorI9Elf64_SymNS_9allocatorIS1_EEE16__init_with_sizeB8ne210000IPS1_S6_EEvT_T0_m
0000000000118728 W _ZNSt6__ndk16vectorI9Elf64_SymNS_9allocatorIS1_EEE18__construct_at_endIPS1_S6_EEvT_T0_m
0000000000118360 W _ZNSt6__ndk16vectorI9Elf64_SymNS_9allocatorIS1_EEEC2B8ne210000IPS1_TnNS_9enable_ifIXaasr31__has_forward_iterator_categoryIT_EE5valuesr16is_constructibleIS1_NS_15iterator_traitsIS8_E9referenceEEE5valueEiE4typeELi0EEES8_S8_
00000000000bac04 W _ZNSt6__ndk16vectorINS_12basic_stringIcNS_11char_traitsIcEENS_9allocatorIcEEEENS4_IS6_EEE12emplace_backIJNS_17basic_string_viewIcS3_EEEEERS6_DpOT_
00000000000c41a4 W _ZNSt6__ndk16vectorINS_12basic_stringIcNS_11char_traitsIcEENS_9allocatorIcEEEENS4_IS6_EEE12emplace_backIJRKS6_EEERS6_DpOT_
00000000000badac W _ZNSt6__ndk16vectorINS_12basic_stringIcNS_11char_traitsIcEENS_9allocatorIcEEEENS4_IS6_EEE12emplace_backIJRNS_17basic_string_viewIcS3_EEEEERS6_DpOT_
00000000000e419c W _ZNSt6__ndk16vectorINS_12basic_stringIcNS_11char_traitsIcEENS_9allocatorIcEEEENS4_IS6_EEE12emplace_backIJS6_EEERS6_DpOT_
00000000000bb00c W _ZNSt6__ndk16vectorINS_12basic_stringIcNS_11char_traitsIcEENS_9allocatorIcEEEENS4_IS6_EEE22__construct_one_at_endB8ne210000IJNS_17basic_string_viewIcS3_EEEEEvDpOT_
00000000000c422c W _ZNSt6__ndk16vectorINS_12basic_stringIcNS_11char_traitsIcEENS_9allocatorIcEEEENS4_IS6_EEE22__construct_one_at_endB8ne210000IJRKS6_EEEvDpOT_
00000000000bbd8c W _ZNSt6__ndk16vectorINS_12basic_stringIcNS_11char_traitsIcEENS_9allocatorIcEEEENS4_IS6_EEE22__construct_one_at_endB8ne210000IJRNS_17basic_string_viewIcS3_EEEEEvDpOT_
00000000000e4224 W _ZNSt6__ndk16vectorINS_12basic_stringIcNS_11char_traitsIcEENS_9allocatorIcEEEENS4_IS6_EEE22__construct_one_at_endB8ne210000IJS6_EEEvDpOT_
00000000000bb0e8 W _ZNSt6__ndk16vectorINS_12basic_stringIcNS_11char_traitsIcEENS_9allocatorIcEEEENS4_IS6_EEE24__emplace_back_slow_pathIJNS_17basic_string_viewIcS3_EEEEEPS6_DpOT_
00000000000c4308 W _ZNSt6__ndk16vectorINS_12basic_stringIcNS_11char_traitsIcEENS_9allocatorIcEEEENS4_IS6_EEE24__emplace_back_slow_pathIJRKS6_EEEPS6_DpOT_
00000000000bbe68 W _ZNSt6__ndk16vectorINS_12basic_stringIcNS_11char_traitsIcEENS_9allocatorIcEEEENS4_IS6_EEE24__emplace_back_slow_pathIJRNS_17basic_string_viewIcS3_EEEEEPS6_DpOT_
00000000000e4300 W _ZNSt6__ndk16vectorINS_12basic_stringIcNS_11char_traitsIcEENS_9allocatorIcEEEENS4_IS6_EEE24__emplace_back_slow_pathIJS6_EEEPS6_DpOT_
00000000000c6d48 W _ZNSt6__ndk16vectorINS_12basic_stringIcNS_11char_traitsIcEENS_9allocatorIcEEEENS4_IS6_EEE26__add_alignment_assumptionB8ne210000IPS6_TnNS_9enable_ifIXsr10is_pointerIT_EE5valueEiE4typeELi0EEESA_SC_
00000000000efa90 W _ZNSt6__ndk16vectorIZN7ElfFileI10Elf32_Ehdr10Elf32_Phdr10Elf32_Shdrjj9Elf32_Dyn9Elf32_Symt12Elf32_Verdef13Elf32_Verdaux13Elf32_Verneed13Elf32_Vernaux9Elf32_Rel10Elf32_RelaLj32EE19rebuildGnuHashTableE4spanIcESE_IS6_EE5EntryNS_9allocatorISH_EEE12emplace_backIJRKSH_EEERSH_DpOT_
00000000000efb18 W _ZNSt6__ndk16vectorIZN7ElfFileI10Elf32_Ehdr10Elf32_Phdr10Elf32_Shdrjj9Elf32_Dyn9Elf32_Symt12Elf32_Verdef13Elf32_Verdaux13Elf32_Verneed13Elf32_Vernaux9Elf32_Rel10Elf32_RelaLj32EE19rebuildGnuHashTableE4spanIcESE_IS6_EE5EntryNS_9allocatorISH_EEE22__construct_one_at_endB8ne210000IJRKSH_EEEvDpOT_
00000000000efbf4 W _ZNSt6__ndk16vectorIZN7ElfFileI10Elf32_Ehdr10Elf32_Phdr10Elf32_Shdrjj9Elf32_Dyn9Elf32_Symt12Elf32_Verdef13Elf32_Verdaux13Elf32_Verneed13Elf32_Vernaux9Elf32_Rel10Elf32_RelaLj32EE19rebuildGnuHashTableE4spanIcESE_IS6_EE5EntryNS_9allocatorISH_EEE24__emplace_back_slow_pathIJRKSH_EEEPSH_DpOT_
00000000000f2b2c W _ZNSt6__ndk16vectorIZN7ElfFileI10Elf32_Ehdr10Elf32_Phdr10Elf32_Shdrjj9Elf32_Dyn9Elf32_Symt12Elf32_Verdef13Elf32_Verdaux13Elf32_Verneed13Elf32_Vernaux9Elf32_Rel10Elf32_RelaLj32EE19rebuildGnuHashTableE4spanIcESE_IS6_EE5EntryNS_9allocatorISH_EEE26__add_alignment_assumptionB8ne210000IPSH_TnNS_9enable_ifIXsr10is_pointerIT_EE5valueEiE4typeELi0EEESM_SO_
0000000000115328 W _ZNSt6__ndk16vectorIZN7ElfFileI10Elf64_Ehdr10Elf64_Phdr10Elf64_Shdrmm9Elf64_Dyn9Elf64_Symt12Elf64_Verdef13Elf64_Verdaux13Elf64_Verneed13Elf64_Vernaux9Elf64_Rel10Elf64_RelaLj64EE19rebuildGnuHashTableE4spanIcESE_IS6_EE5EntryNS_9allocatorISH_EEE12emplace_backIJRKSH_EEERSH_DpOT_
00000000001153b0 W _ZNSt6__ndk16vectorIZN7ElfFileI10Elf64_Ehdr10Elf64_Phdr10Elf64_Shdrmm9Elf64_Dyn9Elf64_Symt12Elf64_Verdef13Elf64_Verdaux13Elf64_Verneed13Elf64_Vernaux9Elf64_Rel10Elf64_RelaLj64EE19rebuildGnuHashTableE4spanIcESE_IS6_EE5EntryNS_9allocatorISH_EEE22__construct_one_at_endB8ne210000IJRKSH_EEEvDpOT_
000000000011548c W _ZNSt6__ndk16vectorIZN7ElfFileI10Elf64_Ehdr10Elf64_Phdr10Elf64_Shdrmm9Elf64_Dyn9Elf64_Symt12Elf64_Verdef13Elf64_Verdaux13Elf64_Verneed13Elf64_Vernaux9Elf64_Rel10Elf64_RelaLj64EE19rebuildGnuHashTableE4spanIcESE_IS6_EE5EntryNS_9allocatorISH_EEE24__emplace_back_slow_pathIJRKSH_EEEPSH_DpOT_
000000000011832c W _ZNSt6__ndk16vectorIZN7ElfFileI10Elf64_Ehdr10Elf64_Phdr10Elf64_Shdrmm9Elf64_Dyn9Elf64_Symt12Elf64_Verdef13Elf64_Verdaux13Elf64_Verneed13Elf64_Vernaux9Elf64_Rel10Elf64_RelaLj64EE19rebuildGnuHashTableE4spanIcESE_IS6_EE5EntryNS_9allocatorISH_EEE26__add_alignment_assumptionB8ne210000IPSH_TnNS_9enable_ifIXsr10is_pointerIT_EE5valueEiE4typeELi0EEESM_SO_
00000000000ec3b0 W _ZNSt6__ndk16vectorIcNS_9allocatorIcEEE18__construct_at_endINS_11__wrap_iterIPKcEES8_EEvT_T0_m
00000000000ec00c W _ZNSt6__ndk16vectorIcNS_9allocatorIcEEE18__insert_with_sizeB8ne210000INS_11__wrap_iterIPKcEES8_EENS5_IPcEES8_T_T0_l
00000000000edacc W _ZNSt6__ndk16vectorIcNS_9allocatorIcEEE26__add_alignment_assumptionB8ne210000IPcTnNS_9enable_ifIXsr10is_pointerIT_EE5valueEiE4typeELi0EEES5_S7_
00000000000ea688 W _ZNSt6__ndk16vectorIcNS_9allocatorIcEEE6insertB8ne210000INS_11__wrap_iterIPKcEETnNS_9enable_ifIXaasr31__has_forward_iterator_categoryIT_EE5valuesr16is_constructibleIcNS_15iterator_traitsISA_E9referenceEEE5valueEiE4typeELi0EEENS5_IPcEES8_SA_SA_
00000000000f46d4 W _ZNSt6__ndk16vectorItNS_9allocatorItEEE16__init_with_sizeB8ne210000IPtS5_EEvT_T0_m
00000000000f4924 W _ZNSt6__ndk16vectorItNS_9allocatorItEEE18__construct_at_endIPtS5_EEvT_T0_m
00000000000f456c W _ZNSt6__ndk16vectorItNS_9allocatorItEEEC2B8ne210000IPtTnNS_9enable_ifIXaasr31__has_forward_iterator_categoryIT_EE5valuesr16is_constructibleItNS_15iterator_traitsIS7_E9referenceEEE5valueEiE4typeELi0EEES7_S7_
000000000019f680 B _ZNSt6__ndk17codecvtIDiDu9mbstate_tE2idE
0000000000158b54 T _ZNSt6__ndk17codecvtIDiDu9mbstate_tED0Ev
0000000000164568 T _ZNSt6__ndk17codecvtIDiDu9mbstate_tED1Ev
0000000000164568 T _ZNSt6__ndk17codecvtIDiDu9mbstate_tED2Ev
000000000019f670 B _ZNSt6__ndk17codecvtIDic9mbstate_tE2idE
000000000015839c T _ZNSt6__ndk17codecvtIDic9mbstate_tED0Ev
0000000000164568 T _ZNSt6__ndk17codecvtIDic9mbstate_tED1Ev
0000000000164568 T _ZNSt6__ndk17codecvtIDic9mbstate_tED2Ev
000000000019f660 B _ZNSt6__ndk17codecvtIDsDu9mbstate_tE2idE
0000000000158254 T _ZNSt6__ndk17codecvtIDsDu9mbstate_tED0Ev
0000000000164568 T _ZNSt6__ndk17codecvtIDsDu9mbstate_tED1Ev
0000000000164568 T _ZNSt6__ndk17codecvtIDsDu9mbstate_tED2Ev
000000000019f650 B _ZNSt6__ndk17codecvtIDsc9mbstate_tE2idE
0000000000157a40 T _ZNSt6__ndk17codecvtIDsc9mbstate_tED0Ev
0000000000164568 T _ZNSt6__ndk17codecvtIDsc9mbstate_tED1Ev
0000000000164568 T _ZNSt6__ndk17codecvtIDsc9mbstate_tED2Ev
000000000019f630 B _ZNSt6__ndk17codecvtIcc9mbstate_tE2idE
0000000000156f58 T _ZNSt6__ndk17codecvtIcc9mbstate_tED0Ev
0000000000164568 T _ZNSt6__ndk17codecvtIcc9mbstate_tED1Ev
0000000000164568 T _ZNSt6__ndk17codecvtIcc9mbstate_tED2Ev
000000000019f640 B _ZNSt6__ndk17codecvtIwc9mbstate_tE2idE
00000000001570a4 T _ZNSt6__ndk17codecvtIwc9mbstate_tEC1EPKcm
0000000000156ff8 T _ZNSt6__ndk17codecvtIwc9mbstate_tEC1Em
00000000001570a4 T _ZNSt6__ndk17codecvtIwc9mbstate_tEC2EPKcm
0000000000156ff8 T _ZNSt6__ndk17codecvtIwc9mbstate_tEC2Em
000000000015718c T _ZNSt6__ndk17codecvtIwc9mbstate_tED0Ev
00000000001639a0 T _ZNSt6__ndk17codecvtIwc9mbstate_tED1Ev
00000000001639a0 T _ZNSt6__ndk17codecvtIwc9mbstate_tED2Ev
000000000019f360 V _ZNSt6__ndk17collateIcE2idE
0000000000132f1c W _ZNSt6__ndk17collateIcED0Ev
0000000000132f14 W _ZNSt6__ndk17collateIcED1Ev
0000000000132f14 W _ZNSt6__ndk17collateIcED2Ev
000000000019f370 V _ZNSt6__ndk17collateIwE2idE
000000000013309c W _ZNSt6__ndk17collateIwED0Ev
0000000000133094 W _ZNSt6__ndk17collateIwED1Ev
0000000000133094 W _ZNSt6__ndk17collateIwED2Ev
000000000019f380 V _ZNSt6__ndk17num_getIcNS_19istreambuf_iteratorIcNS_11char_traitsIcEEEEE2idE
000000000019f390 V _ZNSt6__ndk17num_getIwNS_19istreambuf_iteratorIwNS_11char_traitsIwEEEEE2idE
000000000019f3a0 V _ZNSt6__ndk17num_putIcNS_19ostreambuf_iteratorIcNS_11char_traitsIcEEEEE2idE
000000000019f3b0 V _ZNSt6__ndk17num_putIwNS_19ostreambuf_iteratorIwNS_11char_traitsIwEEEEE2idE
00000000000dc148 W _ZNSt6__ndk18__invertIRN7ElfFileI10Elf32_Ehdr10Elf32_Phdr10Elf32_Shdrjj9Elf32_Dyn9Elf32_Symt12Elf32_Verdef13Elf32_Verdaux13Elf32_Verneed13Elf32_Vernaux9Elf32_Rel10Elf32_RelaLj32EE8CompPhdrEEclB8ne210000IS3_S3_EEbRKT_RKT0_
00000000000e0da8 W _ZNSt6__ndk18__invertIRN7ElfFileI10Elf32_Ehdr10Elf32_Phdr10Elf32_Shdrjj9Elf32_Dyn9Elf32_Symt12Elf32_Verdef13Elf32_Verdaux13Elf32_Verneed13Elf32_Vernaux9Elf32_Rel10Elf32_RelaLj32EE8CompShdrEEclB8ne210000IS4_S4_EEbRKT_RKT0_
0000000000107f44 W _ZNSt6__ndk18__invertIRN7ElfFileI10Elf64_Ehdr10Elf64_Phdr10Elf64_Shdrmm9Elf64_Dyn9Elf64_Symt12Elf64_Verdef13Elf64_Verdaux13Elf64_Verneed13Elf64_Vernaux9Elf64_Rel10Elf64_RelaLj64EE8CompPhdrEEclB8ne210000IS3_S3_EEbRKT_RKT0_
000000000010cbf4 W _ZNSt6__ndk18__invertIRN7ElfFileI10Elf64_Ehdr10Elf64_Phdr10Elf64_Shdrmm9Elf64_Dyn9Elf64_Symt12Elf64_Verdef13Elf64_Verdaux13Elf64_Verneed13Elf64_Vernaux9Elf64_Rel10Elf64_RelaLj64EE8CompShdrEEclB8ne210000IS4_S4_EEbRKT_RKT0_
000000000011bc40 T _ZNSt6__ndk18__sp_mut4lockEv
000000000011bc64 T _ZNSt6__ndk18__sp_mut6unlockEv
00000000000735a3 V _ZNSt6__ndk18in_placeE
0000000000073f88 R _ZNSt6__ndk18ios_base10floatfieldE
0000000000073f64 R _ZNSt6__ndk18ios_base10scientificE
0000000000073f80 R _ZNSt6__ndk18ios_base11adjustfieldE
00000000001251d8 T _ZNSt6__ndk18ios_base15sync_with_stdioEb
00000000001246cc T _ZNSt6__ndk18ios_base16__call_callbacksENS0_5eventE
0000000000124a20 T _ZNSt6__ndk18ios_base17register_callbackEPFvNS0_5eventERS0_iEi
0000000000073fa8 R _ZNSt6__ndk18ios_base2inE
0000000000125180 T _ZNSt6__ndk18ios_base33__set_badbit_and_consider_rethrowEv
00000000001251ac T _ZNSt6__ndk18ios_base34__set_failbit_and_consider_rethrowEv
0000000000073f9c R _ZNSt6__ndk18ios_base3appE
0000000000073fa0 R _ZNSt6__ndk18ios_base3ateE
0000000000073f48 R _ZNSt6__ndk18ios_base3decE
0000000000073f50 R _ZNSt6__ndk18ios_base3hexE
0000000000073f5c R _ZNSt6__ndk18ios_base3octE
0000000000073fac R _ZNSt6__ndk18ios_base3outE
0000000000124cc4 T _ZNSt6__ndk18ios_base4initEPv
0000000000073f58 R _ZNSt6__ndk18ios_base4leftE
0000000000124fc8 T _ZNSt6__ndk18ios_base4moveERS0_
0000000000125064 T _ZNSt6__ndk18ios_base4swapERS0_
0000000000124be4 T _ZNSt6__ndk18ios_base5clearEj
0000000000073f4c R _ZNSt6__ndk18ios_base5fixedE
0000000000124730 T _ZNSt6__ndk18ios_base5imbueERKNS_6localeE
00000000001247f8 T _ZNSt6__ndk18ios_base5iwordEi
000000000012490c T _ZNSt6__ndk18ios_base5pwordEi
0000000000073f60 R _ZNSt6__ndk18ios_base5rightE
0000000000073fb0 R _ZNSt6__ndk18ios_base5truncE
0000000000073f8c R _ZNSt6__ndk18ios_base6badbitE
0000000000073fa4 R _ZNSt6__ndk18ios_base6binaryE
0000000000073f90 R _ZNSt6__ndk18ios_base6eofbitE
0000000000073f74 R _ZNSt6__ndk18ios_base6skipwsE
00000000001247d0 T _ZNSt6__ndk18ios_base6xallocEv
0000000000124d10 T _ZNSt6__ndk18ios_base7copyfmtERKS0_
0000000000073f94 R _ZNSt6__ndk18ios_base7failbitE
0000000000124654 T _ZNSt6__ndk18ios_base7failureC1EPKcRKNS_10error_codeE
0000000000124614 T _ZNSt6__ndk18ios_base7failureC1ERKNS_12basic_stringIcNS_11char_traitsIcEENS_9allocatorIcEEEERKNS_10error_codeE
0000000000124654 T _ZNSt6__ndk18ios_base7failureC2EPKcRKNS_10error_codeE
0000000000124614 T _ZNSt6__ndk18ios_base7failureC2ERKNS_12basic_stringIcNS_11char_traitsIcEENS_9allocatorIcEEEERKNS_10error_codeE
000000000012469c T _ZNSt6__ndk18ios_base7failureD0Ev
0000000000124694 T _ZNSt6__ndk18ios_base7failureD1Ev
0000000000124694 T _ZNSt6__ndk18ios_base7failureD2Ev
0000000000073f98 R _ZNSt6__ndk18ios_base7goodbitE
0000000000073f70 R _ZNSt6__ndk18ios_base7showposE
0000000000073f78 R _ZNSt6__ndk18ios_base7unitbufE
0000000000073f54 R _ZNSt6__ndk18ios_base8internalE
0000000000073f68 R _ZNSt6__ndk18ios_base8showbaseE
000000000019f338 B _ZNSt6__ndk18ios_base9__xindex_E
0000000000073f84 R _ZNSt6__ndk18ios_base9basefieldE
0000000000073f44 R _ZNSt6__ndk18ios_base9boolalphaE
0000000000073f6c R _ZNSt6__ndk18ios_base9showpointE
0000000000073f7c R _ZNSt6__ndk18ios_base9uppercaseE
0000000000124bb4 T _ZNSt6__ndk18ios_baseD0Ev
0000000000124b00 T _ZNSt6__ndk18ios_baseD1Ev
0000000000124b00 T _ZNSt6__ndk18ios_baseD2Ev
000000000019f480 V _ZNSt6__ndk18messagesIcE2idE
000000000019f490 V _ZNSt6__ndk18messagesIwE2idE
000000000019f690 B _ZNSt6__ndk18numpunctIcE2idE
000000000015ad50 T _ZNSt6__ndk18numpunctIcEC1Em
000000000015ad50 T _ZNSt6__ndk18numpunctIcEC2Em
000000000015ae04 T _ZNSt6__ndk18numpunctIcED0Ev
000000000015adac T _ZNSt6__ndk18numpunctIcED1Ev
000000000015adac T _ZNSt6__ndk18numpunctIcED2Ev
000000000019f6a0 B _ZNSt6__ndk18numpunctIwE2idE
000000000015ad7c T _ZNSt6__ndk18numpunctIwEC1Em
000000000015ad7c T _ZNSt6__ndk18numpunctIwEC2Em
000000000015ae8c T _ZNSt6__ndk18numpunctIwED0Ev
000000000015ae34 T _ZNSt6__ndk18numpunctIwED1Ev
000000000015ae34 T _ZNSt6__ndk18numpunctIwED2Ev
00000000000cbd44 W _ZNSt6__ndk18optionalINS_17reference_wrapperIK10Elf32_ShdrEEEC2B8ne210000IRS3_TnNS_9enable_ifIXclsr22_CheckOptionalArgsCtorIT_EE17__enable_implicitIS9_EEEiE4typeELi0EEEOS9_
00000000000fc14c W _ZNSt6__ndk18optionalINS_17reference_wrapperIK10Elf64_ShdrEEEC2B8ne210000IRS3_TnNS_9enable_ifIXclsr22_CheckOptionalArgsCtorIT_EE17__enable_implicitIS9_EEEiE4typeELi0EEEOS9_
000000000019f3c0 V _ZNSt6__ndk18time_getIcNS_19istreambuf_iteratorIcNS_11char_traitsIcEEEEE2idE
000000000019f3d0 V _ZNSt6__ndk18time_getIwNS_19istreambuf_iteratorIwNS_11char_traitsIwEEEEE2idE
000000000019f3e0 V _ZNSt6__ndk18time_putIcNS_19ostreambuf_iteratorIcNS_11char_traitsIcEEEEE2idE
000000000019f3f0 V _ZNSt6__ndk18time_putIwNS_19ostreambuf_iteratorIwNS_11char_traitsIwEEEEE2idE
00000000001377c8 W _ZNSt6__ndk19__num_getIcE17__stage2_int_loopEciPcRS2_RjcRKNS_12basic_stringIcNS_11char_traitsIcEENS_9allocatorIcEEEEPjRSD_S2_
000000000013c540 W _ZNSt6__ndk19__num_getIcE17__stage2_int_prepERNS_8ios_baseEPcRc
000000000013c2b8 W _ZNSt6__ndk19__num_getIcE19__stage2_float_loopEcRbRcPcRS4_ccRKNS_12basic_stringIcNS_11char_traitsIcEENS_9allocatorIcEEEEPjRSE_RjS4_
000000000013c120 W _ZNSt6__ndk19__num_getIcE19__stage2_float_prepERNS_8ios_baseEPcRcS5_
000000000013bf64 W _ZNSt6__ndk19__num_getIwE17__stage2_int_loopEwiPcRS2_RjwRKNS_12basic_stringIcNS_11char_traitsIcEENS_9allocatorIcEEEEPjRSD_Pw
000000000013cacc W _ZNSt6__ndk19__num_getIwE17__stage2_int_prepERNS_8ios_baseEPwRw
000000000013c858 W _ZNSt6__ndk19__num_getIwE19__stage2_float_loopEwRbRcPcRS4_wwRKNS_12basic_stringIcNS_11char_traitsIcEENS_9allocatorIcEEEEPjRSE_RjPw
000000000013c6c0 W _ZNSt6__ndk19__num_getIwE19__stage2_float_prepERNS_8ios_baseEPwRwS5_
000000000013fb04 W _ZNSt6__ndk19__num_putIcE21__widen_and_group_intEPcS2_S2_S2_RS2_S3_RKNS_6localeE
00000000001401b0 W _ZNSt6__ndk19__num_putIcE23__widen_and_group_floatEPcS2_S2_S2_RS2_S3_RKNS_6localeE
00000000001408e8 W _ZNSt6__ndk19__num_putIwE21__widen_and_group_intEPcS2_S2_PwRS3_S4_RKNS_6localeE
0000000000140f40 W _ZNSt6__ndk19__num_putIwE23__widen_and_group_floatEPcS2_S2_PwRS3_S4_RKNS_6localeE
00000000000d4cd4 W _ZNSt6__ndk19allocatorI10Elf32_PhdrE9constructB8ne210000IS1_JEEEvPT_DpOT0_
00000000000d5be8 W _ZNSt6__ndk19allocatorI10Elf32_PhdrE9constructB8ne210000IS1_JRKS1_EEEvPT_DpOT0_
00000000000d7750 W _ZNSt6__ndk19allocatorI10Elf32_PhdrE9constructB8ne210000IS1_JRS1_EEEvPT_DpOT0_
00000000000d700c W _ZNSt6__ndk19allocatorI10Elf32_PhdrE9constructB8ne210000IS1_JS1_EEEvPT_DpOT0_
00000000000f6590 W _ZNSt6__ndk19allocatorI10Elf32_ShdrE9constructB8ne210000IS1_JRKS1_EEEvPT_DpOT0_
0000000000101ad4 W _ZNSt6__ndk19allocatorI10Elf64_PhdrE9constructB8ne210000IS1_JEEEvPT_DpOT0_
00000000001029c4 W _ZNSt6__ndk19allocatorI10Elf64_PhdrE9constructB8ne210000IS1_JRKS1_EEEvPT_DpOT0_
0000000000104604 W _ZNSt6__ndk19allocatorI10Elf64_PhdrE9constructB8ne210000IS1_JRS1_EEEvPT_DpOT0_
0000000000103e8c W _ZNSt6__ndk19allocatorI10Elf64_PhdrE9constructB8ne210000IS1_JS1_EEEvPT_DpOT0_
000000000011a010 W _ZNSt6__ndk19allocatorI10Elf64_ShdrE9constructB8ne210000IS1_JRKS1_EEEvPT_DpOT0_
00000000000c3680 W _ZNSt6__ndk19allocatorINS_11__hash_nodeINS_12basic_stringIcNS_11char_traitsIcEENS0_IcEEEEPvEEE9constructB8ne210000IS6_JRKS6_EEEvPT_DpOT0_
00000000000e815c W _ZNSt6__ndk19allocatorINS_11__hash_nodeINS_17__hash_value_typeINS_12basic_stringIcNS_11char_traitsIcEENS0_IcEEEEjEEPvEEE9constructB8ne210000INS_4pairIKS7_jEEJRKNS_21piecewise_construct_tENS_5tupleIJRSE_EEENSJ_IJEEEEEEvPT_DpOT0_
000000000011217c W _ZNSt6__ndk19allocatorINS_11__hash_nodeINS_17__hash_value_typeINS_12basic_stringIcNS_11char_traitsIcEENS0_IcEEEEmEEPvEEE9constructB8ne210000INS_4pairIKS7_mEEJRKNS_21piecewise_construct_tENS_5tupleIJRSE_EEENSJ_IJEEEEEEvPT_DpOT0_
00000000000c1de4 W _ZNSt6__ndk19allocatorINS_11__hash_nodeINS_17__hash_value_typeINS_17basic_string_viewIcNS_11char_traitsIcEEEENS_12basic_stringIcS5_NS0_IcEEEEEEPvEEE9constructB8ne210000INS_4pairIKS6_S9_EEJRKNS_21piecewise_construct_tENS_5tupleIJOS6_EEENSL_IJEEEEEEvPT_DpOT0_
00000000000be090 W _ZNSt6__ndk19allocatorINS_11__tree_nodeINS_12__value_typeINS_12basic_stringIcNS_11char_traitsIcEENS0_IcEEEES7_EEPvEEE9constructB8ne210000INS_4pairIKS7_S7_EEJRKNS_21piecewise_construct_tENS_5tupleIJOS7_EEENSJ_IJEEEEEEvPT_DpOT0_
00000000000ce300 W _ZNSt6__ndk19allocatorINS_11__tree_nodeINS_12__value_typeINS_12basic_stringIcNS_11char_traitsIcEENS0_IcEEEES7_EEPvEEE9constructB8ne210000INS_4pairIKS7_S7_EEJRKNS_21piecewise_construct_tENS_5tupleIJRSE_EEENSJ_IJEEEEEEvPT_DpOT0_
00000000000bce4c W _ZNSt6__ndk19allocatorINS_11__tree_nodeINS_12basic_stringIcNS_11char_traitsIcEENS0_IcEEEEPvEEE9constructB8ne210000IS6_JS6_EEEvPT_DpOT0_
00000000000d8610 W _ZNSt6__ndk19allocatorINS_11__tree_nodeIjPvEEE9constructB8ne210000IjJRKjEEEvPT_DpOT0_
00000000000e9dfc W _ZNSt6__ndk19allocatorINS_11__tree_nodeImPvEEE9constructB8ne210000ImJmEEEvPT_DpOT0_
00000000000f71d0 W _ZNSt6__ndk19allocatorINS_12basic_stringIcNS_11char_traitsIcEENS0_IcEEEEE9constructB8ne210000IS5_JEEEvPT_DpOT0_
00000000000bb2c4 W _ZNSt6__ndk19allocatorINS_12basic_stringIcNS_11char_traitsIcEENS0_IcEEEEE9constructB8ne210000IS5_JNS_17basic_string_viewIcS3_EEEEEvPT_DpOT0_
00000000000c4464 W _ZNSt6__ndk19allocatorINS_12basic_stringIcNS_11char_traitsIcEENS0_IcEEEEE9constructB8ne210000IS5_JRKS5_EEEvPT_DpOT0_
00000000000bbfc4 W _ZNSt6__ndk19allocatorINS_12basic_stringIcNS_11char_traitsIcEENS0_IcEEEEE9constructB8ne210000IS5_JRNS_17basic_string_viewIcS3_EEEEEvPT_DpOT0_
00000000000e445c W _ZNSt6__ndk19allocatorINS_12basic_stringIcNS_11char_traitsIcEENS0_IcEEEEE9constructB8ne210000IS5_JS5_EEEvPT_DpOT0_
00000000000b9670 W _ZNSt6__ndk19allocatorINS_20__shared_ptr_emplaceINS_6vectorIhNS0_IhEEEENS0_IS4_EEEEEC2B8ne210000IS4_EERKNS0_IT_EE
00000000000b9a30 W _ZNSt6__ndk19allocatorINS_6vectorIhNS0_IhEEEEE9constructB8ne210000IS3_JRmEEEvPT_DpOT0_
00000000000efdbc W _ZNSt6__ndk19allocatorIZN7ElfFileI10Elf32_Ehdr10Elf32_Phdr10Elf32_Shdrjj9Elf32_Dyn9Elf32_Symt12Elf32_Verdef13Elf32_Verdaux13Elf32_Verneed13Elf32_Vernaux9Elf32_Rel10Elf32_RelaLj32EE19rebuildGnuHashTableE4spanIcESE_IS6_EE5EntryE9constructB8ne210000ISH_JRKSH_EEEvPT_DpOT0_
0000000000115654 W _ZNSt6__ndk19allocatorIZN7ElfFileI10Elf64_Ehdr10Elf64_Phdr10Elf64_Shdrmm9Elf64_Dyn9Elf64_Symt12Elf64_Verdef13Elf64_Verdaux13Elf64_Verneed13Elf64_Vernaux9Elf64_Rel10Elf64_RelaLj64EE19rebuildGnuHashTableE4spanIcESE_IS6_EE5EntryE9constructB8ne210000ISH_JRKSH_EEEvPT_DpOT0_
00000000000ecf68 W _ZNSt6__ndk19allocatorIcE9constructB8ne210000IcJRKcEEEvPT_DpOT0_
00000000000ed2e8 W _ZNSt6__ndk19allocatorIcE9constructB8ne210000IcJcEEEvPT_DpOT0_
00000000000ba11c W _ZNSt6__ndk19allocatorIhE9constructB8ne210000IhJEEEvPT_DpOT0_
00000000000d4384 W _ZNSt6__ndk19allocatorIhE9constructB8ne210000IhJRKhEEEvPT_DpOT0_
00000000000f30f4 W _ZNSt6__ndk19allocatorIjE9constructB8ne210000IjJEEEvPT_DpOT0_
0000000000125ed0 W _ZNSt6__ndk19basic_iosIcNS_11char_traitsIcEEE7copyfmtERKS3_
0000000000125ea0 W _ZNSt6__ndk19basic_iosIcNS_11char_traitsIcEEED0Ev
0000000000125e98 W _ZNSt6__ndk19basic_iosIcNS_11char_traitsIcEEED1Ev
0000000000125e98 W _ZNSt6__ndk19basic_iosIcNS_11char_traitsIcEEED2Ev
000000000012b140 W _ZNSt6__ndk19basic_iosIwNS_11char_traitsIwEEE7copyfmtERKS3_
000000000012b110 W _ZNSt6__ndk19basic_iosIwNS_11char_traitsIwEEED0Ev
000000000012b108 W _ZNSt6__ndk19basic_iosIwNS_11char_traitsIwEEED1Ev
000000000012b108 W _ZNSt6__ndk19basic_iosIwNS_11char_traitsIwEEED2Ev
000000000019f440 V _ZNSt6__ndk19money_getIcNS_19istreambuf_iteratorIcNS_11char_traitsIcEEEEE2idE
0000000000146240 W _ZNSt6__ndk19money_getIcNS_19istreambuf_iteratorIcNS_11char_traitsIcEEEEE8__do_getERS4_S4_bRKNS_6localeEjRjRbRKNS_5ctypeIcEERNS_10unique_ptrIcPFvPvEEERPcSM_
000000000019f450 V _ZNSt6__ndk19money_getIwNS_19istreambuf_iteratorIwNS_11char_traitsIwEEEEE2idE
0000000000148394 W _ZNSt6__ndk19money_getIwNS_19istreambuf_iteratorIwNS_11char_traitsIwEEEEE8__do_getERS4_S4_bRKNS_6localeEjRjRbRKNS_5ctypeIwEERNS_10unique_ptrIwPFvPvEEERPwSM_
000000000019f460 V _ZNSt6__ndk19money_putIcNS_19ostreambuf_iteratorIcNS_11char_traitsIcEEEEE2idE
000000000019f470 V _ZNSt6__ndk19money_putIwNS_19ostreambuf_iteratorIwNS_11char_traitsIwEEEEE2idE
00000000001239bc T _ZNSt6__ndk19to_stringEd
0000000000123b54 T _ZNSt6__ndk19to_stringEe
0000000000123820 T _ZNSt6__ndk19to_stringEf
00000000001221a0 T _ZNSt6__ndk19to_stringEi
00000000001226d0 T _ZNSt6__ndk19to_stringEj
00000000001222b8 T _ZNSt6__ndk19to_stringEl
0000000000122784 T _ZNSt6__ndk19to_stringEm
00000000001224c4 T _ZNSt6__ndk19to_stringEx
000000000012293c T _ZNSt6__ndk19to_stringEy
0000000000120ac8 W _ZNSt6__ndk1plIcNS_11char_traitsIcEENS_9allocatorIcEEEENS_12basic_stringIT_T0_T1_EEPKS6_RKS9_
0000000000166d04 T _ZNSt8bad_castC1Ev
0000000000166d04 T _ZNSt8bad_castC2Ev
0000000000166d24 T _ZNSt8bad_castD0Ev
0000000000166d1c T _ZNSt8bad_castD1Ev
0000000000166d1c T _ZNSt8bad_castD2Ev
00000000001669a4 T _ZNSt9bad_allocC1Ev
00000000001669a4 T _ZNSt9bad_allocC2Ev
00000000001669bc T _ZNSt9bad_allocD0Ev
000000000016691c T _ZNSt9bad_allocD1Ev
000000000016691c T _ZNSt9bad_allocD2Ev
0000000000166924 T _ZNSt9exceptionD0Ev
000000000016691c T _ZNSt9exceptionD1Ev
000000000016691c T _ZNSt9exceptionD2Ev
0000000000166cd4 T _ZNSt9type_infoD0Ev
0000000000166ccc T _ZNSt9type_infoD1Ev
0000000000166ccc T _ZNSt9type_infoD2Ev
0000000000166674 T _ZSt10unexpectedv
0000000000166690 T _ZSt13get_terminatev
000000000016684c T _ZSt13set_terminatePFvvE
0000000000166604 T _ZSt14get_unexpectedv
0000000000166818 T _ZSt14set_unexpectedPFvvE
00000000001666d4 T _ZSt15get_new_handlerv
0000000000166880 T _ZSt15set_new_handlerPFvvE
000000000011bd2c T _ZSt17__throw_bad_allocv
0000000000132e30 T _ZSt17current_exceptionv
0000000000132efc T _ZSt17rethrow_exceptionSt13exception_ptr
0000000000132d48 T _ZSt18uncaught_exceptionv
0000000000132d6c T _ZSt19uncaught_exceptionsv
000000000007377d R _ZSt7nothrow
0000000000166618 T _ZSt9terminatev
0000000000191b90 V _ZTCNSt6__ndk114basic_ifstreamIcNS_11char_traitsIcEEEE0_NS_13basic_istreamIcS2_EE
00000000001915f0 V _ZTCNSt6__ndk114basic_iostreamIcNS_11char_traitsIcEEEE0_NS_13basic_istreamIcS2_EE
0000000000191640 V _ZTCNSt6__ndk114basic_iostreamIcNS_11char_traitsIcEEEE16_NS_13basic_ostreamIcS2_EE
0000000000191c68 V _ZTCNSt6__ndk114basic_ofstreamIcNS_11char_traitsIcEEEE0_NS_13basic_ostreamIcS2_EE
00000000001918b8 V _ZTCNSt6__ndk118basic_stringstreamIcNS_11char_traitsIcEENS_9allocatorIcEEEE0_NS_13basic_istreamIcS2_EE
0000000000191840 V _ZTCNSt6__ndk118basic_stringstreamIcNS_11char_traitsIcEENS_9allocatorIcEEEE0_NS_14basic_iostreamIcS2_EE
0000000000191908 V _ZTCNSt6__ndk118basic_stringstreamIcNS_11char_traitsIcEENS_9allocatorIcEEEE16_NS_13basic_ostreamIcS2_EE
0000000000191ab8 V _ZTCNSt6__ndk119basic_istringstreamIcNS_11char_traitsIcEENS_9allocatorIcEEEE0_NS_13basic_istreamIcS2_EE
00000000001919e0 V _ZTCNSt6__ndk119basic_ostringstreamIcNS_11char_traitsIcEENS_9allocatorIcEEEE0_NS_13basic_ostreamIcS2_EE
0000000000190d38 V _ZTI8SysError
0000000000194e68 D _ZTIDh
0000000000195098 D _ZTIDi
0000000000194968 D _ZTIDn
0000000000195048 D _ZTIDs
0000000000194ff8 D _ZTIDu
00000000001951a8 D _ZTIN10__cxxabiv116__enum_type_infoE
0000000000194800 D _ZTIN10__cxxabiv116__shim_type_infoE
0000000000195120 D _ZTIN10__cxxabiv117__array_type_infoE
0000000000194818 D _ZTIN10__cxxabiv117__class_type_infoE
0000000000194830 D _ZTIN10__cxxabiv117__pbase_type_infoE
0000000000194848 D _ZTIN10__cxxabiv119__pointer_type_infoE
0000000000194860 D _ZTIN10__cxxabiv120__function_type_infoE
0000000000195260 D _ZTIN10__cxxabiv120__si_class_type_infoE
00000000001952c8 D _ZTIN10__cxxabiv121__vmi_class_type_infoE
0000000000194900 D _ZTIN10__cxxabiv123__fundamental_type_infoE
0000000000194878 D _ZTIN10__cxxabiv129__pointer_to_member_type_infoE
00000000001934f8 V _ZTINSt6__ndk110__time_getE
00000000001936a0 V _ZTINSt6__ndk110__time_putE
00000000001921b8 V _ZTINSt6__ndk110ctype_baseE
0000000000193850 V _ZTINSt6__ndk110money_baseE
0000000000193818 V _ZTINSt6__ndk110moneypunctIcLb0EEE
00000000001938d0 V _ZTINSt6__ndk110moneypunctIcLb1EEE
0000000000193978 V _ZTINSt6__ndk110moneypunctIwLb0EEE
0000000000193a20 V _ZTINSt6__ndk110moneypunctIwLb1EEE
0000000000193ce8 V _ZTINSt6__ndk111__money_getIcEE
0000000000193d68 V _ZTINSt6__ndk111__money_getIwEE
0000000000193de8 V _ZTINSt6__ndk111__money_putIcEE
0000000000193e68 V _ZTINSt6__ndk111__money_putIwEE
0000000000190e88 D _ZTINSt6__ndk112bad_weak_ptrE
0000000000192260 V _ZTINSt6__ndk112codecvt_baseE
0000000000192d38 D _ZTINSt6__ndk112ctype_bynameIcEE
0000000000192d50 D _ZTINSt6__ndk112ctype_bynameIwEE
0000000000191028 D _ZTINSt6__ndk112system_errorE
0000000000191cd0 V _ZTINSt6__ndk113basic_filebufIcNS_11char_traitsIcEEEE
00000000001915a0 V _ZTINSt6__ndk113basic_istreamIcNS_11char_traitsIcEEEE
0000000000191710 V _ZTINSt6__ndk113basic_istreamIwNS_11char_traitsIwEEEE
00000000001915c8 V _ZTINSt6__ndk113basic_ostreamIcNS_11char_traitsIcEEEE
