+base[   1] 1397f Forwarder RVA -- msvcr120.??0?$_SpinWait@$00@details@Concurrency@@QAE@P6AXXZ@Z
+base[   2] 139bd Forwarder RVA -- msvcr120.??0?$_SpinWait@$0A@@details@Concurrency@@QAE@P6AXXZ@Z
+base[   3] 139fc Forwarder RVA -- msvcr120.??0SchedulerPolicy@Concurrency@@QAA@IZZ
+base[   4] 13a2d Forwarder RVA -- msvcr120.??0SchedulerPolicy@Concurrency@@QAE@ABV01@@Z
+base[   5] 13a63 Forwarder RVA -- msvcr120.??0SchedulerPolicy@Concurrency@@QAE@XZ
+base[   6] 13a93 Forwarder RVA -- msvcr120.??0_Cancellation_beacon@details@Concurrency@@QAE@XZ
+base[   7] 13ad0 Forwarder RVA -- msvcr120.??0_Condition_variable@details@Concurrency@@QAE@XZ
+base[   8] 1000 Export RVA
+base[   9] 1020 Export RVA
+base[  10] 1040 Export RVA
+base[  11] 13b0c Forwarder RVA -- msvcr120.??0_NonReentrantBlockingLock@details@Concurrency@@QAE@XZ
+base[  12] 13b4e Forwarder RVA -- msvcr120.??0_NonReentrantPPLLock@details@Concurrency@@QAE@XZ
+base[  13] 13b8b Forwarder RVA -- msvcr120.??0_ReaderWriterLock@details@Concurrency@@QAE@XZ
+base[  14] 13bc5 Forwarder RVA -- msvcr120.??0_ReentrantBlockingLock@details@Concurrency@@QAE@XZ
+base[  15] 1060 Export RVA
+base[  16] 13c04 Forwarder RVA -- msvcr120.??0_ReentrantPPLLock@details@Concurrency@@QAE@XZ
+base[  17] 13c3e Forwarder RVA -- msvcr120.??0_Scheduler@details@Concurrency@@QAE@PAVScheduler@2@@Z
+base[  18] 13c80 Forwarder RVA -- msvcr120.??0_Scoped_lock@_NonReentrantPPLLock@details@Concurrency@@QAE@AAV123@@Z
+base[  19] 13cd1 Forwarder RVA -- msvcr120.??0_Scoped_lock@_ReentrantPPLLock@details@Concurrency@@QAE@AAV123@@Z
+base[  20] 1080 Export RVA
+base[  21] 13d1f Forwarder RVA -- msvcr120.??0_StructuredTaskCollection@details@Concurrency@@QAE@PAV_CancellationTokenState@12@@Z
+base[  22] 10a0 Export RVA
+base[  23] 10c0 Export RVA
+base[  24] 13d7f Forwarder RVA -- msvcr120.??0_Timer@details@Concurrency@@IAE@I_N@Z
+base[  25] 13db1 Forwarder RVA -- msvcr120.??0__non_rtti_object@std@@QAE@ABV01@@Z
+base[  26] 13de1 Forwarder RVA -- msvcr120.??0__non_rtti_object@std@@QAE@PBD@Z
+base[  27] 13e0e Forwarder RVA -- msvcr120.??0bad_cast@std@@AAE@PBQBD@Z
+base[  28] 13e34 Forwarder RVA -- msvcr120.??0bad_cast@std@@QAE@ABV01@@Z
+base[  29] 13e5b Forwarder RVA -- msvcr120.??0bad_cast@std@@QAE@PBD@Z
+base[  30] 10e0 Export RVA
+base[  31] 1100 Export RVA
+base[  32] 13e7f Forwarder RVA -- msvcr120.??0bad_typeid@std@@QAE@ABV01@@Z
+base[  33] 13ea8 Forwarder RVA -- msvcr120.??0bad_typeid@std@@QAE@PBD@Z
+base[  34] 1120 Export RVA
+base[  35] 1140 Export RVA
+base[  36] 1160 Export RVA
+base[  37] 1180 Export RVA
+base[  38] 13ece Forwarder RVA -- msvcr120.??0critical_section@Concurrency@@QAE@XZ
+base[  39] 11a0 Export RVA
+base[  40] 11c0 Export RVA
+base[  41] 13eff Forwarder RVA -- msvcr120.??0event@Concurrency@@QAE@XZ
+base[  42] 13f25 Forwarder RVA -- msvcr120.??0exception@std@@QAE@ABQBD@Z
+base[  43] 13f4c Forwarder RVA -- msvcr120.??0exception@std@@QAE@ABQBDH@Z
+base[  44] 13f74 Forwarder RVA -- msvcr120.??0exception@std@@QAE@ABV01@@Z
+base[  45] 13f9c Forwarder RVA -- msvcr120.??0exception@std@@QAE@XZ
+base[  46] 13fbe Forwarder RVA -- msvcr120.??0improper_lock@Concurrency@@QAE@PBD@Z
+base[  47] 13fef Forwarder RVA -- msvcr120.??0improper_lock@Concurrency@@QAE@XZ
+base[  48] 1401d Forwarder RVA -- msvcr120.??0improper_scheduler_attach@Concurrency@@QAE@PBD@Z
+base[  49] 1405a Forwarder RVA -- msvcr120.??0improper_scheduler_attach@Concurrency@@QAE@XZ
+base[  50] 14094 Forwarder RVA -- msvcr120.??0improper_scheduler_detach@Concurrency@@QAE@PBD@Z
+base[  51] 140d1 Forwarder RVA -- msvcr120.??0improper_scheduler_detach@Concurrency@@QAE@XZ
+base[  52] 11e0 Export RVA
+base[  53] 1200 Export RVA
+base[  54] 1220 Export RVA
+base[  55] 1240 Export RVA
+base[  56] 1410b Forwarder RVA -- msvcr120.??0invalid_multiple_scheduling@Concurrency@@QAE@PBD@Z
+base[  57] 1414a Forwarder RVA -- msvcr120.??0invalid_multiple_scheduling@Concurrency@@QAE@XZ
+base[  58] 1260 Export RVA
+base[  59] 1280 Export RVA
+base[  60] 12a0 Export RVA
+base[  61] 12c0 Export RVA
+base[  62] 14186 Forwarder RVA -- msvcr120.??0invalid_scheduler_policy_key@Concurrency@@QAE@PBD@Z
+base[  63] 141c6 Forwarder RVA -- msvcr120.??0invalid_scheduler_policy_key@Concurrency@@QAE@XZ
+base[  64] 14203 Forwarder RVA -- msvcr120.??0invalid_scheduler_policy_thread_specification@Concurrency@@QAE@PBD@Z
+base[  65] 14254 Forwarder RVA -- msvcr120.??0invalid_scheduler_policy_thread_specification@Concurrency@@QAE@XZ
+base[  66] 142a2 Forwarder RVA -- msvcr120.??0invalid_scheduler_policy_value@Concurrency@@QAE@PBD@Z
+base[  67] 142e4 Forwarder RVA -- msvcr120.??0invalid_scheduler_policy_value@Concurrency@@QAE@XZ
+base[  68] 12e0 Export RVA
+base[  69] 1300 Export RVA
+base[  70] 14323 Forwarder RVA -- msvcr120.??0missing_wait@Concurrency@@QAE@PBD@Z
+base[  71] 14353 Forwarder RVA -- msvcr120.??0missing_wait@Concurrency@@QAE@XZ
+base[  72] 1320 Export RVA
+base[  73] 1340 Export RVA
+base[  74] 1360 Export RVA
+base[  75] 1380 Export RVA
+base[  76] 14380 Forwarder RVA -- msvcr120.??0reader_writer_lock@Concurrency@@QAE@XZ
+base[  77] 13a0 Export RVA
+base[  78] 13c0 Export RVA
+base[  79] 143b3 Forwarder RVA -- msvcr120.??0scheduler_resource_allocation_error@Concurrency@@QAE@J@Z
+base[  80] 143f8 Forwarder RVA -- msvcr120.??0scheduler_resource_allocation_error@Concurrency@@QAE@PBDJ@Z
+base[  81] 13e0 Export RVA
+base[  82] 1400 Export RVA
+base[  83] 14440 Forwarder RVA -- msvcr120.??0scoped_lock@critical_section@Concurrency@@QAE@AAV12@@Z
+base[  84] 14483 Forwarder RVA -- msvcr120.??0scoped_lock@reader_writer_lock@Concurrency@@QAE@AAV12@@Z
+base[  85] 144c8 Forwarder RVA -- msvcr120.??0scoped_lock_read@reader_writer_lock@Concurrency@@QAE@AAV12@@Z
+base[  86] 1420 Export RVA
+base[  87] 1440 Export RVA
+base[  88] 1460 Export RVA
+base[  89] 1480 Export RVA
+base[  90] 14512 Forwarder RVA -- msvcr120.??1SchedulerPolicy@Concurrency@@QAE@XZ
+base[  91] 14542 Forwarder RVA -- msvcr120.??1_Cancellation_beacon@details@Concurrency@@QAE@XZ
+base[  92] 1457f Forwarder RVA -- msvcr120.??1_Condition_variable@details@Concurrency@@QAE@XZ
+base[  93] 145bb Forwarder RVA -- msvcr120.??1_NonReentrantBlockingLock@details@Concurrency@@QAE@XZ
+base[  94] 145fd Forwarder RVA -- msvcr120.??1_ReentrantBlockingLock@details@Concurrency@@QAE@XZ
+base[  95] 1463c Forwarder RVA -- msvcr120.??1_Scoped_lock@_NonReentrantPPLLock@details@Concurrency@@QAE@XZ
+base[  96] 14686 Forwarder RVA -- msvcr120.??1_Scoped_lock@_ReentrantPPLLock@details@Concurrency@@QAE@XZ
+base[  97] 14a0 Export RVA
+base[  98] 146cd Forwarder RVA -- msvcr120.??1_StructuredTaskCollection@details@Concurrency@@QAE@XZ
+base[  99] 14c0 Export RVA
+base[ 100] 1470f Forwarder RVA -- msvcr120.??1_Timer@details@Concurrency@@MAE@XZ
+base[ 101] 1473e Forwarder RVA -- msvcr120.??1__non_rtti_object@std@@UAE@XZ
+base[ 102] 14768 Forwarder RVA -- msvcr120.??1bad_cast@std@@UAE@XZ
+base[ 103] 14789 Forwarder RVA -- msvcr120.??1bad_typeid@std@@UAE@XZ
+base[ 104] 147ac Forwarder RVA -- msvcr120.??1critical_section@Concurrency@@QAE@XZ
+base[ 105] 147dd Forwarder RVA -- msvcr120.??1event@Concurrency@@QAE@XZ
+base[ 106] 14803 Forwarder RVA -- msvcr120.??1exception@std@@UAE@XZ
+base[ 107] 14825 Forwarder RVA -- msvcr120.??1reader_writer_lock@Concurrency@@QAE@XZ
+base[ 108] 14858 Forwarder RVA -- msvcr120.??1scoped_lock@critical_section@Concurrency@@QAE@XZ
+base[ 109] 14895 Forwarder RVA -- msvcr120.??1scoped_lock@reader_writer_lock@Concurrency@@QAE@XZ
+base[ 110] 148d4 Forwarder RVA -- msvcr120.??1scoped_lock_read@reader_writer_lock@Concurrency@@QAE@XZ
+base[ 111] 14918 Forwarder RVA -- msvcr120.??1type_info@@UAE@XZ
+base[ 112] 14936 Forwarder RVA -- msvcr120.??2@YAPAXI@Z
+base[ 113] 1494c Forwarder RVA -- msvcr120.??2@YAPAXIHPBDH@Z
+base[ 114] 14967 Forwarder RVA -- msvcr120.??3@YAXPAX@Z
+base[ 115] 14e0 Export RVA
+base[ 116] 1500 Export RVA
+base[ 117] 1520 Export RVA
+base[ 118] 1497d Forwarder RVA -- msvcr120.??4SchedulerPolicy@Concurrency@@QAEAAV01@ABV01@@Z
+base[ 119] 149b8 Forwarder RVA -- msvcr120.??4__non_rtti_object@std@@QAEAAV01@ABV01@@Z
+base[ 120] 149ed Forwarder RVA -- msvcr120.??4bad_cast@std@@QAEAAV01@ABV01@@Z
+base[ 121] 14a19 Forwarder RVA -- msvcr120.??4bad_typeid@std@@QAEAAV01@ABV01@@Z
+base[ 122] 14a47 Forwarder RVA -- msvcr120.??4exception@std@@QAEAAV01@ABV01@@Z
+base[ 123] 14a74 Forwarder RVA -- msvcr120.??8type_info@@QBE_NABV0@@Z
+base[ 124] 14a98 Forwarder RVA -- msvcr120.??9type_info@@QBE_NABV0@@Z
+base[ 125] 14abc Forwarder RVA -- msvcr120.??_7__non_rtti_object@std@@6B@
+base[ 126] 14ae4 Forwarder RVA -- msvcr120.??_7bad_cast@std@@6B@
+base[ 127] 14b03 Forwarder RVA -- msvcr120.??_7bad_typeid@std@@6B@
+base[ 128] 14b24 Forwarder RVA -- msvcr120.??_7exception@std@@6B@
+base[ 129] 14b44 Forwarder RVA -- msvcr120.??_F?$_SpinWait@$00@details@Concurrency@@QAEXXZ
+base[ 130] 14b7d Forwarder RVA -- msvcr120.??_F?$_SpinWait@$0A@@details@Concurrency@@QAEXXZ
+base[ 131] 1540 Export RVA
+base[ 132] 14bb7 Forwarder RVA -- msvcr120.??_F_Scheduler@details@Concurrency@@QAEXXZ
+base[ 133] 14beb Forwarder RVA -- msvcr120.??_Fbad_cast@std@@QAEXXZ
+base[ 134] 14c0d Forwarder RVA -- msvcr120.??_Fbad_typeid@std@@QAEXXZ
+base[ 135] 14c31 Forwarder RVA -- msvcr120.??_U@YAPAXI@Z
+base[ 136] 14c48 Forwarder RVA -- msvcr120.??_U@YAPAXIHPBDH@Z
+base[ 137] 14c64 Forwarder RVA -- msvcr120.??_V@YAXPAX@Z
+base[ 138] 1560 Export RVA
+base[ 139] 14c7b Forwarder RVA -- msvcr120.?Alloc@Concurrency@@YAPAXI@Z
+base[ 140] 14ca1 Forwarder RVA -- msvcr120.?Block@Context@Concurrency@@SAXXZ
+base[ 141] 1580 Export RVA
+base[ 142] 14ccc Forwarder RVA -- msvcr120.?Create@CurrentScheduler@Concurrency@@SAXABVSchedulerPolicy@2@@Z
+base[ 143] 14d16 Forwarder RVA -- msvcr120.?Create@Scheduler@Concurrency@@SAPAV12@ABVSchedulerPolicy@2@@Z
+base[ 144] 15a0 Export RVA
+base[ 145] 14d5e Forwarder RVA -- msvcr120.?CreateScheduleGroup@CurrentScheduler@Concurrency@@SAPAVScheduleGroup@2@AAVlocation@2@@Z
+base[ 146] 14dc0 Forwarder RVA -- msvcr120.?CreateScheduleGroup@CurrentScheduler@Concurrency@@SAPAVScheduleGroup@2@XZ
+base[ 147] 14e14 Forwarder RVA -- msvcr120.?CurrentContext@Context@Concurrency@@SAPAV12@XZ
+base[ 148] 14e4d Forwarder RVA -- msvcr120.?Detach@CurrentScheduler@Concurrency@@SAXXZ
+base[ 149] 15c0 Export RVA
+base[ 150] 15e0 Export RVA
+base[ 151] 14e82 Forwarder RVA -- msvcr120.?Free@Concurrency@@YAXPAX@Z
+base[ 152] 14ea7 Forwarder RVA -- msvcr120.?Get@CurrentScheduler@Concurrency@@SAPAVScheduler@2@XZ
+base[ 153] 14ee7 Forwarder RVA -- msvcr120.?GetCurrentThreadId@platform@details@Concurrency@@YAJXZ
+base[ 154] 1600 Export RVA
+base[ 155] 14f28 Forwarder RVA -- msvcr120.?GetNumberOfVirtualProcessors@CurrentScheduler@Concurrency@@SAIXZ
+base[ 156] 1620 Export RVA
+base[ 157] 14f73 Forwarder RVA -- msvcr120.?GetPolicy@CurrentScheduler@Concurrency@@SA?AVSchedulerPolicy@2@XZ
+base[ 158] 14fbf Forwarder RVA -- msvcr120.?GetPolicyValue@SchedulerPolicy@Concurrency@@QBEIW4PolicyElementKey@2@@Z
+base[ 159] 1640 Export RVA
+base[ 160] 1660 Export RVA
+base[ 161] 1680 Export RVA
+base[ 162] 16a0 Export RVA
+base[ 163] 15011 Forwarder RVA -- msvcr120.?Id@Context@Concurrency@@SAIXZ
+base[ 164] 15039 Forwarder RVA -- msvcr120.?Id@CurrentScheduler@Concurrency@@SAIXZ
+base[ 165] 1506a Forwarder RVA -- msvcr120.?IsAvailableLocation@CurrentScheduler@Concurrency@@SA_NABVlocation@2@@Z
+base[ 166] 150bb Forwarder RVA -- msvcr120.?IsCurrentTaskCollectionCanceling@Context@Concurrency@@SA_NXZ
+base[ 167] 16c0 Export RVA
+base[ 168] 15102 Forwarder RVA -- msvcr120.?Oversubscribe@Context@Concurrency@@SAX_N@Z
+base[ 169] 15137 Forwarder RVA -- msvcr120.?RegisterShutdownEvent@CurrentScheduler@Concurrency@@SAXPAX@Z
+base[ 170] 1517e Forwarder RVA -- msvcr120.?ResetDefaultSchedulerPolicy@Scheduler@Concurrency@@SAXXZ
+base[ 171] 151c1 Forwarder RVA -- msvcr120.?ScheduleGroupId@Context@Concurrency@@SAIXZ
+base[ 172] 151f6 Forwarder RVA -- msvcr120.?ScheduleTask@CurrentScheduler@Concurrency@@SAXP6AXPAX@Z0@Z
+base[ 173] 1523b Forwarder RVA -- msvcr120.?ScheduleTask@CurrentScheduler@Concurrency@@SAXP6AXPAX@Z0AAVlocation@2@@Z
+base[ 174] 1528e Forwarder RVA -- msvcr120.?SetConcurrencyLimits@SchedulerPolicy@Concurrency@@QAEXII@Z
+base[ 175] 152d3 Forwarder RVA -- msvcr120.?SetDefaultSchedulerPolicy@Scheduler@Concurrency@@SAXABVSchedulerPolicy@2@@Z
+base[ 176] 15329 Forwarder RVA -- msvcr120.?SetPolicyValue@SchedulerPolicy@Concurrency@@QAEIW4PolicyElementKey@2@I@Z
+base[ 177] 1537c Forwarder RVA -- msvcr120.?VirtualProcessorId@Context@Concurrency@@SAIXZ
+base[ 178] 153b4 Forwarder RVA -- msvcr120.?Yield@Context@Concurrency@@SAXXZ
+base[ 179] 16e0 Export RVA
+base[ 180] 153df Forwarder RVA -- msvcr120.?_Acquire@_NonReentrantBlockingLock@details@Concurrency@@QAEXXZ
+base[ 181] 15428 Forwarder RVA -- msvcr120.?_Acquire@_NonReentrantPPLLock@details@Concurrency@@QAEXPAX@Z
+base[ 182] 1546f Forwarder RVA -- msvcr120.?_Acquire@_ReentrantBlockingLock@details@Concurrency@@QAEXXZ
+base[ 183] 1700 Export RVA
+base[ 184] 154b5 Forwarder RVA -- msvcr120.?_Acquire@_ReentrantPPLLock@details@Concurrency@@QAEXPAX@Z
+base[ 185] 1720 Export RVA
+base[ 186] 1740 Export RVA
+base[ 187] 154f9 Forwarder RVA -- msvcr120.?_Cancel@_StructuredTaskCollection@details@Concurrency@@QAEXXZ
+base[ 188] 1760 Export RVA
+base[ 189] 15541 Forwarder RVA -- msvcr120.?_CheckTaskCollection@_UnrealizedChore@details@Concurrency@@IAEXXZ
+base[ 190] 1780 Export RVA
+base[ 191] 17a0 Export RVA
+base[ 192] 17c0 Export RVA
+base[ 193] 17e0 Export RVA
+base[ 194] 1800 Export RVA
+base[ 195] 1558d Forwarder RVA -- msvcr120.?_Confirm_cancel@_Cancellation_beacon@details@Concurrency@@QAE_NXZ
+base[ 196] 1820 Export RVA
+base[ 197] 155d9 Forwarder RVA -- msvcr120.?_CurrentContext@_Context@details@Concurrency@@SA?AV123@XZ
+base[ 198] 1840 Export RVA
+base[ 199] 1860 Export RVA
+base[ 200] 1880 Export RVA
+base[ 201] 1561d Forwarder RVA -- msvcr120.?_DoYield@?$_SpinWait@$00@details@Concurrency@@IAEXXZ
+base[ 202] 1565c Forwarder RVA -- msvcr120.?_DoYield@?$_SpinWait@$0A@@details@Concurrency@@IAEXXZ
+base[ 203] 1569c Forwarder RVA -- msvcr120.?_Get@_CurrentScheduler@details@Concurrency@@SA?AV_Scheduler@23@XZ
+base[ 204] 18a0 Export RVA
+base[ 205] 156e8 Forwarder RVA -- msvcr120.?_GetConcurrency@details@Concurrency@@YAIXZ
+base[ 206] 18c0 Export RVA
+base[ 207] 1571d Forwarder RVA -- msvcr120.?_GetNumberOfVirtualProcessors@_CurrentScheduler@details@Concurrency@@SAIXZ
+base[ 208] 15772 Forwarder RVA -- msvcr120.?_GetScheduler@_Scheduler@details@Concurrency@@QAEPAVScheduler@3@XZ
+base[ 209] 157bf Forwarder RVA -- msvcr120.?_Id@_CurrentScheduler@details@Concurrency@@SAIXZ
+base[ 210] 157fa Forwarder RVA -- msvcr120.?_IsCanceling@_StructuredTaskCollection@details@Concurrency@@QAE_NXZ
+base[ 211] 18e0 Export RVA
+base[ 212] 15848 Forwarder RVA -- msvcr120.?_IsSynchronouslyBlocked@_Context@details@Concurrency@@QBE_NXZ
+base[ 213] 1900 Export RVA
+base[ 214] 1920 Export RVA
+base[ 215] 1940 Export RVA
+base[ 216] 15890 Forwarder RVA -- msvcr120.?_NumberOfSpins@?$_SpinWait@$00@details@Concurrency@@IAEKXZ
+base[ 217] 158d5 Forwarder RVA -- msvcr120.?_NumberOfSpins@?$_SpinWait@$0A@@details@Concurrency@@IAEKXZ
+base[ 218] 1960 Export RVA
+base[ 219] 1591b Forwarder RVA -- msvcr120.?_Reference@_Scheduler@details@Concurrency@@QAEIXZ
+base[ 220] 15957 Forwarder RVA -- msvcr120.?_Release@_NonReentrantBlockingLock@details@Concurrency@@QAEXXZ
+base[ 221] 159a0 Forwarder RVA -- msvcr120.?_Release@_NonReentrantPPLLock@details@Concurrency@@QAEXXZ
+base[ 222] 159e4 Forwarder RVA -- msvcr120.?_Release@_ReentrantBlockingLock@details@Concurrency@@QAEXXZ
+base[ 223] 1980 Export RVA
+base[ 224] 15a2a Forwarder RVA -- msvcr120.?_Release@_ReentrantPPLLock@details@Concurrency@@QAEXXZ
+base[ 225] 15a6b Forwarder RVA -- msvcr120.?_Release@_Scheduler@details@Concurrency@@QAEIXZ
+base[ 226] 19a0 Export RVA
+base[ 227] 19c0 Export RVA
+base[ 228] 19e0 Export RVA
+base[ 229] 15aa5 Forwarder RVA -- msvcr120.?_Reset@?$_SpinWait@$00@details@Concurrency@@IAEXXZ
+base[ 230] 15ae2 Forwarder RVA -- msvcr120.?_Reset@?$_SpinWait@$0A@@details@Concurrency@@IAEXXZ
+base[ 231] 15b20 Forwarder RVA -- msvcr120.?_RunAndWait@_StructuredTaskCollection@details@Concurrency@@QAG?AW4_TaskCollectionStatus@23@PAV_UnrealizedChore@23@@Z
+base[ 232] 1a00 Export RVA
+base[ 233] 15b9f Forwarder RVA -- msvcr120.?_Schedule@_StructuredTaskCollection@details@Concurrency@@QAEXPAV_UnrealizedChore@23@@Z
+base[ 234] 15c00 Forwarder RVA -- msvcr120.?_Schedule@_StructuredTaskCollection@details@Concurrency@@QAEXPAV_UnrealizedChore@23@PAVlocation@3@@Z
+base[ 235] 1a20 Export RVA
+base[ 236] 1a40 Export RVA
+base[ 237] 15c6f Forwarder RVA -- msvcr120.?_ScheduleTask@_CurrentScheduler@details@Concurrency@@SAXP6AXPAX@Z0@Z
+base[ 238] 15cbe Forwarder RVA -- msvcr120.?_SetSpinCount@?$_SpinWait@$00@details@Concurrency@@QAEXI@Z
+base[ 239] 15d03 Forwarder RVA -- msvcr120.?_SetSpinCount@?$_SpinWait@$0A@@details@Concurrency@@QAEXI@Z
+base[ 240] 1a60 Export RVA
+base[ 241] 15d49 Forwarder RVA -- msvcr120.?_ShouldSpinAgain@?$_SpinWait@$00@details@Concurrency@@IAE_NXZ
+base[ 242] 15d91 Forwarder RVA -- msvcr120.?_ShouldSpinAgain@?$_SpinWait@$0A@@details@Concurrency@@IAE_NXZ
+base[ 243] 15dda Forwarder RVA -- msvcr120.?_SpinOnce@?$_SpinWait@$00@details@Concurrency@@QAE_NXZ
+base[ 244] 15e1b Forwarder RVA -- msvcr120.?_SpinOnce@?$_SpinWait@$0A@@details@Concurrency@@QAE_NXZ
+base[ 245] 15e5d Forwarder RVA -- msvcr120.?_SpinYield@Context@Concurrency@@SAXXZ
+base[ 246] 15e8d Forwarder RVA -- msvcr120.?_Start@_Timer@details@Concurrency@@IAEXXZ
+base[ 247] 15ec1 Forwarder RVA -- msvcr120.?_Stop@_Timer@details@Concurrency@@IAEXXZ
+base[ 248] 1a80 Export RVA
+base[ 249] 15ef4 Forwarder RVA -- msvcr120.?_Trace_agents@Concurrency@@YAXW4Agents_EventType@1@_JZZ
+base[ 250] 15f36 Forwarder RVA -- msvcr120.?_Trace_ppl_function@Concurrency@@YAXABU_GUID@@EW4ConcRT_EventType@1@@Z
+base[ 251] 15f87 Forwarder RVA -- msvcr120.?_TryAcquire@_NonReentrantBlockingLock@details@Concurrency@@QAE_NXZ
+base[ 252] 15fd4 Forwarder RVA -- msvcr120.?_TryAcquire@_ReentrantBlockingLock@details@Concurrency@@QAE_NXZ
+base[ 253] 1aa0 Export RVA
+base[ 254] 1ac0 Export RVA
+base[ 255] 1ae0 Export RVA
+base[ 256] 1b00 Export RVA
+base[ 257] 1b20 Export RVA
+base[ 258] 1b40 Export RVA
+base[ 259] 1b60 Export RVA
+base[ 260] 1b80 Export RVA
+base[ 261] 1601e Forwarder RVA -- msvcr120.?_Value@_SpinCount@details@Concurrency@@SAIXZ
+base[ 262] 16055 Forwarder RVA -- msvcr120.?_Yield@_Context@details@Concurrency@@SAXXZ
+base[ 263] 1608a Forwarder RVA -- msvcr120.?__ExceptionPtrAssign@@YAXPAXPBX@Z
+base[ 264] 160b6 Forwarder RVA -- msvcr120.?__ExceptionPtrCompare@@YA_NPBX0@Z
+base[ 265] 160e2 Forwarder RVA -- msvcr120.?__ExceptionPtrCopy@@YAXPAXPBX@Z
+base[ 266] 1610c Forwarder RVA -- msvcr120.?__ExceptionPtrCopyException@@YAXPAXPBX1@Z
+base[ 267] 16140 Forwarder RVA -- msvcr120.?__ExceptionPtrCreate@@YAXPAX@Z
+base[ 268] 16169 Forwarder RVA -- msvcr120.?__ExceptionPtrCurrentException@@YAXPAX@Z
+base[ 269] 1619c Forwarder RVA -- msvcr120.?__ExceptionPtrDestroy@@YAXPAX@Z
+base[ 270] 161c6 Forwarder RVA -- msvcr120.?__ExceptionPtrRethrow@@YAXPBX@Z
+base[ 271] 1ba0 Export RVA
+base[ 272] 161f0 Forwarder RVA -- msvcr120.?__ExceptionPtrToBool@@YA_NPBX@Z
+base[ 273] 1621a Forwarder RVA -- msvcr120.__uncaught_exception
+base[ 274] 1bc0 Export RVA
+base[ 275] 16238 Forwarder RVA -- msvcr120.?_invalid_parameter@@YAXPBG00II@Z
+base[ 276] 16263 Forwarder RVA -- msvcr120.?_is_exception_typeof@@YAHABVtype_info@@PAU_EXCEPTION_POINTERS@@@Z
+base[ 277] 162af Forwarder RVA -- msvcr120.?_name_internal_method@type_info@@QBEPBDPAU__type_info_node@@@Z
+base[ 278] 162f8 Forwarder RVA -- msvcr120.?_open@@YAHPBDHH@Z
+base[ 279] 16314 Forwarder RVA -- msvcr120.?_query_new_handler@@YAP6AHI@ZXZ
+base[ 280] 1633e Forwarder RVA -- msvcr120.?_query_new_mode@@YAHXZ
+base[ 281] 1be0 Export RVA
+base[ 282] 1635f Forwarder RVA -- msvcr120.?_set_new_handler@@YAP6AHI@ZP6AHI@Z@Z
+base[ 283] 1638e Forwarder RVA -- msvcr120.?_set_new_mode@@YAHH@Z
+base[ 284] 1c00 Export RVA
+base[ 285] 163ae Forwarder RVA -- msvcr120.?_set_se_translator@@YAP6AXIPAU_EXCEPTION_POINTERS@@@ZP6AXI0@Z@Z
+base[ 286] 163f8 Forwarder RVA -- msvcr120.?_sopen@@YAHPBDHHH@Z
+base[ 287] 1c20 Export RVA
+base[ 288] 16416 Forwarder RVA -- msvcr120.?_wopen@@YAHPB_WHH@Z
+base[ 289] 16434 Forwarder RVA -- msvcr120.?_wsopen@@YAHPB_WHHH@Z
+base[ 290] 16454 Forwarder RVA -- msvcr120.?before@type_info@@QBE_NABV1@@Z
+base[ 291] 1c40 Export RVA
+base[ 292] 1c60 Export RVA
+base[ 293] 1647d Forwarder RVA -- msvcr120.?get_error_code@scheduler_resource_allocation_error@Concurrency@@QBEJXZ
+base[ 294] 164ce Forwarder RVA -- msvcr120.?lock@critical_section@Concurrency@@QAEXXZ
+base[ 295] 16502 Forwarder RVA -- msvcr120.?lock@reader_writer_lock@Concurrency@@QAEXXZ
+base[ 296] 16538 Forwarder RVA -- msvcr120.?lock_read@reader_writer_lock@Concurrency@@QAEXXZ
+base[ 297] 16573 Forwarder RVA -- msvcr120.?name@type_info@@QBEPBDPAU__type_info_node@@@Z
+base[ 298] 165ab Forwarder RVA -- msvcr120.?native_handle@critical_section@Concurrency@@QAEAAV12@XZ
+base[ 299] 165ed Forwarder RVA -- msvcr120.?notify_all@_Condition_variable@details@Concurrency@@QAEXXZ
+base[ 300] 16632 Forwarder RVA -- msvcr120.?notify_one@_Condition_variable@details@Concurrency@@QAEXXZ
+base[ 301] 16677 Forwarder RVA -- msvcr120.?raw_name@type_info@@QBEPBDXZ
+base[ 302] 1669e Forwarder RVA -- msvcr120.?reset@event@Concurrency@@QAEXXZ
+base[ 303] 166c8 Forwarder RVA -- msvcr120.?set@event@Concurrency@@QAEXXZ
+base[ 304] 166f0 Forwarder RVA -- msvcr120.?set_new_handler@@YAP6AXXZP6AXXZ@Z
+base[ 305] 1c80 Export RVA
+base[ 306] 1ca0 Export RVA
+base[ 307] 1cc0 Export RVA
+base[ 308] 1671c Forwarder RVA -- msvcr120.?set_terminate@@YAP6AXXZP6AXXZ@Z
+base[ 309] 1ce0 Export RVA
+base[ 310] 16746 Forwarder RVA -- msvcr120.?set_unexpected@@YAP6AXXZP6AXXZ@Z
+base[ 311] 16771 Forwarder RVA -- msvcr120.?swprintf@@YAHPAGIPBGZZ
+base[ 312] 16792 Forwarder RVA -- msvcr120.?swprintf@@YAHPA_WIPB_WZZ
+base[ 313] 167b5 Forwarder RVA -- msvcr120.?terminate@@YAXXZ
+base[ 314] 167d0 Forwarder RVA -- msvcr120.?try_lock@critical_section@Concurrency@@QAE_NXZ
+base[ 315] 16809 Forwarder RVA -- msvcr120.?try_lock@reader_writer_lock@Concurrency@@QAE_NXZ
+base[ 316] 16844 Forwarder RVA -- msvcr120.?try_lock_for@critical_section@Concurrency@@QAE_NI@Z
+base[ 317] 16882 Forwarder RVA -- msvcr120.?try_lock_read@reader_writer_lock@Concurrency@@QAE_NXZ
+base[ 318] 168c2 Forwarder RVA -- msvcr120.?unexpected@@YAXXZ
+base[ 319] 168de Forwarder RVA -- msvcr120.?unlock@critical_section@Concurrency@@QAEXXZ
+base[ 320] 16914 Forwarder RVA -- msvcr120.?unlock@reader_writer_lock@Concurrency@@QAEXXZ
+base[ 321] 1694c Forwarder RVA -- msvcr120.?vswprintf@@YAHPA_WIPB_WPAD@Z
+base[ 322] 16973 Forwarder RVA -- msvcr120.?wait@Concurrency@@YAXI@Z
+base[ 323] 16996 Forwarder RVA -- msvcr120.?wait@_Condition_variable@details@Concurrency@@QAEXAAVcritical_section@3@@Z
+base[ 324] 169eb Forwarder RVA -- msvcr120.?wait@event@Concurrency@@QAEII@Z
+base[ 325] 16a15 Forwarder RVA -- msvcr120.?wait_for@_Condition_variable@details@Concurrency@@QAE_NAAVcritical_section@3@I@Z
+base[ 326] 16a70 Forwarder RVA -- msvcr120.?wait_for_multiple@event@Concurrency@@SAIPAPAV12@I_NI@Z
+base[ 327] 16ab1 Forwarder RVA -- msvcr120.?what@exception@std@@UBEPBDXZ
+base[ 328] 16ad8 Forwarder RVA -- msvcr120.$I10_OUTPUT
+base[ 329] 16aed Forwarder RVA -- msvcr120._CIacos
+base[ 330] 16afe Forwarder RVA -- msvcr120._CIasin
+base[ 331] 16b0f Forwarder RVA -- msvcr120._CIatan
+base[ 332] 16b20 Forwarder RVA -- msvcr120._CIatan2
+base[ 333] 16b32 Forwarder RVA -- msvcr120._CIcos
+base[ 334] 16b42 Forwarder RVA -- msvcr120._CIcosh
+base[ 335] 16b53 Forwarder RVA -- msvcr120._CIexp
+base[ 336] 16b63 Forwarder RVA -- msvcr120._CIfmod
+base[ 337] 16b74 Forwarder RVA -- msvcr120._CIlog
+base[ 338] 16b84 Forwarder RVA -- msvcr120._CIlog10
+base[ 339] 16b96 Forwarder RVA -- msvcr120._CIpow
+base[ 340] 16ba6 Forwarder RVA -- msvcr120._CIsin
+base[ 341] 16bb6 Forwarder RVA -- msvcr120._CIsinh
+base[ 342] 16bc7 Forwarder RVA -- msvcr120._CIsqrt
+base[ 343] 16bd8 Forwarder RVA -- msvcr120._CItan
+base[ 344] 16be8 Forwarder RVA -- msvcr120._CItanh
+base[ 345] 16bf9 Forwarder RVA -- msvcr120._Cbuild
+base[ 346] 16c0a Forwarder RVA -- msvcr120._CreateFrameInfo
+base[ 347] 16c24 Forwarder RVA -- msvcr120._CxxThrowException
+base[ 348] 16c40 Forwarder RVA -- msvcr120._EH_prolog
+base[ 349] 16c54 Forwarder RVA -- msvcr120._FCbuild
+base[ 350] 16c66 Forwarder RVA -- msvcr120._FindAndUnlinkFrame
+base[ 351] 16c83 Forwarder RVA -- msvcr120._Getdays
+base[ 352] 16c95 Forwarder RVA -- msvcr120._Getmonths
+base[ 353] 16ca9 Forwarder RVA -- msvcr120._Gettnames
+base[ 354] 16cbd Forwarder RVA -- msvcr120._HUGE
+base[ 355] 16ccc Forwarder RVA -- msvcr120._IsExceptionObjectToBeDestroyed
+base[ 356] 1d00 Export RVA
+base[ 357] 1d20 Export RVA
+base[ 358] 1d40 Export RVA
+base[ 359] 1d60 Export RVA
+base[ 360] 16cf5 Forwarder RVA -- msvcr120._SetWinRTOutOfMemoryExceptionCallback
+base[ 361] 16d24 Forwarder RVA -- msvcr120._Strftime
+base[ 362] 16d37 Forwarder RVA -- msvcr120._W_Getdays
+base[ 363] 16d4b Forwarder RVA -- msvcr120._W_Getmonths
+base[ 364] 16d61 Forwarder RVA -- msvcr120._W_Gettnames
+base[ 365] 16d77 Forwarder RVA -- msvcr120._Wcsftime
+base[ 366] 16d8a Forwarder RVA -- msvcr120._XcptFilter
+base[ 367] 16d9f Forwarder RVA -- msvcr120.__AdjustPointer
+base[ 368] 1d80 Export RVA
+base[ 369] 1da0 Export RVA
+base[ 370] 16db8 Forwarder RVA -- msvcr120.__CppXcptFilter
+base[ 371] 16dd1 Forwarder RVA -- msvcr120.__CxxDetectRethrow
+base[ 372] 16ded Forwarder RVA -- msvcr120.__CxxExceptionFilter
+base[ 373] 16e0b Forwarder RVA -- msvcr120.__CxxFrameHandler
+base[ 374] 16e26 Forwarder RVA -- msvcr120.__CxxFrameHandler2
+base[ 375] 16e42 Forwarder RVA -- msvcr120.__CxxFrameHandler3
+base[ 376] 16e5e Forwarder RVA -- msvcr120.__CxxLongjmpUnwind
+base[ 377] 16e7a Forwarder RVA -- msvcr120.__CxxQueryExceptionSize
+base[ 378] 16e9b Forwarder RVA -- msvcr120.__CxxRegisterExceptionObject
+base[ 379] 16ec1 Forwarder RVA -- msvcr120.__CxxUnregisterExceptionObject
+base[ 380] 16ee9 Forwarder RVA -- msvcr120.__DestructExceptionObject
+base[ 381] 1dc0 Export RVA
+base[ 382] 1de0 Export RVA
+base[ 383] 16f0c Forwarder RVA -- msvcr120.__RTCastToVoid
+base[ 384] 16f24 Forwarder RVA -- msvcr120.__RTDynamicCast
+base[ 385] 16f3d Forwarder RVA -- msvcr120.__RTtypeid
+base[ 386] 16f51 Forwarder RVA -- msvcr120.__STRINGTOLD
+base[ 387] 16f67 Forwarder RVA -- msvcr120.__STRINGTOLD_L
+base[ 388] 1e00 Export RVA
+base[ 389] 16f7f Forwarder RVA -- msvcr120.___lc_codepage_func
+base[ 390] 16f9c Forwarder RVA -- msvcr120.___lc_collate_cp_func
+base[ 391] 16fbb Forwarder RVA -- msvcr120.___lc_locale_name_func
+base[ 392] 16fdb Forwarder RVA -- msvcr120.___mb_cur_max_func
+base[ 393] 16ff7 Forwarder RVA -- msvcr120.___mb_cur_max_l_func
+base[ 394] 17015 Forwarder RVA -- msvcr120.___setlc_active_func
+base[ 395] 17033 Forwarder RVA -- msvcr120.___unguarded_readlc_active_add_func
+base[ 396] 17060 Forwarder RVA -- msvcr120.__argc
+base[ 397] 17070 Forwarder RVA -- msvcr120.__argv
+base[ 398] 17080 Forwarder RVA -- msvcr120.__badioinfo
+base[ 399] 17095 Forwarder RVA -- msvcr120.__clean_type_info_names_internal
+base[ 400] 170bf Forwarder RVA -- msvcr120.__control87_2
+base[ 401] 170d6 Forwarder RVA -- msvcr120.__create_locale
+base[ 402] 1e20 Export RVA
+base[ 403] 170ef Forwarder RVA -- msvcr120.__crtCompareStringA
+base[ 404] 1710c Forwarder RVA -- msvcr120.__crtCompareStringW
+base[ 405] 1e40 Export RVA
+base[ 406] 1e60 Export RVA
+base[ 407] 1e80 Export RVA
+base[ 408] 1ea0 Export RVA
+base[ 409] 1ec0 Export RVA
+base[ 410] 17129 Forwarder RVA -- msvcr120.__crtLCMapStringA
+base[ 411] 17144 Forwarder RVA -- msvcr120.__crtLCMapStringW
+base[ 412] 1715f Forwarder RVA -- msvcr120.__crtSleep
+base[ 413] 1ee0 Export RVA
+base[ 414] 17173 Forwarder RVA -- msvcr120.__daylight
+base[ 415] 17187 Forwarder RVA -- msvcr120.__dllonexit
+base[ 416] 1719c Forwarder RVA -- msvcr120.__doserrno
+base[ 417] 171b0 Forwarder RVA -- msvcr120.__dstbias
+base[ 418] 171c3 Forwarder RVA -- msvcr120.__fpecode
+base[ 419] 171d6 Forwarder RVA -- msvcr120.__free_locale
+base[ 420] 171ed Forwarder RVA -- msvcr120.__get_current_locale
+base[ 421] 1f00 Export RVA
+base[ 422] 1f20 Export RVA
+base[ 423] 1720b Forwarder RVA -- msvcr120.__getmainargs
+base[ 424] 17222 Forwarder RVA -- msvcr120.__initenv
+base[ 425] 17235 Forwarder RVA -- msvcr120.__iob_func
+base[ 426] 17249 Forwarder RVA -- msvcr120.__isascii
+base[ 427] 1725c Forwarder RVA -- msvcr120.__iscsym
+base[ 428] 1726e Forwarder RVA -- msvcr120.__iscsymf
+base[ 429] 17281 Forwarder RVA -- msvcr120.__iswcsym
+base[ 430] 17294 Forwarder RVA -- msvcr120.__iswcsymf
+base[ 431] 172a8 Forwarder RVA -- msvcr120.__lconv_init
+base[ 432] 172be Forwarder RVA -- msvcr120.__libm_sse2_acos
+base[ 433] 172d8 Forwarder RVA -- msvcr120.__libm_sse2_acosf
+base[ 434] 172f3 Forwarder RVA -- msvcr120.__libm_sse2_asin
+base[ 435] 1730d Forwarder RVA -- msvcr120.__libm_sse2_asinf
+base[ 436] 17328 Forwarder RVA -- msvcr120.__libm_sse2_atan
+base[ 437] 17342 Forwarder RVA -- msvcr120.__libm_sse2_atan2
+base[ 438] 1735d Forwarder RVA -- msvcr120.__libm_sse2_atanf
+base[ 439] 17378 Forwarder RVA -- msvcr120.__libm_sse2_cos
+base[ 440] 17391 Forwarder RVA -- msvcr120.__libm_sse2_cosf
+base[ 441] 173ab Forwarder RVA -- msvcr120.__libm_sse2_exp
+base[ 442] 173c4 Forwarder RVA -- msvcr120.__libm_sse2_expf
+base[ 443] 173de Forwarder RVA -- msvcr120.__libm_sse2_log
+base[ 444] 173f7 Forwarder RVA -- msvcr120.__libm_sse2_log10
+base[ 445] 17412 Forwarder RVA -- msvcr120.__libm_sse2_log10f
+base[ 446] 1742e Forwarder RVA -- msvcr120.__libm_sse2_logf
+base[ 447] 17448 Forwarder RVA -- msvcr120.__libm_sse2_pow
+base[ 448] 17461 Forwarder RVA -- msvcr120.__libm_sse2_powf
+base[ 449] 1747b Forwarder RVA -- msvcr120.__libm_sse2_sin
+base[ 450] 17494 Forwarder RVA -- msvcr120.__libm_sse2_sinf
+base[ 451] 174ae Forwarder RVA -- msvcr120.__libm_sse2_tan
+base[ 452] 174c7 Forwarder RVA -- msvcr120.__libm_sse2_tanf
+base[ 453] 174e1 Forwarder RVA -- msvcr120.__mb_cur_max
+base[ 454] 174f7 Forwarder RVA -- msvcr120.__p___argc
+base[ 455] 1750b Forwarder RVA -- msvcr120.__p___argv
+base[ 456] 1751f Forwarder RVA -- msvcr120.__p___mb_cur_max
+base[ 457] 17539 Forwarder RVA -- msvcr120.__p___wargv
+base[ 458] 1754e Forwarder RVA -- msvcr120.__p__acmdln
+base[ 459] 17563 Forwarder RVA -- msvcr120.__p__commode
+base[ 460] 17579 Forwarder RVA -- msvcr120.__p__daylight
+base[ 461] 17590 Forwarder RVA -- msvcr120.__p__dstbias
+base[ 462] 175a6 Forwarder RVA -- msvcr120.__p__fmode
+base[ 463] 175ba Forwarder RVA -- msvcr120.__p__iob
+base[ 464] 175cc Forwarder RVA -- msvcr120.__p__mbcasemap
+base[ 465] 175e4 Forwarder RVA -- msvcr120.__p__mbctype
+base[ 466] 175fa Forwarder RVA -- msvcr120.__p__pctype
+base[ 467] 1760f Forwarder RVA -- msvcr120.__p__pgmptr
+base[ 468] 17624 Forwarder RVA -- msvcr120.__p__pwctype
+base[ 469] 1763a Forwarder RVA -- msvcr120.__p__timezone
+base[ 470] 17651 Forwarder RVA -- msvcr120.__p__tzname
+base[ 471] 17666 Forwarder RVA -- msvcr120.__p__wcmdln
+base[ 472] 1767b Forwarder RVA -- msvcr120.__p__wpgmptr
+base[ 473] 17691 Forwarder RVA -- msvcr120.__pctype_func
+base[ 474] 176a8 Forwarder RVA -- msvcr120.__pioinfo
+base[ 475] 176bb Forwarder RVA -- msvcr120.__pwctype_func
+base[ 476] 176d3 Forwarder RVA -- msvcr120.__pxcptinfoptrs
+base[ 477] 1f40 Export RVA
+base[ 478] 176ec Forwarder RVA -- msvcr120.__setlc_active
+base[ 479] 17704 Forwarder RVA -- msvcr120.__setusermatherr
+base[ 480] 1771e Forwarder RVA -- msvcr120.__strncnt
+base[ 481] 17731 Forwarder RVA -- msvcr120.__swprintf_l
+base[ 482] 17747 Forwarder RVA -- msvcr120.__sys_errlist
+base[ 483] 1775e Forwarder RVA -- msvcr120.__sys_nerr
+base[ 484] 17772 Forwarder RVA -- msvcr120.__threadhandle
+base[ 485] 1778a Forwarder RVA -- msvcr120.__threadid
+base[ 486] 1779e Forwarder RVA -- msvcr120.__timezone
+base[ 487] 177b2 Forwarder RVA -- msvcr120.__toascii
+base[ 488] 177c5 Forwarder RVA -- msvcr120.__tzname
+base[ 489] 177d7 Forwarder RVA -- msvcr120.__unDName
+base[ 490] 177ea Forwarder RVA -- msvcr120.__unDNameEx
+base[ 491] 1f60 Export RVA
+base[ 492] 177ff Forwarder RVA -- msvcr120.__unguarded_readlc_active
+base[ 493] 17822 Forwarder RVA -- msvcr120.__vswprintf_l
+base[ 494] 17839 Forwarder RVA -- msvcr120.__wargv
+base[ 495] 1784a Forwarder RVA -- msvcr120.__wcserror
+base[ 496] 1785e Forwarder RVA -- msvcr120.__wcserror_s
+base[ 497] 1f80 Export RVA
+base[ 498] 17874 Forwarder RVA -- msvcr120.__wgetmainargs
+base[ 499] 1788c Forwarder RVA -- msvcr120.__winitenv
+base[ 500] 178a0 Forwarder RVA -- msvcr120._abnormal_termination
