+base[   1] 91f5 Forwarder RVA -- msvcirt.??0Iostream_init@@QAE@AAVios@@H@Z
+base[   2] 921f Forwarder RVA -- msvcirt.??0Iostream_init@@QAE@XZ
+base[   3] 9240 Forwarder RVA -- msvcirt.??0filebuf@@QAE@ABV0@@Z
+base[   4] 9260 Forwarder RVA -- msvcirt.??0filebuf@@QAE@H@Z
+base[   5] 927c Forwarder RVA -- msvcirt.??0filebuf@@QAE@HPADH@Z
+base[   6] 929c Forwarder RVA -- msvcirt.??0filebuf@@QAE@XZ
+base[   7] 92b7 Forwarder RVA -- msvcirt.??0fstream@@QAE@ABV0@@Z
+base[   8] 92d7 Forwarder RVA -- msvcirt.??0fstream@@QAE@H@Z
+base[   9] 92f3 Forwarder RVA -- msvcirt.??0fstream@@QAE@HPADH@Z
+base[  10] 9313 Forwarder RVA -- msvcirt.??0fstream@@QAE@PBDHH@Z
+base[  11] 9333 Forwarder RVA -- msvcirt.??0fstream@@QAE@XZ
+base[  12] 934e Forwarder RVA -- msvcirt.??0ifstream@@QAE@ABV0@@Z
+base[  13] 936f Forwarder RVA -- msvcirt.??0ifstream@@QAE@H@Z
+base[  14] 938c Forwarder RVA -- msvcirt.??0ifstream@@QAE@HPADH@Z
+base[  15] 93ad Forwarder RVA -- msvcirt.??0ifstream@@QAE@PBDHH@Z
+base[  16] 93ce Forwarder RVA -- msvcirt.??0ifstream@@QAE@XZ
+base[  17] 93ea Forwarder RVA -- msvcirt.??0ios@@IAE@ABV0@@Z
+base[  18] 9406 Forwarder RVA -- msvcirt.??0ios@@IAE@XZ
+base[  19] 941d Forwarder RVA -- msvcirt.??0ios@@QAE@PAVstreambuf@@@Z
+base[  20] 9442 Forwarder RVA -- msvcirt.??0iostream@@IAE@ABV0@@Z
+base[  21] 9463 Forwarder RVA -- msvcirt.??0iostream@@IAE@XZ
+base[  22] 947f Forwarder RVA -- msvcirt.??0iostream@@QAE@PAVstreambuf@@@Z
+base[  23] 94a9 Forwarder RVA -- msvcirt.??0istream@@IAE@ABV0@@Z
+base[  24] 94c9 Forwarder RVA -- msvcirt.??0istream@@IAE@XZ
+base[  25] 94e4 Forwarder RVA -- msvcirt.??0istream@@QAE@PAVstreambuf@@@Z
+base[  26] 950d Forwarder RVA -- msvcirt.??0istream_withassign@@QAE@ABV0@@Z
+base[  27] 9538 Forwarder RVA -- msvcirt.??0istream_withassign@@QAE@PAVstreambuf@@@Z
+base[  28] 956c Forwarder RVA -- msvcirt.??0istream_withassign@@QAE@XZ
+base[  29] 9592 Forwarder RVA -- msvcirt.??0istrstream@@QAE@ABV0@@Z
+base[  30] 95b5 Forwarder RVA -- msvcirt.??0istrstream@@QAE@PAD@Z
+base[  31] 95d6 Forwarder RVA -- msvcirt.??0istrstream@@QAE@PADH@Z
+base[  32] 95f8 Forwarder RVA -- msvcirt.??0ofstream@@QAE@ABV0@@Z
+base[  33] 9619 Forwarder RVA -- msvcirt.??0ofstream@@QAE@H@Z
+base[  34] 9636 Forwarder RVA -- msvcirt.??0ofstream@@QAE@HPADH@Z
+base[  35] 9657 Forwarder RVA -- msvcirt.??0ofstream@@QAE@PBDHH@Z
+base[  36] 9678 Forwarder RVA -- msvcirt.??0ofstream@@QAE@XZ
+base[  37] 9694 Forwarder RVA -- msvcirt.??0ostream@@IAE@ABV0@@Z
+base[  38] 96b4 Forwarder RVA -- msvcirt.??0ostream@@IAE@XZ
+base[  39] 96cf Forwarder RVA -- msvcirt.??0ostream@@QAE@PAVstreambuf@@@Z
+base[  40] 96f8 Forwarder RVA -- msvcirt.??0ostream_withassign@@QAE@ABV0@@Z
+base[  41] 9723 Forwarder RVA -- msvcirt.??0ostream_withassign@@QAE@PAVstreambuf@@@Z
+base[  42] 9757 Forwarder RVA -- msvcirt.??0ostream_withassign@@QAE@XZ
+base[  43] 977d Forwarder RVA -- msvcirt.??0ostrstream@@QAE@ABV0@@Z
+base[  44] 97a0 Forwarder RVA -- msvcirt.??0ostrstream@@QAE@PADHH@Z
+base[  45] 97c3 Forwarder RVA -- msvcirt.??0ostrstream@@QAE@XZ
+base[  46] 97e1 Forwarder RVA -- msvcirt.??0stdiobuf@@QAE@ABV0@@Z
+base[  47] 9802 Forwarder RVA -- msvcirt.??0stdiobuf@@QAE@PAU_iobuf@@@Z
+base[  48] 9829 Forwarder RVA -- msvcirt.??0stdiostream@@QAE@ABV0@@Z
+base[  49] 984d Forwarder RVA -- msvcirt.??0stdiostream@@QAE@PAU_iobuf@@@Z
+base[  50] 9877 Forwarder RVA -- msvcirt.??0streambuf@@IAE@PADH@Z
+base[  51] 9898 Forwarder RVA -- msvcirt.??0streambuf@@IAE@XZ
+base[  52] 98b5 Forwarder RVA -- msvcirt.??0streambuf@@QAE@ABV0@@Z
+base[  53] 98d7 Forwarder RVA -- msvcirt.??0strstream@@QAE@ABV0@@Z
+base[  54] 98f9 Forwarder RVA -- msvcirt.??0strstream@@QAE@PADHH@Z
+base[  55] 991b Forwarder RVA -- msvcirt.??0strstream@@QAE@XZ
+base[  56] 9938 Forwarder RVA -- msvcirt.??0strstreambuf@@QAE@ABV0@@Z
+base[  57] 995d Forwarder RVA -- msvcirt.??0strstreambuf@@QAE@H@Z
+base[  58] 997e Forwarder RVA -- msvcirt.??0strstreambuf@@QAE@P6APAXJ@ZP6AXPAX@Z@Z
+base[  59] 99b0 Forwarder RVA -- msvcirt.??0strstreambuf@@QAE@PADH0@Z
+base[  60] 99d5 Forwarder RVA -- msvcirt.??0strstreambuf@@QAE@XZ
+base[  61] 99f5 Forwarder RVA -- msvcirt.??1Iostream_init@@QAE@XZ
+base[  62] 9a16 Forwarder RVA -- msvcirt.??1filebuf@@UAE@XZ
+base[  63] 9a31 Forwarder RVA -- msvcirt.??1fstream@@UAE@XZ
+base[  64] 9a4c Forwarder RVA -- msvcirt.??1ifstream@@UAE@XZ
+base[  65] 9a68 Forwarder RVA -- msvcirt.??1ios@@UAE@XZ
+base[  66] 9a7f Forwarder RVA -- msvcirt.??1iostream@@UAE@XZ
+base[  67] 9a9b Forwarder RVA -- msvcirt.??1istream@@UAE@XZ
+base[  68] 9ab6 Forwarder RVA -- msvcirt.??1istream_withassign@@UAE@XZ
+base[  69] 9adc Forwarder RVA -- msvcirt.??1istrstream@@UAE@XZ
+base[  70] 9afa Forwarder RVA -- msvcirt.??1ofstream@@UAE@XZ
+base[  71] 9b16 Forwarder RVA -- msvcirt.??1ostream@@UAE@XZ
+base[  72] 9b31 Forwarder RVA -- msvcirt.??1ostream_withassign@@UAE@XZ
+base[  73] 9b57 Forwarder RVA -- msvcirt.??1ostrstream@@UAE@XZ
+base[  74] 9b75 Forwarder RVA -- msvcirt.??1stdiobuf@@UAE@XZ
+base[  75] 9b91 Forwarder RVA -- msvcirt.??1stdiostream@@UAE@XZ
+base[  76] 9bb0 Forwarder RVA -- msvcirt.??1streambuf@@UAE@XZ
+base[  77] 9bcd Forwarder RVA -- msvcirt.??1strstream@@UAE@XZ
+base[  78] 9bea Forwarder RVA -- msvcirt.??1strstreambuf@@UAE@XZ
+base[  79] 9c0a Forwarder RVA -- msvcrt.??2@YAPAXI@Z
+base[  80] 9c1e Forwarder RVA -- msvcrt.??3@YAXPAX@Z
+base[  81] 9c32 Forwarder RVA -- msvcirt.??4Iostream_init@@QAEAAV0@ABV0@@Z
+base[  82] 9c5c Forwarder RVA -- msvcirt.??4filebuf@@QAEAAV0@ABV0@@Z
+base[  83] 9c80 Forwarder RVA -- msvcirt.??4fstream@@QAEAAV0@AAV0@@Z
+base[  84] 9ca4 Forwarder RVA -- msvcirt.??4ifstream@@QAEAAV0@ABV0@@Z
+base[  85] 9cc9 Forwarder RVA -- msvcirt.??4ios@@IAEAAV0@ABV0@@Z
+base[  86] 9ce9 Forwarder RVA -- msvcirt.??4iostream@@IAEAAV0@AAV0@@Z
+base[  87] 9d0e Forwarder RVA -- msvcirt.??4iostream@@IAEAAV0@PAVstreambuf@@@Z
+base[  88] 9d3c Forwarder RVA -- msvcirt.??4istream@@IAEAAV0@ABV0@@Z
+base[  89] 9d60 Forwarder RVA -- msvcirt.??4istream@@IAEAAV0@PAVstreambuf@@@Z
+base[  90] 9d8d Forwarder RVA -- msvcirt.??4istream_withassign@@QAEAAV0@ABV0@@Z
+base[  91] 9dbc Forwarder RVA -- msvcirt.??4istream_withassign@@QAEAAVistream@@ABV1@@Z
+base[  92] 9df2 Forwarder RVA -- msvcirt.??4istream_withassign@@QAEAAVistream@@PAVstreambuf@@@Z
+base[  93] 9e31 Forwarder RVA -- msvcirt.??4istrstream@@QAEAAV0@ABV0@@Z
+base[  94] 9e58 Forwarder RVA -- msvcirt.??4ofstream@@QAEAAV0@ABV0@@Z
+base[  95] 9e7d Forwarder RVA -- msvcirt.??4ostream@@IAEAAV0@ABV0@@Z
+base[  96] 9ea1 Forwarder RVA -- msvcirt.??4ostream@@IAEAAV0@PAVstreambuf@@@Z
+base[  97] 9ece Forwarder RVA -- msvcirt.??4ostream_withassign@@QAEAAV0@ABV0@@Z
+base[  98] 9efd Forwarder RVA -- msvcirt.??4ostream_withassign@@QAEAAVostream@@ABV1@@Z
+base[  99] 9f33 Forwarder RVA -- msvcirt.??4ostream_withassign@@QAEAAVostream@@PAVstreambuf@@@Z
+base[ 100] 9f72 Forwarder RVA -- msvcirt.??4ostrstream@@QAEAAV0@ABV0@@Z
+base[ 101] 9f99 Forwarder RVA -- msvcirt.??4stdiobuf@@QAEAAV0@ABV0@@Z
+base[ 102] 9fbe Forwarder RVA -- msvcirt.??4stdiostream@@QAEAAV0@AAV0@@Z
+base[ 103] 9fe6 Forwarder RVA -- msvcirt.??4streambuf@@QAEAAV0@ABV0@@Z
+base[ 104] a00c Forwarder RVA -- msvcirt.??4strstream@@QAEAAV0@AAV0@@Z
+base[ 105] a032 Forwarder RVA -- msvcirt.??4strstreambuf@@QAEAAV0@ABV0@@Z
+base[ 106] a05b Forwarder RVA -- msvcirt.??5istream@@QAEAAV0@AAC@Z
+base[ 107] a07d Forwarder RVA -- msvcirt.??5istream@@QAEAAV0@AAD@Z
+base[ 108] a09f Forwarder RVA -- msvcirt.??5istream@@QAEAAV0@AAE@Z
+base[ 109] a0c1 Forwarder RVA -- msvcirt.??5istream@@QAEAAV0@AAF@Z
+base[ 110] a0e3 Forwarder RVA -- msvcirt.??5istream@@QAEAAV0@AAG@Z
+base[ 111] a105 Forwarder RVA -- msvcirt.??5istream@@QAEAAV0@AAH@Z
+base[ 112] a127 Forwarder RVA -- msvcirt.??5istream@@QAEAAV0@AAI@Z
+base[ 113] a149 Forwarder RVA -- msvcirt.??5istream@@QAEAAV0@AAJ@Z
+base[ 114] a16b Forwarder RVA -- msvcirt.??5istream@@QAEAAV0@AAK@Z
+base[ 115] a18d Forwarder RVA -- msvcirt.??5istream@@QAEAAV0@AAM@Z
+base[ 116] a1af Forwarder RVA -- msvcirt.??5istream@@QAEAAV0@AAN@Z
+base[ 117] a1d1 Forwarder RVA -- msvcirt.??5istream@@QAEAAV0@AAO@Z
+base[ 118] a1f3 Forwarder RVA -- msvcirt.??5istream@@QAEAAV0@P6AAAV0@AAV0@@Z@Z
+base[ 119] a221 Forwarder RVA -- msvcirt.??5istream@@QAEAAV0@P6AAAVios@@AAV1@@Z@Z
+base[ 120] a252 Forwarder RVA -- msvcirt.??5istream@@QAEAAV0@PAC@Z
+base[ 121] a274 Forwarder RVA -- msvcirt.??5istream@@QAEAAV0@PAD@Z
+base[ 122] a296 Forwarder RVA -- msvcirt.??5istream@@QAEAAV0@PAE@Z
+base[ 123] a2b8 Forwarder RVA -- msvcirt.??5istream@@QAEAAV0@PAVstreambuf@@@Z
+base[ 124] a2e5 Forwarder RVA -- msvcirt.??6ostream@@QAEAAV0@C@Z
+base[ 125] a305 Forwarder RVA -- msvcirt.??6ostream@@QAEAAV0@D@Z
+base[ 126] a325 Forwarder RVA -- msvcirt.??6ostream@@QAEAAV0@E@Z
+base[ 127] a345 Forwarder RVA -- msvcirt.??6ostream@@QAEAAV0@F@Z
+base[ 128] a365 Forwarder RVA -- msvcirt.??6ostream@@QAEAAV0@G@Z
+base[ 129] a385 Forwarder RVA -- msvcirt.??6ostream@@QAEAAV0@H@Z
+base[ 130] a3a5 Forwarder RVA -- msvcirt.??6ostream@@QAEAAV0@I@Z
+base[ 131] a3c5 Forwarder RVA -- msvcirt.??6ostream@@QAEAAV0@J@Z
+base[ 132] a3e5 Forwarder RVA -- msvcirt.??6ostream@@QAEAAV0@K@Z
+base[ 133] a405 Forwarder RVA -- msvcirt.??6ostream@@QAEAAV0@M@Z
+base[ 134] a425 Forwarder RVA -- msvcirt.??6ostream@@QAEAAV0@N@Z
+base[ 135] a445 Forwarder RVA -- msvcirt.??6ostream@@QAEAAV0@O@Z
+base[ 136] a465 Forwarder RVA -- msvcirt.??6ostream@@QAEAAV0@P6AAAV0@AAV0@@Z@Z
+base[ 137] a493 Forwarder RVA -- msvcirt.??6ostream@@QAEAAV0@P6AAAVios@@AAV1@@Z@Z
+base[ 138] a4c4 Forwarder RVA -- msvcirt.??6ostream@@QAEAAV0@PAVstreambuf@@@Z
+base[ 139] a4f1 Forwarder RVA -- msvcirt.??6ostream@@QAEAAV0@PBC@Z
+base[ 140] a513 Forwarder RVA -- msvcirt.??6ostream@@QAEAAV0@PBD@Z
+base[ 141] a535 Forwarder RVA -- msvcirt.??6ostream@@QAEAAV0@PBE@Z
+base[ 142] a557 Forwarder RVA -- msvcirt.??6ostream@@QAEAAV0@PBX@Z
+base[ 143] a579 Forwarder RVA -- msvcirt.??7ios@@QBEHXZ
+base[ 144] a590 Forwarder RVA -- msvcirt.??Bios@@QBEPAXXZ
+base[ 145] a5a9 Forwarder RVA -- msvcirt.??_7filebuf@@6B@
+base[ 146] a5c2 Forwarder RVA -- msvcirt.??_7fstream@@6B@
+base[ 147] a5db Forwarder RVA -- msvcirt.??_7ifstream@@6B@
+base[ 148] a5f5 Forwarder RVA -- msvcirt.??_7ios@@6B@
+base[ 149] a60a Forwarder RVA -- msvcirt.??_7iostream@@6B@
+base[ 150] a624 Forwarder RVA -- msvcirt.??_7istream@@6B@
+base[ 151] a63d Forwarder RVA -- msvcirt.??_7istream_withassign@@6B@
+base[ 152] a661 Forwarder RVA -- msvcirt.??_7istrstream@@6B@
+base[ 153] a67d Forwarder RVA -- msvcirt.??_7ofstream@@6B@
+base[ 154] a697 Forwarder RVA -- msvcirt.??_7ostream@@6B@
+base[ 155] a6b0 Forwarder RVA -- msvcirt.??_7ostream_withassign@@6B@
+base[ 156] a6d4 Forwarder RVA -- msvcirt.??_7ostrstream@@6B@
+base[ 157] a6f0 Forwarder RVA -- msvcirt.??_7stdiobuf@@6B@
+base[ 158] a70a Forwarder RVA -- msvcirt.??_7stdiostream@@6B@
+base[ 159] a727 Forwarder RVA -- msvcirt.??_7streambuf@@6B@
+base[ 160] a742 Forwarder RVA -- msvcirt.??_7strstream@@6B@
+base[ 161] a75d Forwarder RVA -- msvcirt.??_7strstreambuf@@6B@
+base[ 162] a77b Forwarder RVA -- msvcirt.??_8fstream@@7Bistream@@@
+base[ 163] a79d Forwarder RVA -- msvcirt.??_8fstream@@7Bostream@@@
+base[ 164] a7bf Forwarder RVA -- msvcirt.??_8ifstream@@7B@
+base[ 165] a7d9 Forwarder RVA -- msvcirt.??_8iostream@@7Bistream@@@
+base[ 166] a7fc Forwarder RVA -- msvcirt.??_8iostream@@7Bostream@@@
+base[ 167] a81f Forwarder RVA -- msvcirt.??_8istream@@7B@
+base[ 168] a838 Forwarder RVA -- msvcirt.??_8istream_withassign@@7B@
+base[ 169] a85c Forwarder RVA -- msvcirt.??_8istrstream@@7B@
+base[ 170] a878 Forwarder RVA -- msvcirt.??_8ofstream@@7B@
+base[ 171] a892 Forwarder RVA -- msvcirt.??_8ostream@@7B@
+base[ 172] a8ab Forwarder RVA -- msvcirt.??_8ostream_withassign@@7B@
+base[ 173] a8cf Forwarder RVA -- msvcirt.??_8ostrstream@@7B@
+base[ 174] a8eb Forwarder RVA -- msvcirt.??_8stdiostream@@7Bistream@@@
+base[ 175] a911 Forwarder RVA -- msvcirt.??_8stdiostream@@7Bostream@@@
+base[ 176] a937 Forwarder RVA -- msvcirt.??_8strstream@@7Bistream@@@
+base[ 177] a95b Forwarder RVA -- msvcirt.??_8strstream@@7Bostream@@@
+base[ 178] a97f Forwarder RVA -- msvcirt.??_Dfstream@@QAEXXZ
+base[ 179] a99b Forwarder RVA -- msvcirt.??_Difstream@@QAEXXZ
+base[ 180] a9b8 Forwarder RVA -- msvcirt.??_Diostream@@QAEXXZ
+base[ 181] a9d5 Forwarder RVA -- msvcirt.??_Distream@@QAEXXZ
+base[ 182] a9f1 Forwarder RVA -- msvcirt.??_Distream_withassign@@QAEXXZ
+base[ 183] aa18 Forwarder RVA -- msvcirt.??_Distrstream@@QAEXXZ
+base[ 184] aa37 Forwarder RVA -- msvcirt.??_Dofstream@@QAEXXZ
+base[ 185] aa54 Forwarder RVA -- msvcirt.??_Dostream@@QAEXXZ
+base[ 186] aa70 Forwarder RVA -- msvcirt.??_Dostream_withassign@@QAEXXZ
+base[ 187] aa97 Forwarder RVA -- msvcirt.??_Dostrstream@@QAEXXZ
+base[ 188] aab6 Forwarder RVA -- msvcirt.??_Dstdiostream@@QAEXXZ
+base[ 189] aad6 Forwarder RVA -- msvcirt.??_Dstrstream@@QAEXXZ
+base[ 190] 1000 Export RVA
+base[ 191] aaf4 Forwarder RVA -- msvcirt.??_Efilebuf@@UAEPAXI@Z
+base[ 192] ab13 Forwarder RVA -- msvcirt.??_Efstream@@UAEPAXI@Z
+base[ 193] ab32 Forwarder RVA -- msvcirt.??_Eifstream@@UAEPAXI@Z
+base[ 194] ab52 Forwarder RVA -- msvcirt.??_Eios@@UAEPAXI@Z
+base[ 195] ab6d Forwarder RVA -- msvcirt.??_Eiostream@@UAEPAXI@Z
+base[ 196] ab8d Forwarder RVA -- msvcirt.??_Eistream@@UAEPAXI@Z
+base[ 197] abac Forwarder RVA -- msvcirt.??_Eistream_withassign@@UAEPAXI@Z
+base[ 198] abd6 Forwarder RVA -- msvcirt.??_Eistrstream@@UAEPAXI@Z
+base[ 199] abf8 Forwarder RVA -- msvcirt.??_Eofstream@@UAEPAXI@Z
+base[ 200] ac18 Forwarder RVA -- msvcirt.??_Eostream@@UAEPAXI@Z
+base[ 201] ac37 Forwarder RVA -- msvcirt.??_Eostream_withassign@@UAEPAXI@Z
+base[ 202] ac61 Forwarder RVA -- msvcirt.??_Eostrstream@@UAEPAXI@Z
+base[ 203] ac83 Forwarder RVA -- msvcirt.??_Estdiobuf@@UAEPAXI@Z
+base[ 204] aca3 Forwarder RVA -- msvcirt.??_Estdiostream@@UAEPAXI@Z
+base[ 205] acc6 Forwarder RVA -- msvcirt.??_Estreambuf@@UAEPAXI@Z
+base[ 206] ace7 Forwarder RVA -- msvcirt.??_Estrstream@@UAEPAXI@Z
+base[ 207] ad08 Forwarder RVA -- msvcirt.??_Estrstreambuf@@UAEPAXI@Z
+base[ 208] 1020 Export RVA
+base[ 209] ad2c Forwarder RVA -- msvcirt.??_Gfilebuf@@UAEPAXI@Z
+base[ 210] ad4b Forwarder RVA -- msvcirt.??_Gfstream@@UAEPAXI@Z
+base[ 211] ad6a Forwarder RVA -- msvcirt.??_Gifstream@@UAEPAXI@Z
+base[ 212] ad8a Forwarder RVA -- msvcirt.??_Gios@@UAEPAXI@Z
+base[ 213] ada5 Forwarder RVA -- msvcirt.??_Giostream@@UAEPAXI@Z
+base[ 214] adc5 Forwarder RVA -- msvcirt.??_Gistream@@UAEPAXI@Z
+base[ 215] ade4 Forwarder RVA -- msvcirt.??_Gistream_withassign@@UAEPAXI@Z
+base[ 216] ae0e Forwarder RVA -- msvcirt.??_Gistrstream@@UAEPAXI@Z
+base[ 217] ae30 Forwarder RVA -- msvcirt.??_Gofstream@@UAEPAXI@Z
+base[ 218] ae50 Forwarder RVA -- msvcirt.??_Gostream@@UAEPAXI@Z
+base[ 219] ae6f Forwarder RVA -- msvcirt.??_Gostream_withassign@@UAEPAXI@Z
+base[ 220] ae99 Forwarder RVA -- msvcirt.??_Gostrstream@@UAEPAXI@Z
+base[ 221] aebb Forwarder RVA -- msvcirt.??_Gstdiobuf@@UAEPAXI@Z
+base[ 222] aedb Forwarder RVA -- msvcirt.??_Gstdiostream@@UAEPAXI@Z
+base[ 223] aefe Forwarder RVA -- msvcirt.??_Gstreambuf@@UAEPAXI@Z
+base[ 224] af1f Forwarder RVA -- msvcirt.??_Gstrstream@@UAEPAXI@Z
+base[ 225] af40 Forwarder RVA -- msvcirt.??_Gstrstreambuf@@UAEPAXI@Z
+base[ 226] af64 Forwarder RVA -- msvcrt.?_query_new_handler@@YAP6AHI@ZXZ
+base[ 227] af8c Forwarder RVA -- msvcrt.?_query_new_mode@@YAHXZ
+base[ 228] afab Forwarder RVA -- msvcrt.?_set_new_handler@@YAP6AHI@ZP6AHI@Z@Z
+base[ 229] afd8 Forwarder RVA -- msvcrt.?_set_new_mode@@YAHH@Z
+base[ 230] aff6 Forwarder RVA -- msvcrt.?_set_se_translator@@YAP6AXIPAU_EXCEPTION_POINTERS@@@ZP6AXI0@Z@Z
+base[ 231] b03e Forwarder RVA -- msvcirt.?adjustfield@ios@@2JB
+base[ 232] b05c Forwarder RVA -- msvcirt.?allocate@streambuf@@IAEHXZ
+base[ 233] b080 Forwarder RVA -- msvcirt.?attach@filebuf@@QAEPAV1@H@Z
+base[ 234] b0a5 Forwarder RVA -- msvcirt.?attach@fstream@@QAEXH@Z
+base[ 235] b0c6 Forwarder RVA -- msvcirt.?attach@ifstream@@QAEXH@Z
+base[ 236] b0e8 Forwarder RVA -- msvcirt.?attach@ofstream@@QAEXH@Z
+base[ 237] b10a Forwarder RVA -- msvcirt.?bad@ios@@QBEHXZ
+base[ 238] b123 Forwarder RVA -- msvcirt.?base@streambuf@@IBEPADXZ
+base[ 239] b145 Forwarder RVA -- msvcirt.?basefield@ios@@2JB
+base[ 240] b161 Forwarder RVA -- msvcirt.?binary@filebuf@@2HB
+base[ 241] b17e Forwarder RVA -- msvcirt.?bitalloc@ios@@SAJXZ
+base[ 242] b19b Forwarder RVA -- msvcirt.?blen@streambuf@@IBEHXZ
+base[ 243] b1bb Forwarder RVA -- msvcirt.?cerr@@3Vostream_withassign@@A
+base[ 244] b1e2 Forwarder RVA -- msvcirt.?cin@@3Vistream_withassign@@A
+base[ 245] b208 Forwarder RVA -- msvcirt.?clear@ios@@QAEXH@Z
+base[ 246] b224 Forwarder RVA -- msvcirt.?clog@@3Vostream_withassign@@A
+base[ 247] b24b Forwarder RVA -- msvcirt.?close@filebuf@@QAEPAV1@XZ
+base[ 248] b26e Forwarder RVA -- msvcirt.?close@fstream@@QAEXXZ
+base[ 249] b28d Forwarder RVA -- msvcirt.?close@ifstream@@QAEXXZ
+base[ 250] b2ad Forwarder RVA -- msvcirt.?close@ofstream@@QAEXXZ
+base[ 251] b2cd Forwarder RVA -- msvcirt.?clrlock@ios@@QAAXXZ
+base[ 252] b2ea Forwarder RVA -- msvcirt.?clrlock@streambuf@@QAEXXZ
+base[ 253] b30d Forwarder RVA -- msvcirt.?cout@@3Vostream_withassign@@A
+base[ 254] b334 Forwarder RVA -- msvcirt.?dbp@streambuf@@QAEXXZ
+base[ 255] b353 Forwarder RVA -- msvcirt.?dec@@YAAAVios@@AAV1@@Z
+base[ 256] b373 Forwarder RVA -- msvcirt.?delbuf@ios@@QAEXH@Z
+base[ 257] b390 Forwarder RVA -- msvcirt.?delbuf@ios@@QBEHXZ
+base[ 258] b3ac Forwarder RVA -- msvcirt.?doallocate@streambuf@@MAEHXZ
+base[ 259] b3d2 Forwarder RVA -- msvcirt.?doallocate@strstreambuf@@MAEHXZ
+base[ 260] b3fb Forwarder RVA -- msvcirt.?eatwhite@istream@@QAEXXZ
+base[ 261] b41d Forwarder RVA -- msvcirt.?eback@streambuf@@IBEPADXZ
+base[ 262] b440 Forwarder RVA -- msvcirt.?ebuf@streambuf@@IBEPADXZ
+base[ 263] b462 Forwarder RVA -- msvcirt.?egptr@streambuf@@IBEPADXZ
+base[ 264] b485 Forwarder RVA -- msvcirt.?endl@@YAAAVostream@@AAV1@@Z
+base[ 265] b4aa Forwarder RVA -- msvcirt.?ends@@YAAAVostream@@AAV1@@Z
+base[ 266] b4cf Forwarder RVA -- msvcirt.?eof@ios@@QBEHXZ
+base[ 267] b4e8 Forwarder RVA -- msvcirt.?epptr@streambuf@@IBEPADXZ
+base[ 268] b50b Forwarder RVA -- msvcirt.?fLockcInit@ios@@0HA
+base[ 269] b528 Forwarder RVA -- msvcirt.?fail@ios@@QBEHXZ
+base[ 270] b542 Forwarder RVA -- msvcirt.?fd@filebuf@@QBEHXZ
+base[ 271] b55e Forwarder RVA -- msvcirt.?fd@fstream@@QBEHXZ
+base[ 272] b57a Forwarder RVA -- msvcirt.?fd@ifstream@@QBEHXZ
+base[ 273] b597 Forwarder RVA -- msvcirt.?fd@ofstream@@QBEHXZ
+base[ 274] b5b4 Forwarder RVA -- msvcirt.?fill@ios@@QAEDD@Z
+base[ 275] b5cf Forwarder RVA -- msvcirt.?fill@ios@@QBEDXZ
+base[ 276] b5e9 Forwarder RVA -- msvcirt.?flags@ios@@QAEJJ@Z
+base[ 277] b605 Forwarder RVA -- msvcirt.?flags@ios@@QBEJXZ
+base[ 278] b620 Forwarder RVA -- msvcirt.?floatfield@ios@@2JB
+base[ 279] b63d Forwarder RVA -- msvcirt.?flush@@YAAAVostream@@AAV1@@Z
+base[ 280] b663 Forwarder RVA -- msvcirt.?flush@ostream@@QAEAAV1@XZ
+base[ 281] b686 Forwarder RVA -- msvcirt.?freeze@strstreambuf@@QAEXH@Z
+base[ 282] b6ac Forwarder RVA -- msvcirt.?gbump@streambuf@@IAEXH@Z
+base[ 283] b6ce Forwarder RVA -- msvcirt.?gcount@istream@@QBEHXZ
+base[ 284] b6ee Forwarder RVA -- msvcirt.?get@istream@@QAEAAV1@AAC@Z
+base[ 285] b712 Forwarder RVA -- msvcirt.?get@istream@@QAEAAV1@AAD@Z
+base[ 286] b736 Forwarder RVA -- msvcirt.?get@istream@@QAEAAV1@AAE@Z
+base[ 287] b75a Forwarder RVA -- msvcirt.?get@istream@@QAEAAV1@AAVstreambuf@@D@Z
+base[ 288] b78a Forwarder RVA -- msvcirt.?get@istream@@QAEAAV1@PACHD@Z
+base[ 289] b7b0 Forwarder RVA -- msvcirt.?get@istream@@QAEAAV1@PADHD@Z
+base[ 290] b7d6 Forwarder RVA -- msvcirt.?get@istream@@QAEAAV1@PAEHD@Z
+base[ 291] b7fc Forwarder RVA -- msvcirt.?get@istream@@QAEHXZ
+base[ 292] b819 Forwarder RVA -- msvcirt.?getdouble@istream@@AAEHPADH@Z
+base[ 293] b840 Forwarder RVA -- msvcirt.?getint@istream@@AAEHPAD@Z
+base[ 294] b863 Forwarder RVA -- msvcirt.?getline@istream@@QAEAAV1@PACHD@Z
+base[ 295] b88d Forwarder RVA -- msvcirt.?getline@istream@@QAEAAV1@PADHD@Z
+base[ 296] b8b7 Forwarder RVA -- msvcirt.?getline@istream@@QAEAAV1@PAEHD@Z
+base[ 297] b8e1 Forwarder RVA -- msvcirt.?good@ios@@QBEHXZ
+base[ 298] b8fb Forwarder RVA -- msvcirt.?gptr@streambuf@@IBEPADXZ
+base[ 299] b91d Forwarder RVA -- msvcirt.?hex@@YAAAVios@@AAV1@@Z
+base[ 300] b93d Forwarder RVA -- msvcirt.?ignore@istream@@QAEAAV1@HH@Z
+base[ 301] b963 Forwarder RVA -- msvcirt.?in_avail@streambuf@@QBEHXZ
+base[ 302] b987 Forwarder RVA -- msvcirt.?init@ios@@IAEXPAVstreambuf@@@Z
+base[ 303] b9af Forwarder RVA -- msvcirt.?ipfx@istream@@QAEHH@Z
+base[ 304] b9ce Forwarder RVA -- msvcirt.?is_open@filebuf@@QBEHXZ
+base[ 305] b9ef Forwarder RVA -- msvcirt.?is_open@fstream@@QBEHXZ
+base[ 306] ba10 Forwarder RVA -- msvcirt.?is_open@ifstream@@QBEHXZ
+base[ 307] ba32 Forwarder RVA -- msvcirt.?is_open@ofstream@@QBEHXZ
+base[ 308] ba54 Forwarder RVA -- msvcirt.?isfx@istream@@QAEXXZ
+base[ 309] ba72 Forwarder RVA -- msvcirt.?iword@ios@@QBEAAJH@Z
+base[ 310] ba90 Forwarder RVA -- msvcirt.?lock@ios@@QAAXXZ
+base[ 311] baaa Forwarder RVA -- msvcirt.?lock@streambuf@@QAEXXZ
+base[ 312] baca Forwarder RVA -- msvcirt.?lockbuf@ios@@QAAXXZ
+base[ 313] bae7 Forwarder RVA -- msvcirt.?lockc@ios@@KAXXZ
+base[ 314] bb01 Forwarder RVA -- msvcirt.?lockptr@ios@@IAEPAU_CRT_CRITICAL_SECTION@@XZ
+base[ 315] bb37 Forwarder RVA -- msvcirt.?lockptr@streambuf@@IAEPAU_CRT_CRITICAL_SECTION@@XZ
+base[ 316] bb73 Forwarder RVA -- msvcirt.?oct@@YAAAVios@@AAV1@@Z
+base[ 317] bb93 Forwarder RVA -- msvcirt.?open@filebuf@@QAEPAV1@PBDHH@Z
+base[ 318] bbba Forwarder RVA -- msvcirt.?open@fstream@@QAEXPBDHH@Z
+base[ 319] bbdd Forwarder RVA -- msvcirt.?open@ifstream@@QAEXPBDHH@Z
+base[ 320] bc01 Forwarder RVA -- msvcirt.?open@ofstream@@QAEXPBDHH@Z
+base[ 321] bc25 Forwarder RVA -- msvcirt.?openprot@filebuf@@2HB
+base[ 322] bc44 Forwarder RVA -- msvcirt.?opfx@ostream@@QAEHXZ
+base[ 323] bc62 Forwarder RVA -- msvcirt.?osfx@ostream@@QAEXXZ
+base[ 324] bc80 Forwarder RVA -- msvcirt.?out_waiting@streambuf@@QBEHXZ
+base[ 325] bca7 Forwarder RVA -- msvcirt.?overflow@filebuf@@UAEHH@Z
+base[ 326] bcca Forwarder RVA -- msvcirt.?overflow@stdiobuf@@UAEHH@Z
+base[ 327] bcee Forwarder RVA -- msvcirt.?overflow@strstreambuf@@UAEHH@Z
+base[ 328] bd16 Forwarder RVA -- msvcirt.?pbackfail@stdiobuf@@UAEHH@Z
+base[ 329] bd3b Forwarder RVA -- msvcirt.?pbackfail@streambuf@@UAEHH@Z
+base[ 330] bd61 Forwarder RVA -- msvcirt.?pbase@streambuf@@IBEPADXZ
+base[ 331] bd84 Forwarder RVA -- msvcirt.?pbump@streambuf@@IAEXH@Z
+base[ 332] bda6 Forwarder RVA -- msvcirt.?pcount@ostrstream@@QBEHXZ
+base[ 333] bdc9 Forwarder RVA -- msvcirt.?pcount@strstream@@QBEHXZ
+base[ 334] bdeb Forwarder RVA -- msvcirt.?peek@istream@@QAEHXZ
+base[ 335] be09 Forwarder RVA -- msvcirt.?pptr@streambuf@@IBEPADXZ
+base[ 336] be2b Forwarder RVA -- msvcirt.?precision@ios@@QAEHH@Z
+base[ 337] be4b Forwarder RVA -- msvcirt.?precision@ios@@QBEHXZ
+base[ 338] be6a Forwarder RVA -- msvcirt.?put@ostream@@QAEAAV1@C@Z
+base[ 339] be8c Forwarder RVA -- msvcirt.?put@ostream@@QAEAAV1@D@Z
+base[ 340] beae Forwarder RVA -- msvcirt.?put@ostream@@QAEAAV1@E@Z
+base[ 341] bed0 Forwarder RVA -- msvcirt.?putback@istream@@QAEAAV1@D@Z
+base[ 342] bef6 Forwarder RVA -- msvcirt.?pword@ios@@QBEAAPAXH@Z
+base[ 343] bf16 Forwarder RVA -- msvcirt.?rdbuf@fstream@@QBEPAVfilebuf@@XZ
+base[ 344] bf40 Forwarder RVA -- msvcirt.?rdbuf@ifstream@@QBEPAVfilebuf@@XZ
+base[ 345] bf6b Forwarder RVA -- msvcirt.?rdbuf@ios@@QBEPAVstreambuf@@XZ
+base[ 346] bf93 Forwarder RVA -- msvcirt.?rdbuf@istrstream@@QBEPAVstrstreambuf@@XZ
+base[ 347] bfc5 Forwarder RVA -- msvcirt.?rdbuf@ofstream@@QBEPAVfilebuf@@XZ
+base[ 348] bff0 Forwarder RVA -- msvcirt.?rdbuf@ostrstream@@QBEPAVstrstreambuf@@XZ
+base[ 349] c022 Forwarder RVA -- msvcirt.?rdbuf@stdiostream@@QBEPAVstdiobuf@@XZ
+base[ 350] c051 Forwarder RVA -- msvcirt.?rdbuf@strstream@@QBEPAVstrstreambuf@@XZ
+base[ 351] c082 Forwarder RVA -- msvcirt.?rdstate@ios@@QBEHXZ
+base[ 352] c09f Forwarder RVA -- msvcirt.?read@istream@@QAEAAV1@PACH@Z
+base[ 353] c0c5 Forwarder RVA -- msvcirt.?read@istream@@QAEAAV1@PADH@Z
+base[ 354] c0eb Forwarder RVA -- msvcirt.?read@istream@@QAEAAV1@PAEH@Z
+base[ 355] c111 Forwarder RVA -- msvcirt.?sbumpc@streambuf@@QAEHXZ
+base[ 356] c133 Forwarder RVA -- msvcirt.?seekg@istream@@QAEAAV1@J@Z
+base[ 357] c157 Forwarder RVA -- msvcirt.?seekg@istream@@QAEAAV1@JW4seek_dir@ios@@@Z
+base[ 358] c18b Forwarder RVA -- msvcirt.?seekoff@filebuf@@UAEJJW4seek_dir@ios@@H@Z
+base[ 359] c1be Forwarder RVA -- msvcirt.?seekoff@stdiobuf@@UAEJJW4seek_dir@ios@@H@Z
+base[ 360] c1f2 Forwarder RVA -- msvcirt.?seekoff@streambuf@@UAEJJW4seek_dir@ios@@H@Z
+base[ 361] c227 Forwarder RVA -- msvcirt.?seekoff@strstreambuf@@UAEJJW4seek_dir@ios@@H@Z
+base[ 362] c25f Forwarder RVA -- msvcirt.?seekp@ostream@@QAEAAV1@J@Z
+base[ 363] c283 Forwarder RVA -- msvcirt.?seekp@ostream@@QAEAAV1@JW4seek_dir@ios@@@Z
+base[ 364] c2b7 Forwarder RVA -- msvcirt.?seekpos@streambuf@@UAEJJH@Z
+base[ 365] c2dc Forwarder RVA -- msvcrt.?set_terminate@@YAP6AXXZP6AXXZ@Z
+base[ 366] c304 Forwarder RVA -- msvcrt.?set_unexpected@@YAP6AXXZP6AXXZ@Z
+base[ 367] c32d Forwarder RVA -- msvcirt.?setb@streambuf@@IAEXPAD0H@Z
+base[ 368] c352 Forwarder RVA -- msvcirt.?setbuf@filebuf@@UAEPAVstreambuf@@PADH@Z
+base[ 369] c383 Forwarder RVA -- msvcirt.?setbuf@fstream@@QAEPAVstreambuf@@PADH@Z
+base[ 370] c3b4 Forwarder RVA -- msvcirt.?setbuf@ifstream@@QAEPAVstreambuf@@PADH@Z
+base[ 371] c3e6 Forwarder RVA -- msvcirt.?setbuf@ofstream@@QAEPAVstreambuf@@PADH@Z
+base[ 372] c418 Forwarder RVA -- msvcirt.?setbuf@streambuf@@UAEPAV1@PADH@Z
+base[ 373] c442 Forwarder RVA -- msvcirt.?setbuf@strstreambuf@@UAEPAVstreambuf@@PADH@Z
+base[ 374] c478 Forwarder RVA -- msvcirt.?setf@ios@@QAEJJ@Z
+base[ 375] c493 Forwarder RVA -- msvcirt.?setf@ios@@QAEJJJ@Z
+base[ 376] c4af Forwarder RVA -- msvcirt.?setg@streambuf@@IAEXPAD00@Z
+base[ 377] c4d4 Forwarder RVA -- msvcirt.?setlock@ios@@QAAXXZ
+base[ 378] c4f1 Forwarder RVA -- msvcirt.?setlock@streambuf@@QAEXXZ
+base[ 379] c514 Forwarder RVA -- msvcirt.?setmode@filebuf@@QAEHH@Z
+base[ 380] c536 Forwarder RVA -- msvcirt.?setmode@fstream@@QAEHH@Z
+base[ 381] c558 Forwarder RVA -- msvcirt.?setmode@ifstream@@QAEHH@Z
+base[ 382] c57b Forwarder RVA -- msvcirt.?setmode@ofstream@@QAEHH@Z
+base[ 383] c59e Forwarder RVA -- msvcirt.?setp@streambuf@@IAEXPAD0@Z
+base[ 384] c5c2 Forwarder RVA -- msvcirt.?setrwbuf@stdiobuf@@QAEHHH@Z
+base[ 385] c5e7 Forwarder RVA -- msvcirt.?sgetc@streambuf@@QAEHXZ
+base[ 386] c608 Forwarder RVA -- msvcirt.?sgetn@streambuf@@QAEHPADH@Z
+base[ 387] c62d Forwarder RVA -- msvcirt.?sh_none@filebuf@@2HB
+base[ 388] c64b Forwarder RVA -- msvcirt.?sh_read@filebuf@@2HB
+base[ 389] c669 Forwarder RVA -- msvcirt.?sh_write@filebuf@@2HB
+base[ 390] c688 Forwarder RVA -- msvcirt.?snextc@streambuf@@QAEHXZ
+base[ 391] c6aa Forwarder RVA -- msvcirt.?sputbackc@streambuf@@QAEHD@Z
+base[ 392] c6d0 Forwarder RVA -- msvcirt.?sputc@streambuf@@QAEHH@Z
+base[ 393] c6f2 Forwarder RVA -- msvcirt.?sputn@streambuf@@QAEHPBDH@Z
+base[ 394] c717 Forwarder RVA -- msvcirt.?stdiofile@stdiobuf@@QAEPAU_iobuf@@XZ
+base[ 395] c745 Forwarder RVA -- msvcirt.?stossc@streambuf@@QAEXXZ
+base[ 396] c767 Forwarder RVA -- msvcirt.?str@istrstream@@QAEPADXZ
+base[ 397] c789 Forwarder RVA -- msvcirt.?str@ostrstream@@QAEPADXZ
+base[ 398] c7ab Forwarder RVA -- msvcirt.?str@strstream@@QAEPADXZ
+base[ 399] c7cc Forwarder RVA -- msvcirt.?str@strstreambuf@@QAEPADXZ
+base[ 400] c7f0 Forwarder RVA -- msvcirt.?sunk_with_stdio@ios@@0HA
+base[ 401] c812 Forwarder RVA -- msvcirt.?sync@filebuf@@UAEHXZ
+base[ 402] c830 Forwarder RVA -- msvcirt.?sync@istream@@QAEHXZ
+base[ 403] c84e Forwarder RVA -- msvcirt.?sync@stdiobuf@@UAEHXZ
+base[ 404] c86d Forwarder RVA -- msvcirt.?sync@streambuf@@UAEHXZ
+base[ 405] c88d Forwarder RVA -- msvcirt.?sync@strstreambuf@@UAEHXZ
+base[ 406] c8b0 Forwarder RVA -- msvcirt.?sync_with_stdio@ios@@SAXXZ
+base[ 407] c8d4 Forwarder RVA -- msvcirt.?tellg@istream@@QAEJXZ
+base[ 408] c8f3 Forwarder RVA -- msvcirt.?tellp@ostream@@QAEJXZ
+base[ 409] c912 Forwarder RVA -- msvcrt.?terminate@@YAXXZ
+base[ 410] c92b Forwarder RVA -- msvcirt.?text@filebuf@@2HB
+base[ 411] c946 Forwarder RVA -- msvcirt.?tie@ios@@QAEPAVostream@@PAV2@@Z
+base[ 412] c96f Forwarder RVA -- msvcirt.?tie@ios@@QBEPAVostream@@XZ
+base[ 413] c993 Forwarder RVA -- msvcirt.?unbuffered@streambuf@@IAEXH@Z
+base[ 414] c9ba Forwarder RVA -- msvcirt.?unbuffered@streambuf@@IBEHXZ
+base[ 415] c9e0 Forwarder RVA -- msvcirt.?underflow@filebuf@@UAEHXZ
+base[ 416] ca03 Forwarder RVA -- msvcirt.?underflow@stdiobuf@@UAEHXZ
+base[ 417] ca27 Forwarder RVA -- msvcirt.?underflow@strstreambuf@@UAEHXZ
+base[ 418] ca4f Forwarder RVA -- msvcrt.?unexpected@@YAXXZ
+base[ 419] ca69 Forwarder RVA -- msvcirt.?unlock@ios@@QAAXXZ
+base[ 420] ca85 Forwarder RVA -- msvcirt.?unlock@streambuf@@QAEXXZ
+base[ 421] caa7 Forwarder RVA -- msvcirt.?unlockbuf@ios@@QAAXXZ
+base[ 422] cac6 Forwarder RVA -- msvcirt.?unlockc@ios@@KAXXZ
+base[ 423] cae2 Forwarder RVA -- msvcirt.?unsetf@ios@@QAEJJ@Z
+base[ 424] caff Forwarder RVA -- msvcirt.?width@ios@@QAEHH@Z
+base[ 425] cb1b Forwarder RVA -- msvcirt.?width@ios@@QBEHXZ
+base[ 426] cb36 Forwarder RVA -- msvcirt.?write@ostream@@QAEAAV1@PBCH@Z
+base[ 427] cb5d Forwarder RVA -- msvcirt.?write@ostream@@QAEAAV1@PBDH@Z
+base[ 428] cb84 Forwarder RVA -- msvcirt.?write@ostream@@QAEAAV1@PBEH@Z
+base[ 429] cbab Forwarder RVA -- msvcirt.?writepad@ostream@@AAEAAV1@PBD0@Z
+base[ 430] cbd5 Forwarder RVA -- msvcirt.?ws@@YAAAVistream@@AAV1@@Z
+base[ 431] cbf8 Forwarder RVA -- msvcirt.?x_curindex@ios@@0HA
+base[ 432] cc15 Forwarder RVA -- msvcirt.?x_lockc@ios@@0U_CRT_CRITICAL_SECTION@@A
+base[ 433] cc46 Forwarder RVA -- msvcirt.?x_maxbit@ios@@0JA
+base[ 434] cc61 Forwarder RVA -- msvcirt.?x_statebuf@ios@@0PAJA
+base[ 435] cc80 Forwarder RVA -- msvcirt.?xalloc@ios@@SAHXZ
+base[ 436] cc9b Forwarder RVA -- msvcirt.?xsgetn@streambuf@@UAEHPADH@Z
+base[ 437] ccc1 Forwarder RVA -- msvcirt.?xsputn@streambuf@@UAEHPBDH@Z
+base[ 438] cce7 Forwarder RVA -- msvcrt.$I10_OUTPUT
+base[ 439] ccfa Forwarder RVA -- msvcrt._CIacos
+base[ 440] cd09 Forwarder RVA -- msvcrt._CIasin
+base[ 441] cd18 Forwarder RVA -- msvcrt._CIatan
+base[ 442] cd27 Forwarder RVA -- msvcrt._CIatan2
+base[ 443] cd37 Forwarder RVA -- msvcrt._CIcos
+base[ 444] cd45 Forwarder RVA -- msvcrt._CIcosh
+base[ 445] cd54 Forwarder RVA -- msvcrt._CIexp
+base[ 446] cd62 Forwarder RVA -- msvcrt._CIfmod
+base[ 447] cd71 Forwarder RVA -- msvcrt._CIlog
+base[ 448] cd7f Forwarder RVA -- msvcrt._CIlog10
+base[ 449] cd8f Forwarder RVA -- msvcrt._CIpow
+base[ 450] cd9d Forwarder RVA -- msvcrt._CIsin
+base[ 451] cdab Forwarder RVA -- msvcrt._CIsinh
+base[ 452] cdba Forwarder RVA -- msvcrt._CIsqrt
+base[ 453] cdc9 Forwarder RVA -- msvcrt._CItan
+base[ 454] cdd7 Forwarder RVA -- msvcrt._CItanh
+base[ 455] cde6 Forwarder RVA -- msvcrt._CxxThrowException
+base[ 456] ce00 Forwarder RVA -- msvcrt._HUGE
+base[ 457] ce0d Forwarder RVA -- msvcrt._XcptFilter
+base[ 458] ce20 Forwarder RVA -- msvcrt.__CxxFrameHandler
+base[ 459] ce39 Forwarder RVA -- msvcrt.__CxxLongjmpUnwind
+base[ 460] ce53 Forwarder RVA -- msvcrt.__STRINGTOLD
+base[ 461] ce67 Forwarder RVA -- msvcrt.__argc
+base[ 462] ce75 Forwarder RVA -- msvcrt.__argv
+base[ 463] ce83 Forwarder RVA -- msvcrt.__dllonexit
+base[ 464] ce96 Forwarder RVA -- msvcrt.__doserrno
+base[ 465] cea8 Forwarder RVA -- msvcrt.__fpecode
+base[ 466] 10b0 Export RVA
+base[ 467] ceb9 Forwarder RVA -- msvcrt.__initenv
+base[ 468] ceca Forwarder RVA -- msvcrt.__isascii
+base[ 469] cedb Forwarder RVA -- msvcrt.__iscsym
+base[ 470] ceeb Forwarder RVA -- msvcrt.__iscsymf
+base[ 471] cefc Forwarder RVA -- msvcrt.__lconv_init
+base[ 472] cf10 Forwarder RVA -- msvcrt.__mb_cur_max
+base[ 473] cf24 Forwarder RVA -- msvcrt.__p___argc
+base[ 474] cf36 Forwarder RVA -- msvcrt.__p___argv
+base[ 475] cf48 Forwarder RVA -- msvcrt.__p___initenv
+base[ 476] cf5d Forwarder RVA -- msvcrt.__p___mb_cur_max
+base[ 477] cf75 Forwarder RVA -- msvcrt.__p___wargv
+base[ 478] cf88 Forwarder RVA -- msvcrt.__p___winitenv
+base[ 479] cf9e Forwarder RVA -- msvcrt.__p__acmdln
+base[ 480] cfb1 Forwarder RVA -- msvcrt.__p__amblksiz
+base[ 481] cfc6 Forwarder RVA -- msvcrt.__p__commode
+base[ 482] cfda Forwarder RVA -- msvcrt.__p__daylight
+base[ 483] cfef Forwarder RVA -- msvcrt.__p__environ
+base[ 484] d003 Forwarder RVA -- msvcrt.__p__fmode
+base[ 485] d015 Forwarder RVA -- msvcrt.__p__iob
+base[ 486] d025 Forwarder RVA -- msvcrt.__p__mbctype
+base[ 487] d039 Forwarder RVA -- msvcrt.__p__osver
+base[ 488] d04b Forwarder RVA -- msvcrt.__p__pctype
+base[ 489] d05e Forwarder RVA -- msvcrt.__p__pgmptr
+base[ 490] d071 Forwarder RVA -- msvcrt.__p__pwctype
+base[ 491] d085 Forwarder RVA -- msvcrt.__p__timezone
+base[ 492] d09a Forwarder RVA -- msvcrt.__p__tzname
+base[ 493] d0ad Forwarder RVA -- msvcrt.__p__wcmdln
+base[ 494] d0c0 Forwarder RVA -- msvcrt.__p__wenviron
+base[ 495] d0d5 Forwarder RVA -- msvcrt.__p__winmajor
+base[ 496] d0ea Forwarder RVA -- msvcrt.__p__winminor
+base[ 497] d0ff Forwarder RVA -- msvcrt.__p__winver
+base[ 498] d112 Forwarder RVA -- msvcrt.__p__wpgmptr
+base[ 499] d126 Forwarder RVA -- msvcrt.__pxcptinfoptrs
+base[ 500] d13d Forwarder RVA -- msvcrt.__threadhandle
