+base[   1] 1000 Export RVA
+base[   2] 2910 Export RVA
+base[   3] 29c0 Export RVA
+base[   4] 2a40 Export RVA
+base[   5] 2a80 Export RVA
+base[   6] 2ac0 Export RVA
+base[   7] 1020 Export RVA
+base[   8] 1040 Export RVA
+base[   9] 1060 Export RVA
+base[  10] 1080 Export RVA
+base[  11] 10a0 Export RVA
+base[  12] 10c0 Export RVA
+base[  13] 10e0 Export RVA
+base[  14] 1100 Export RVA
+base[  15] 1120 Export RVA
+base[  16] 1140 Export RVA
+base[  17] 1160 Export RVA
+base[  18] 1180 Export RVA
+base[  19] 11a0 Export RVA
+base[  20] 11c0 Export RVA
+base[  21] 11e0 Export RVA
+base[  22] 1200 Export RVA
+base[  23] 1220 Export RVA
+base[  24] 1240 Export RVA
+base[  25] 1260 Export RVA
+base[  26] 1280 Export RVA
+base[  27] 12a0 Export RVA
+base[  28] 12c0 Export RVA
+base[  29] 12e0 Export RVA
+base[  30] 1300 Export RVA
+base[  31] 1320 Export RVA
+base[  32] 1340 Export RVA
+base[  33] 1360 Export RVA
+base[  34] 1380 Export RVA
+base[  35] 13a0 Export RVA
+base[  36] 13c0 Export RVA
+base[  37] 13e0 Export RVA
+base[  38] 1400 Export RVA
+base[  39] 1420 Export RVA
+base[  40] 1440 Export RVA
+base[  41] 1460 Export RVA
+base[  42] 1480 Export RVA
+base[  43] 14a0 Export RVA
+base[  44] 14c0 Export RVA
+base[  45] 14e0 Export RVA
+base[  46] 1500 Export RVA
+base[  47] 1520 Export RVA
+base[  48] 1540 Export RVA
+base[  49] 1560 Export RVA
+base[  50] 1580 Export RVA
+base[  51] 15a0 Export RVA
+base[  52] 15c0 Export RVA
+base[  53] 15e0 Export RVA
+base[  54] 1600 Export RVA
+base[  55] 1620 Export RVA
+base[  56] 1640 Export RVA
+base[  57] 1660 Export RVA
+base[  58] 1680 Export RVA
+base[  59] 16a0 Export RVA
+base[  60] 16c0 Export RVA
+base[  61] 16e0 Export RVA
+base[  62] 1700 Export RVA
+base[  63] 1720 Export RVA
+base[  64] 1740 Export RVA
+base[  65] 1760 Export RVA
+base[  66] 1780 Export RVA
+base[  67] 17a0 Export RVA
+base[  68] 17c0 Export RVA
+base[  69] 17e0 Export RVA
+base[  70] 1800 Export RVA
+base[  71] 1820 Export RVA
+base[  72] 1840 Export RVA
+base[  73] 1860 Export RVA
+base[  74] 1880 Export RVA
+base[  75] 18a0 Export RVA
+base[  76] 18c0 Export RVA
+base[  77] 18e0 Export RVA
+base[  78] 1900 Export RVA
+base[  79] 1920 Export RVA
+base[  80] 1940 Export RVA
+base[  81] 1960 Export RVA
+base[  82] 1980 Export RVA
+base[  83] 19a0 Export RVA
+base[  84] 19c0 Export RVA
+base[  85] 19e0 Export RVA
+base[  86] 1a00 Export RVA
+base[  87] 1a20 Export RVA
+base[  88] 1a40 Export RVA
+base[  89] 1a60 Export RVA
+base[  90] 1a80 Export RVA
+base[  91] 1aa0 Export RVA
+base[  92] 1ac0 Export RVA
+base[  93] 1ae0 Export RVA
+base[  94] 1b00 Export RVA
+base[  95] 1b20 Export RVA
+base[  96] 1b40 Export RVA
+base[  97] 1b60 Export RVA
+base[  98] 1b80 Export RVA
+base[  99] 1ba0 Export RVA
+base[ 100] 2a00 Export RVA
+base[ 101] 1bc0 Export RVA
+base[ 102] 1be0 Export RVA
+base[ 103] 1c00 Export RVA
?DoCallBackInDefaultDomain@<CrtImplementationDetails>@@YAXP6GJPAX@Z0@Z
?DoDllLanguageSupportValidation@<CrtImplementationDetails>@@YAXXZ
?RegisterModuleUninitializer@<CrtImplementationDetails>@@YAXP$AAVEventHandler@System@@@Z
?ThrowModuleLoadException@<CrtImplementationDetails>@@YAXP$AAVString@System@@@Z
?ThrowModuleLoadException@<CrtImplementationDetails>@@YAXP$AAVString@System@@P$AAVException@3@@Z
?ThrowNestedModuleLoadException@<CrtImplementationDetails>@@YAXP$AAVException@System@@0@Z
?_Addstd@ios_base@std@@SAXPAV12@@Z
?_Atexit@@YAXP6AXXZ@Z
?_BADOFF_func@std@@YAABJXZ
?_Cerr_func@std@@YAAAV?$basic_ostream@DU?$char_traits@D@std@@@1@XZ
?_Cin_func@std@@YAAAV?$basic_istream@DU?$char_traits@D@std@@@1@XZ
?_Clocptr_func@_Locimp@locale@std@@CAAAPAV123@XZ
?_Clog_func@std@@YAAAV?$basic_ostream@DU?$char_traits@D@std@@@1@XZ
?_Cout_func@std@@YAAAV?$basic_ostream@DU?$char_traits@D@std@@@1@XZ
?_Fiopen@std@@YAPAU_iobuf@@PBDHH@Z
?_Fiopen@std@@YAPAU_iobuf@@PBGHH@Z
?_Fiopen@std@@YAPAU_iobuf@@PB_WHH@Z
?_Fpz_func@std@@YAAA_JXZ
?_Getcvt@@YA?AU_Cvtvec@@XZ
?_Getgloballocale@locale@std@@CAPAV_Locimp@12@XZ
?_Id_cnt_func@id@locale@std@@CAAAHXZ
?_Id_func@?$codecvt@GDH@std@@SAAAVid@locale@2@XZ
?_Id_func@?$codecvt@_WDH@std@@SAAAVid@locale@2@XZ
?_Id_func@?$ctype@D@std@@SAAAVid@locale@2@XZ
?_Id_func@?$ctype@G@std@@SAAAVid@locale@2@XZ
?_Id_func@?$ctype@_W@std@@SAAAVid@locale@2@XZ
?_Index_func@ios_base@std@@CAAAHXZ
?_Init@locale@std@@CAPAV_Locimp@12@XZ
?_Init_cnt_func@Init@ios_base@std@@CAAAHXZ
?_Init_ctor@Init@ios_base@std@@CAXPAV123@@Z
?_Init_dtor@Init@ios_base@std@@CAXPAV123@@Z
?_Init_locks_ctor@_Init_locks@std@@CAXPAV12@@Z
?_Init_locks_dtor@_Init_locks@std@@CAXPAV12@@Z
?_Ios_base_dtor@ios_base@std@@CAXPAV12@@Z
?_Locimp_Addfac@_Locimp@locale@std@@CAXPAV123@PAVfacet@23@I@Z
?_Locimp_dtor@_Locimp@locale@std@@CAXPAV123@@Z
?_Locinfo_Addcats@_Locinfo@std@@SAAAV12@PAV12@HPBD@Z
?_Locinfo_ctor@_Locinfo@std@@SAXPAV12@ABV?$basic_string@DU?$char_traits@D@std@@V?$allocator@D@2@@2@@Z
?_Locinfo_ctor@_Locinfo@std@@SAXPAV12@HPBD@Z
?_Locinfo_ctor@_Locinfo@std@@SAXPAV12@PBD@Z
?_Locinfo_dtor@_Locinfo@std@@SAXPAV12@@Z
?_Lockit_ctor@_Lockit@std@@CAXPAV12@@Z
?_Lockit_ctor@_Lockit@std@@CAXPAV12@H@Z
?_Lockit_ctor@_Lockit@std@@SAXH@Z
?_Lockit_dtor@_Lockit@std@@CAXPAV12@@Z
?_Lockit_dtor@_Lockit@std@@SAXH@Z
?_Mbrtowc@@YAHPAGPBDIPAHPBU_Cvtvec@@@Z
?_Mbrtowc@@YAHPA_WPBDIPAHPBU_Cvtvec@@@Z
?_Mtxdst@@YAXPAU_RTL_CRITICAL_SECTION@@@Z
?_Mtxinit@@YAXPAU_RTL_CRITICAL_SECTION@@@Z
?_Mtxlock@@YAXPAU_RTL_CRITICAL_SECTION@@@Z
?_Mtxunlock@@YAXPAU_RTL_CRITICAL_SECTION@@@Z
?_Mutex_Lock@_Mutex@std@@CAXPAV12@@Z
?_Mutex_Unlock@_Mutex@std@@CAXPAV12@@Z
?_Mutex_ctor@_Mutex@std@@CAXPAV12@@Z
?_Mutex_dtor@_Mutex@std@@CAXPAV12@@Z
?_Nomemory@std@@YAXXZ
?_Once@@YAXPAJP6AXXZ@Z
?_Setgloballocale@locale@std@@CAXPAX@Z
?_Sync_func@ios_base@std@@CAAA_NXZ
?_Wcerr_func@std@@YAAAV?$basic_ostream@GU?$char_traits@G@std@@@1@XZ
?_Wcerr_func@std@@YAAAV?$basic_ostream@_WU?$char_traits@_W@std@@@1@XZ
?_Wcin_func@std@@YAAAV?$basic_istream@GU?$char_traits@G@std@@@1@XZ
?_Wcin_func@std@@YAAAV?$basic_istream@_WU?$char_traits@_W@std@@@1@XZ
?_Wclog_func@std@@YAAAV?$basic_ostream@GU?$char_traits@G@std@@@1@XZ
?_Wclog_func@std@@YAAAV?$basic_ostream@_WU?$char_traits@_W@std@@@1@XZ
?_Wcout_func@std@@YAAAV?$basic_ostream@GU?$char_traits@G@std@@@1@XZ
?_Wcout_func@std@@YAAAV?$basic_ostream@_WU?$char_traits@_W@std@@@1@XZ
?_Wcrtomb@@YAHPADGPAHPBU_Cvtvec@@@Z
?_Wcrtomb@@YAHPAD_WPAHPBU_Cvtvec@@@Z
?_Xinvarg@_String_base@std@@SAXXZ
?_Xlen@_String_base@std@@SAXXZ
?_Xran@_String_base@std@@SAXXZ
?__Wcrtomb_lk@@YAHPAD_WPAHPBU_Cvtvec@@@Z
?__get_default_appdomain@@YAJPAPAUIUnknown@@@Z
?__query_new_handler_m@@YAP6MHI@ZXZ
?__release_appdomain@@YAXPAUIUnknown@@@Z
?_beginthread@@YAIP6MXPAX@ZI0@Z
?_beginthreadex@@YAIPAXIP6MI0@Z0IPAI@Z
?_fpieee_flt@@YAHKPAU_EXCEPTION_POINTERS@@P6MHPAU_FPIEEE_RECORD@@@Z@Z
?_set_invalid_parameter_handler@@YAP6AXPB_W00II@ZH@Z
?_set_invalid_parameter_handler@@YAP6MXPB_W00II@ZP6MX000II@Z@Z
?_set_new_handler@@YAP6MHI@ZP6MHI@Z@Z
?_set_purecall_handler@@YAP6AXXZH@Z
?_set_purecall_handler@@YAP6MXXZP6MXXZ@Z
?_uncaught_exception_m@std@@YA_NXZ
?classic@locale@std@@SAABV12@XZ
?empty@locale@std@@SA?AV12@XZ
?global@locale@std@@SA?AV12@ABV12@@Z
?resetiosflags@std@@YA?AU?$_Smanip@H@1@H@Z
?set_new_handler@std@@YAP6MXXZP6MXXZ@Z
?set_terminate@@YAP6MXXZP6MXXZ@Z
?set_unexpected@@YAP6MXXZP6MXXZ@Z
?setbase@std@@YA?AU?$_Smanip@H@1@H@Z
?setiosflags@std@@YA?AU?$_Smanip@H@1@H@Z
?setprecision@std@@YA?AU?$_Smanip@H@1@H@Z
?setw@std@@YA?AU?$_Smanip@H@1@H@Z
?signal@@YAP6MXH@ZHH@Z
?signal@@YAP6MXH@ZHP6MXH@Z@Z
__setusermatherr_m
towctrans
wctrans
wctype
