000000000117faa8 D AACcodeBookDescriptionSCL
000000000117f9d8 D AACcodeBookDescriptionTable
0000000000b578bc T ABR_iteration_loop
0000000000b76e00 T AMRDecode
0000000000b7dc04 T AMREncode
0000000000b7dbe0 T AMREncodeExit
0000000000b7db60 T AMREncodeInit
0000000000b7dba8 T AMREncodeReset
                 U ANativeWindow_acquire
                 U ANativeWindow_fromSurface
                 U ANativeWindow_release
0000000000b63d88 T ATHformula
0000000000b77014 T A_Refl
0000000000fec64c R AacDec_randomSign
0000000000b3e9ec T AddVbrFrame
0000000000ffeaf8 R Alphas
0000000000b99720 T AmrWbInterpol
0000000000b9966c T AmrWbUp_samp
0000000000b45590 T AnalyzeSamples
0000000000b7df38 T Autocorr
0000000000b8e4a4 T Az_lsp
0000000000ff8c4e R BP_GF__FDK
0000000000ff8c48 R BP__FDK
0000000000b77564 T Bgn_scd
0000000000b77534 T Bgn_scd_reset
0000000001002d60 R BitMask
0000000000b646a8 T BitrateIndex
0000000000b7d714 T Bits2prm
0000000000b5a518 T CBR_iteration_loop
0000000000b95660 T CN_dithering
0000000000b3fa4c T CRC_writeheader
0000000000b77894 T Cb_gain_average
0000000000b77874 T Cb_gain_average_reset
0000000000b8eb44 T Chebps_Wrapper
0000000000b82be4 T Convolve
00000000016ce638 B DRC_DECODER
0000000000b9299c T D_IF_decode
0000000000b9296c T D_IF_exit
0000000000b928f0 T D_IF_init
0000000000b7a1e4 T D_plsf_3
0000000000b7a824 T D_plsf_5
0000000000b7ab94 T D_plsf_reset
0000000000b79b68 T Dec_gain
0000000000b79df4 T Dec_lag3
0000000000b79f74 T Dec_lag6
0000000000b76408 T Decoder_Interface_Decode
0000000000b763e4 T Decoder_Interface_exit
0000000000b763b4 T Decoder_Interface_init
0000000000b78b2c T Decoder_amr
0000000000b788f4 T Decoder_amr_init
0000000000b789a4 T Decoder_amr_reset
0000000000b9d004 T Disf_ns
0000000000b83684 T Div_32
0000000000b9cbac T Dot_product12
0000000000b9dec8 T Dpisf_2s_36b
0000000000b9d248 T Dpisf_2s_46b
0000000000ff44ac R ELDAnalysis120
0000000000ff41ac R ELDAnalysis128
0000000000ff3c0c R ELDAnalysis240
0000000000ff360c R ELDAnalysis256
0000000000ff2acc R ELDAnalysis480
0000000000ff1ecc R ELDAnalysis512
0000000000b83fa4 T Enc_lag3
0000000000b8406c T Enc_lag6
0000000000b76490 T Encoder_Interface_Encode
0000000000b76468 T Encoder_Interface_exit
0000000000b76430 T Encoder_Interface_init
0000000000b7c38c T Ex_ctrl
0000000000b6ba48 T ExitMP3
0000000000fe59f4 R ExponentTable
0000000001011e80 R FDKSEEK_CUR
0000000001011e84 R FDKSEEK_END
0000000001011e7c R FDKSEEK_SET
0000000000b2afec T FDK_Copy
0000000000b2a718 T FDK_CreateBitBuffer
0000000000b2a75c T FDK_DeleteBitBuffer
0000000000b2aeb8 T FDK_Feed
0000000000b2b1bc T FDK_Fetch
0000000000b2a740 T FDK_InitBitBuffer
0000000000b2a760 T FDK_ResetBitBuffer
0000000000adbc74 T FDK_SpatialDecClose
0000000000adb5e4 T FDK_SpatialDecCompareSpatialSpecificConfigHeader
0000000000adc078 T FDK_SpatialDecInit
0000000000adb5c8 T FDK_SpatialDecInitDefaultSpatialSpecificConfig
0000000000adb608 T FDK_SpatialDecOpen
0000000000b2ae14 T FDK_byteAlign
0000000000b3e7bc T FDK_chMapDescr_getMapValue
0000000000b3e95c T FDK_chMapDescr_init
0000000000b3e80c T FDK_chMapDescr_isValid
0000000000b3e9b8 T FDK_chMapDescr_setPassThrough
0000000000ab3034 T FDK_drcDec_ApplyDownmix
0000000000ab2900 T FDK_drcDec_Close
0000000000ab2bc8 T FDK_drcDec_GetGroupLoudness
0000000000ab3338 T FDK_drcDec_GetLibInfo
0000000000ab2aa8 T FDK_drcDec_GetParam
0000000000ab2bb4 T FDK_drcDec_GetSelectionProcessOutput
0000000000ab26d4 T FDK_drcDec_Init
0000000000ab2544 T FDK_drcDec_Open
0000000000ab2ed0 T FDK_drcDec_Preprocess
0000000000ab2fd0 T FDK_drcDec_ProcessFreq
0000000000ab2f64 T FDK_drcDec_ProcessTime
0000000000ab2cc8 T FDK_drcDec_ReadDownmixInstructions_Box
0000000000ab2d7c T FDK_drcDec_ReadLoudnessBox
0000000000ab2d04 T FDK_drcDec_ReadLoudnessInfoSet
0000000000ab2e20 T FDK_drcDec_ReadUniDrc
0000000000ab2cf0 T FDK_drcDec_ReadUniDrcCoefficients_Box
0000000000ab2c54 T FDK_drcDec_ReadUniDrcConfig
0000000000ab2d90 T FDK_drcDec_ReadUniDrcGain
0000000000ab2cdc T FDK_drcDec_ReadUniDrcInstructions_Box
0000000000ab2bd0 T FDK_drcDec_SetChannelGains
0000000000ab25e8 T FDK_drcDec_SetCodecMode
0000000000ab2ba8 T FDK_drcDec_SetDownmixInstructions
0000000000ab2b98 T FDK_drcDec_SetInterfaceParameters
0000000000ab2960 T FDK_drcDec_SetParam
0000000000ab2ba0 T FDK_drcDec_SetSelectionProcessMpeghParameters_simple
0000000000ab2bb0 T FDK_drcDec_SetSelectionProcessOutput
0000000000b2a76c T FDK_get
0000000000b2a810 T FDK_get32
0000000000b2aeb0 T FDK_getBitCnt
0000000000b2a910 T FDK_getBwd
0000000000b2ae98 T FDK_getFreeBits
0000000000b2ae90 T FDK_getValidBits
0000000001180bf8 D FDK_huffCLDNodes
0000000001180bb0 D FDK_huffICCNodes
000000000100f808 R FDK_huffIPDNodes
000000000100e744 R FDK_huffLavIdxNodes
000000000100e55c R FDK_huffPart0Nodes
000000000100f76c R FDK_huffReshapeNodes
0000000001011fc8 R FDK_mapInfoTabLenWg4
0000000001180c88 D FDK_mapInfoTabWg4
0000000000b2ada4 T FDK_pushBack
0000000000b2addc T FDK_pushForward
0000000000b2aaa8 T FDK_put
0000000000b2abb0 T FDK_putBwd
0000000000ae9cbc T FDK_sacenc_close
0000000000ae8c68 T FDK_sacenc_encode
0000000000ae9f74 T FDK_sacenc_getInfo
0000000000aea154 T FDK_sacenc_getLibInfo
0000000000ae8590 T FDK_sacenc_init
0000000000ae80e8 T FDK_sacenc_open
0000000000aea004 T FDK_sacenc_setParam
0000000000ffe8a4 R FDK_sbrDecoder_aFixNoEnvDecode
0000000000ffeb31 R FDK_sbrDecoder_aNoIccBins
0000000000ffeb2e R FDK_sbrDecoder_aNoIidBins
0000000000ffe030 R FDK_sbrDecoder_envelopeTable_15
0000000000ffe198 R FDK_sbrDecoder_envelopeTable_16
0000000000ffdf90 R FDK_sbrDecoder_envelopeTable_8
0000000000ffeb34 R FDK_sbrDecoder_invTable
0000000000ffe318 R FDK_sbrDecoder_sbr_frame_info1_15
0000000000ffe38c R FDK_sbrDecoder_sbr_frame_info1_16
0000000000ffe335 R FDK_sbrDecoder_sbr_frame_info2_15
0000000000ffe3a9 R FDK_sbrDecoder_sbr_frame_info2_16
0000000000ffe352 R FDK_sbrDecoder_sbr_frame_info4_15
0000000000ffe3c6 R FDK_sbrDecoder_sbr_frame_info4_16
0000000000ffe36f R FDK_sbrDecoder_sbr_frame_info8_15
0000000000ffe3e3 R FDK_sbrDecoder_sbr_frame_info8_16
0000000000ffe640 R FDK_sbrDecoder_sbr_huffBook_EnvBalance10F
0000000000ffe5e0 R FDK_sbrDecoder_sbr_huffBook_EnvBalance10T
0000000000ffe7c8 R FDK_sbrDecoder_sbr_huffBook_EnvBalance11F
0000000000ffe798 R FDK_sbrDecoder_sbr_huffBook_EnvBalance11T
0000000000ffe4f0 R FDK_sbrDecoder_sbr_huffBook_EnvLevel10F
0000000000ffe400 R FDK_sbrDecoder_sbr_huffBook_EnvLevel10T
0000000000ffe71c R FDK_sbrDecoder_sbr_huffBook_EnvLevel11F
0000000000ffe6a0 R FDK_sbrDecoder_sbr_huffBook_EnvLevel11T
0000000000ffe874 R FDK_sbrDecoder_sbr_huffBook_NoiseBalance11T
0000000000ffe7f8 R FDK_sbrDecoder_sbr_huffBook_NoiseLevel11T
0000000000ffd76c R FDK_sbrDecoder_sbr_limGains_e
0000000000ffd764 R FDK_sbrDecoder_sbr_limGains_m
0000000000ffd770 R FDK_sbrDecoder_sbr_limiterBandsPerOctaveDiv4
0000000000ffd778 R FDK_sbrDecoder_sbr_limiterBandsPerOctaveDiv4_DBL
0000000000ffd790 R FDK_sbrDecoder_sbr_randomPhase
0000000000ffd788 R FDK_sbrDecoder_sbr_smoothFilter
0000000000ffd668 R FDK_sbrDecoder_sbr_start_freq_128
0000000000ffd528 R FDK_sbrDecoder_sbr_start_freq_16
0000000000ffd658 R FDK_sbrDecoder_sbr_start_freq_176
0000000000ffd648 R FDK_sbrDecoder_sbr_start_freq_192
0000000000ffd548 R FDK_sbrDecoder_sbr_start_freq_22
0000000000ffd568 R FDK_sbrDecoder_sbr_start_freq_24
0000000000ffd588 R FDK_sbrDecoder_sbr_start_freq_32
0000000000ffd5a8 R FDK_sbrDecoder_sbr_start_freq_40
0000000000ffd5c8 R FDK_sbrDecoder_sbr_start_freq_44
0000000000ffd5e8 R FDK_sbrDecoder_sbr_start_freq_48
0000000000ffd608 R FDK_sbrDecoder_sbr_start_freq_64
0000000000ffd628 R FDK_sbrDecoder_sbr_start_freq_88
0000000000ffd678 R FDK_sbrDecoder_sbr_whFactorsIndex
0000000000ffd68c R FDK_sbrDecoder_sbr_whFactorsTable
0000000000b2aea8 T FDK_setBitCnt
0000000000b2b274 T FDK_toolsGetLibInfo
0000000000fec44c R FDKaacDec_tnsCoeff3
0000000000fec4ac R FDKaacDec_tnsCoeff3_gain_ld
0000000000fec46c R FDKaacDec_tnsCoeff4
0000000000fec4b4 R FDKaacDec_tnsCoeff4_gain_ld
0000000000a8cdc4 T FDKaacEnc_AacInitDefaultConfig
0000000000a8cb74 T FDKaacEnc_CalcBitrate
0000000000a8cb44 T FDKaacEnc_CalcBitsPerFrame
0000000000a8de30 T FDKaacEnc_Close
0000000000a8d8a0 T FDKaacEnc_EncodeFrame
0000000000a8cd6c T FDKaacEnc_GetBitReservoirState
0000000000a8cd00 T FDKaacEnc_GetVBRBitrate
0000000000a8cf28 T FDKaacEnc_Initialize
0000000000a8cba4 T FDKaacEnc_LimitBitrate
0000000000a8ce38 T FDKaacEnc_Open
0000000000ff016e R FDKaacEnc_huff_ctab1
0000000000ff078c R FDKaacEnc_huff_ctab10
0000000000ff08de R FDKaacEnc_huff_ctab11
0000000000ff0210 R FDKaacEnc_huff_ctab2
0000000000ff02b2 R FDKaacEnc_huff_ctab3
0000000000ff0354 R FDKaacEnc_huff_ctab4
0000000000ff03f6 R FDKaacEnc_huff_ctab5
0000000000ff0498 R FDKaacEnc_huff_ctab6
0000000000ff053a R FDKaacEnc_huff_ctab7
0000000000ff05ba R FDKaacEnc_huff_ctab8
0000000000ff063a R FDKaacEnc_huff_ctab9
0000000000ff0ba8 R FDKaacEnc_huff_ctabscf
0000000000feffd4 R FDKaacEnc_huff_ltab11
0000000000fef864 R FDKaacEnc_huff_ltab1_2
0000000000fef9a8 R FDKaacEnc_huff_ltab3_4
0000000000fefaec R FDKaacEnc_huff_ltab5_6
0000000000fefc30 R FDKaacEnc_huff_ltab7_8
0000000000fefd30 R FDKaacEnc_huff_ltab9_10
0000000000ff00f5 R FDKaacEnc_huff_ltabscf
0000000000ff0d8c R FDKaacEnc_mTab_3_4
0000000000ff15b4 R FDKaacEnc_mTab_4_3Elc
0000000000ff1194 R FDKaacEnc_quantTableE
0000000000ff118c R FDKaacEnc_quantTableQ
0000000000ff119c R FDKaacEnc_sideInfoTabLong
0000000000ff1204 R FDKaacEnc_sideInfoTabShort
0000000000ff1db4 R FDKaacEnc_specExpMantTableCombElc
0000000000ff1e94 R FDKaacEnc_specExpTableComb
0000000000ff1564 R FDKaacEnc_tnsCoeff3Borders
0000000000ff1594 R FDKaacEnc_tnsCoeff4Borders
0000000000ff1554 R FDKaacEnc_tnsEncCoeff3
0000000000ff1574 R FDKaacEnc_tnsEncCoeff4
0000000000b3e55c T FDKaalloc
0000000000b3e5b8 T FDKaalloc_L
0000000000b3e5a0 T FDKafree
0000000000b3e5fc T FDKafree_L
0000000000b3e544 T FDKcalloc
0000000000b3e5a8 T FDKcalloc_L
0000000000b3e660 T FDKfclose
0000000000b3e7ac T FDKfeof
0000000000b3e680 T FDKfflush
0000000000b3e6bc T FDKfgets
0000000000b3e65c T FDKfopen
0000000000b3e460 T FDKfprintf
0000000000b3e6a0 T FDKfread
0000000000b3e6f8 T FDKfread_EL
0000000000b3e558 T FDKfree
0000000000b3e5b4 T FDKfree_L
0000000000b3e664 T FDKfseek
0000000000b3e66c T FDKftell
0000000000b3e684 T FDKfwrite
0000000000b3e6cc T FDKfwrite_EL
0000000000b3e45c T FDKgetchar
0000000000b3e550 T FDKmalloc
0000000000b3e61c T FDKmemclear
0000000000b3e63c T FDKmemcmp
0000000000b3e604 T FDKmemcpy
0000000000b3e60c T FDKmemmove
0000000000b3e614 T FDKmemset
0000000000b3e7b0 T FDKprintDisclaimer
0000000000b3e360 T FDKprintf
0000000000b3e3d4 T FDKprintfErr
0000000000b3e6c0 T FDKrewind
0000000000b16ba8 T FDKsbrEnc_EncodeIcc
0000000000b1672c T FDKsbrEnc_EncodeIid
0000000000b16e14 T FDKsbrEnc_EncodeIpd
0000000000b17078 T FDKsbrEnc_EncodeOpd
0000000000b172dc T FDKsbrEnc_WritePSBitstream
0000000000b3e4c8 T FDKsprintf
0000000000b3e530 T FDKstrchr
0000000000b3e644 T FDKstrcmp
0000000000b3e538 T FDKstrcpy
0000000000b3e628 T FDKstrlen
0000000000b3e648 T FDKstrncmp
0000000000b3e53c T FDKstrncpy
0000000000b3e534 T FDKstrstr
0000000000c57a40 T FTC_CMapCache_Lookup
0000000000c57864 T FTC_CMapCache_New
0000000000c557bc T FTC_ImageCache_Lookup
0000000000c564d8 T FTC_ImageCache_LookupScaler
0000000000c55750 T FTC_ImageCache_New
0000000000c586c0 T FTC_Manager_Done
0000000000c58058 T FTC_Manager_LookupFace
0000000000c581c0 T FTC_Manager_LookupSize
0000000000c584bc T FTC_Manager_New
0000000000c589c8 T FTC_Manager_RemoveFaceID
0000000000c58848 T FTC_Manager_Reset
0000000000c58d70 T FTC_Node_Unref
0000000000c56b40 T FTC_SBitCache_Lookup
0000000000c571f0 T FTC_SBitCache_LookupScaler
0000000000c56b08 T FTC_SBitCache_New
0000000000bb32a8 T FT_Activate_Size
0000000000ba9480 T FT_Add_Default_Modules
0000000000bb3aa0 T FT_Add_Module
0000000000bba058 T FT_Angle_Diff
0000000000bb9874 T FT_Atan2
0000000000bafca0 T FT_Attach_File
0000000000bafd10 T FT_Attach_Stream
0000000000bbfe04 T FT_Bitmap_Blend
0000000000bbec24 T FT_Bitmap_Convert
0000000000bbe2ec T FT_Bitmap_Copy
0000000000bbf69c T FT_Bitmap_Done
0000000000bbe630 T FT_Bitmap_Embolden
0000000000bbe26c T FT_Bitmap_Init
0000000000bbe2ac T FT_Bitmap_New
0000000000baa630 T FT_CeilFix
0000000000bc2198 T FT_ClassicKern_Free
0000000000bc20c8 T FT_ClassicKern_Validate
0000000000bb9530 T FT_Cos
0000000000baaae0 T FT_DivFix
0000000000bafe9c T FT_Done_Face
0000000000ba98f0 T FT_Done_FreeType
0000000000bc1728 T FT_Done_Glyph
0000000000bb4988 T FT_Done_Library
0000000000bc24a0 T FT_Done_MM_Var
0000000000bb0508 T FT_Done_Size
0000000000babe94 T FT_Error_String
0000000000bc3328 T FT_Face_CheckTrueTypePatents
0000000000bb2560 T FT_Face_GetCharVariantIndex
0000000000bb2750 T FT_Face_GetCharVariantIsDefault
0000000000bb293c T FT_Face_GetCharsOfVariant
0000000000bb280c T FT_Face_GetVariantSelectors
0000000000bb2894 T FT_Face_GetVariantsOfChar
0000000000bb238c T FT_Face_Properties
0000000000bc3344 T FT_Face_SetUnpatentedHinting
0000000000baa654 T FT_FloorFix
0000000000ba9954 T FT_Get_Advance
0000000000ba9bdc T FT_Get_Advances
0000000000bbe00c T FT_Get_BDF_Charset_ID
0000000000bbe14c T FT_Get_BDF_Property
0000000000bc0c8c T FT_Get_CID_From_Glyph_Index
0000000000bc0b8c T FT_Get_CID_Is_Internally_CID_Keyed
0000000000bc0a38 T FT_Get_CID_Registry_Ordering_Supplement
0000000000bb1bc4 T FT_Get_CMap_Format
0000000000bb31b0 T FT_Get_CMap_Language_ID
0000000000baf334 T FT_Get_Char_Index
0000000000bb1cc8 T FT_Get_Charmap_Index
0000000000bb3980 T FT_Get_Color_Glyph_Layer
0000000000bc0d90 T FT_Get_FSType_Flags
0000000000bb21e0 T FT_Get_First_Char
0000000000babedc T FT_Get_Font_Format
0000000000bc0ec8 T FT_Get_Gasp
0000000000bc18d4 T FT_Get_Glyph
0000000000bb2b74 T FT_Get_Glyph_Name
0000000000bb14b4 T FT_Get_Kerning
0000000000bc2e30 T FT_Get_MM_Blend_Coordinates
0000000000bc2404 T FT_Get_MM_Var
0000000000bc2700 T FT_Get_MM_WeightVector
0000000000bb40a0 T FT_Get_Module
0000000000bc21f0 T FT_Get_Multi_Master
0000000000bb29e4 T FT_Get_Name_Index
0000000000bb2290 T FT_Get_Next_Char
0000000000bc36e4 T FT_Get_PFR_Advance
0000000000bc3610 T FT_Get_PFR_Kerning
0000000000bc336c T FT_Get_PFR_Metrics
0000000000bc8790 T FT_Get_PS_Font_Info
0000000000bc896c T FT_Get_PS_Font_Private
0000000000bc8a7c T FT_Get_PS_Font_Value
0000000000bb2d84 T FT_Get_Postscript_Name
0000000000bb3430 T FT_Get_Renderer
0000000000bb7f5c T FT_Get_Sfnt_LangTag
0000000000bb7d64 T FT_Get_Sfnt_Name
0000000000bb7d0c T FT_Get_Sfnt_Name_Count
0000000000bb2eec T FT_Get_Sfnt_Table
0000000000bb4ce0 T FT_Get_SubGlyph_Info
0000000000bb16dc T FT_Get_Track_Kerning
0000000000bb4c48 T FT_Get_TrueType_Engine_Type
0000000000bc2f78 T FT_Get_Var_Axis_Flags
0000000000bc2ed4 T FT_Get_Var_Blend_Coordinates
0000000000bc2aa4 T FT_Get_Var_Design_Coordinates
0000000000bc8b6c T FT_Get_WinFNT_Header
0000000000babf68 T FT_Get_X11_Font_Format
0000000000bc84f4 T FT_GlyphSlot_Embolden
0000000000bc846c T FT_GlyphSlot_Oblique
0000000000bc0958 T FT_GlyphSlot_Own_Bitmap
0000000000bc1530 T FT_Glyph_Copy
0000000000bc1b34 T FT_Glyph_Get_CBox
0000000000bc7bf0 T FT_Glyph_Stroke
0000000000bc7d98 T FT_Glyph_StrokeBorder
0000000000bc1cd8 T FT_Glyph_To_Bitmap
0000000000bc1a60 T FT_Glyph_Transform
0000000000c5be0c T FT_Gzip_Uncompress
0000000000bc88a0 T FT_Has_PS_Glyph_Names
0000000000ba985c T FT_Init_FreeType
0000000000bad850 T FT_Library_SetLcdFilter
0000000000bad824 T FT_Library_SetLcdFilterWeights
0000000000bad87c T FT_Library_SetLcdGeometry
0000000000bb48c8 T FT_Library_Version
0000000000bb046c T FT_List_Add
0000000000bba554 T FT_List_Finalize
0000000000baffa8 T FT_List_Find
0000000000bba3f8 T FT_List_Insert
0000000000bba494 T FT_List_Iterate
0000000000bb003c T FT_List_Remove
0000000000bb35e8 T FT_List_Up
0000000000baf2a8 T FT_Load_Char
0000000000ba9e8c T FT_Load_Glyph
0000000000bb2fbc T FT_Load_Sfnt_Table
0000000000baad58 T FT_Matrix_Invert
0000000000baabec T FT_Matrix_Multiply
0000000000baa804 T FT_MulDiv
0000000000baaa90 T FT_MulFix
0000000000baf3e4 T FT_New_Face
0000000000bc17b0 T FT_New_Glyph
0000000000bb47fc T FT_New_Library
0000000000bafbd0 T FT_New_Memory_Face
0000000000bb0298 T FT_New_Size
0000000000bc32d0 T FT_OpenType_Free
0000000000bc3190 T FT_OpenType_Validate
0000000000bafc60 T FT_Open_Face
0000000000baec24 T FT_Outline_Check
0000000000bb58a4 T FT_Outline_Copy
0000000000bb4df8 T FT_Outline_Decompose
0000000000bb5794 T FT_Outline_Done
0000000000bb5ed8 T FT_Outline_Embolden
0000000000bb5f08 T FT_Outline_EmboldenXY
0000000000bc379c T FT_Outline_GetInsideBorder
0000000000bc37e8 T FT_Outline_GetOutsideBorder
0000000000bbd158 T FT_Outline_Get_BBox
0000000000bb5e24 T FT_Outline_Get_Bitmap
0000000000bae2b4 T FT_Outline_Get_CBox
0000000000bb6498 T FT_Outline_Get_Orientation
0000000000bb55ac T FT_Outline_New
0000000000bb5c10 T FT_Outline_Render
0000000000bb5a34 T FT_Outline_Reverse
0000000000baefdc T FT_Outline_Transform
0000000000baf09c T FT_Outline_Translate
0000000000babc40 T FT_Palette_Data_Get
0000000000babce8 T FT_Palette_Select
0000000000babde0 T FT_Palette_Set_Foreground_Color
0000000000bb4724 T FT_Property_Get
0000000000bb4458 T FT_Property_Set
0000000000bafe50 T FT_Reference_Face
0000000000bb47b4 T FT_Reference_Library
0000000000bb3df8 T FT_Remove_Module
0000000000baf224 T FT_Render_Glyph
0000000000bb1158 T FT_Request_Size
0000000000baa5ec T FT_RoundFix
0000000000bb17e8 T FT_Select_Charmap
0000000000bb106c T FT_Select_Size
0000000000bb12dc T FT_Set_Char_Size
0000000000bb1ab0 T FT_Set_Charmap
0000000000bb4bcc T FT_Set_Debug_Hook
0000000000ba94f0 T FT_Set_Default_Properties
0000000000bc2b48 T FT_Set_MM_Blend_Coordinates
0000000000bc2508 T FT_Set_MM_Design_Coordinates
0000000000bc2604 T FT_Set_MM_WeightVector
0000000000bc3024 T FT_Set_Named_Instance
0000000000bb13c4 T FT_Set_Pixel_Sizes
0000000000bb3464 T FT_Set_Renderer
0000000000bae994 T FT_Set_Transform
0000000000bc2cbc T FT_Set_Var_Blend_Coordinates
0000000000bc27b8 T FT_Set_Var_Design_Coordinates
0000000000bb30b8 T FT_Sfnt_Table_Info
0000000000bb95ec T FT_Sin
0000000000c5d9d4 T FT_Stream_OpenBzip2
0000000000c5b55c T FT_Stream_OpenGzip
0000000000c5c458 T FT_Stream_OpenLZW
0000000000bc5ec0 T FT_Stroker_BeginSubPath
0000000000bc41f8 T FT_Stroker_ConicTo
0000000000bc4e24 T FT_Stroker_CubicTo
0000000000bc3aa8 T FT_Stroker_Done
0000000000bc5fcc T FT_Stroker_EndSubPath
0000000000bc75d0 T FT_Stroker_Export
0000000000bc7320 T FT_Stroker_ExportBorder
0000000000bc700c T FT_Stroker_GetBorderCounts
0000000000bc7218 T FT_Stroker_GetCounts
0000000000bc3bbc T FT_Stroker_LineTo
0000000000bc3834 T FT_Stroker_New
0000000000bc761c T FT_Stroker_ParseOutline
0000000000bc3a1c T FT_Stroker_Rewind
0000000000bc3974 T FT_Stroker_Set
0000000000bb961c T FT_Tan
0000000000bc2070 T FT_TrueTypeGX_Free
0000000000bc1f98 T FT_TrueTypeGX_Validate
0000000000bb9ffc T FT_Vector_From_Polar
0000000000baa6ac T FT_Vector_Length
0000000000bb9eec T FT_Vector_Polarize
0000000000bb9cd8 T FT_Vector_Rotate
0000000000baf148 T FT_Vector_Transform
0000000000bb9560 T FT_Vector_Unit
0000000000fef2a2 R FacWindowSynth128
0000000000fef5a2 R FacWindowSynth32
0000000000fef7a2 R FacWindowSynth48
0000000000fef4a2 R FacWindowSynth64
0000000000fef622 R FacWindowSynth96
0000000000fef3a2 R FacWindowZir128
0000000000fef5e2 R FacWindowZir32
0000000000fef802 R FacWindowZir48
0000000000fef522 R FacWindowZir64
0000000000fef6e2 R FacWindowZir96
0000000000ca1534 T FcAtomicCreate
0000000000ca1a00 T FcAtomicDeleteNew
0000000000ca1a74 T FcAtomicDestroy
0000000000ca16d4 T FcAtomicLock
0000000000ca1980 T FcAtomicNewFile
0000000000ca1998 T FcAtomicOrigFile
0000000000ca19b0 T FcAtomicReplaceOrig
0000000000ca1a28 T FcAtomicUnlock
0000000000ca97e4 T FcBlanksAdd
0000000000ca97c8 T FcBlanksCreate
0000000000ca97d4 T FcBlanksDestroy
0000000000ca9800 T FcBlanksIsMember
0000000000ca46dc T FcCacheCopySet
0000000000ca48e0 T FcCacheCreateTagFile
0000000000ca46b8 T FcCacheDir
0000000000ca48bc T FcCacheNumFont
0000000000ca48a4 T FcCacheNumSubdir
0000000000ca4854 T FcCacheSubdir
0000000000caef8c T FcCharSetAddChar
0000000000caf1b4 T FcCharSetCopy
0000000000cb0430 T FcCharSetCount
0000000000cb076c T FcCharSetCoverage
0000000000cae80c T FcCharSetCreate
0000000000caf058 T FcCharSetDelChar
0000000000cae920 T FcCharSetDestroy
0000000000caf248 T FcCharSetEqual
0000000000cb0730 T FcCharSetFirstPage
0000000000cb00b8 T FcCharSetHasChar
0000000000caf4d8 T FcCharSetIntersect
0000000000cb0178 T FcCharSetIntersectCount
0000000000cafb70 T FcCharSetIsSubset
0000000000caf8c0 T FcCharSetMerge
0000000000cae90c T FcCharSetNew
0000000000cb066c T FcCharSetNextPage
0000000000caffe8 T FcCharSetSubtract
0000000000cb04e4 T FcCharSetSubtractCount
0000000000caf7fc T FcCharSetUnion
0000000000ca9974 T FcConfigAddRule
0000000000cac9ec T FcConfigAppFontAddDir
0000000000cac880 T FcConfigAppFontAddFile
0000000000cacb14 T FcConfigAppFontClear
0000000000ca8a80 T FcConfigBuildFonts
0000000000ca7c30 T FcConfigCreate
0000000000ca7a2c T FcConfigDestroy
0000000000cac164 T FcConfigEnableHome
0000000000cad534 T FcConfigFileInfoIterGet
0000000000cad448 T FcConfigFileInfoIterInit
0000000000cad4a8 T FcConfigFileInfoIterNext
0000000000ca952c T FcConfigFilename
0000000000ca981c T FcConfigGetBlanks
0000000000ca9728 T FcConfigGetCache
0000000000ca9448 T FcConfigGetCacheDirs
0000000000ca8e2c T FcConfigGetConfigDirs
0000000000ca96bc T FcConfigGetConfigFiles
0000000000ca8374 T FcConfigGetCurrent
0000000000ca9088 T FcConfigGetFontDirs
0000000000ca9740 T FcConfigGetFonts
0000000000ca9850 T FcConfigGetRescanInterval
0000000000ca9924 T FcConfigGetRescanInverval
0000000000cac818 T FcConfigGetSysRoot
0000000000cabd3c T FcConfigHome
0000000000cd3c54 T FcConfigParseAndLoad
0000000000cd3c8c T FcConfigParseAndLoadFromMemory
0000000000ca8540 T FcConfigReference
0000000000ca8d04 T FcConfigSetCurrent
0000000000ca98b4 T FcConfigSetRescanInterval
0000000000ca9948 T FcConfigSetRescanInverval
0000000000cacd40 T FcConfigSetSysRoot
0000000000cabd00 T FcConfigSubstitute
0000000000caa4e8 T FcConfigSubstituteWithPat
0000000000ca8160 T FcConfigUptoDate
0000000000cb429c T FcDefaultSubstitute
0000000000ca4080 T FcDirCacheClean
0000000000ca1a98 T FcDirCacheCreateUUID
0000000000ca1ab8 T FcDirCacheDeleteUUID
0000000000ca2a88 T FcDirCacheLoad
0000000000ca2e30 T FcDirCacheLoadFile
0000000000cb53e0 T FcDirCacheRead
0000000000cb5208 T FcDirCacheRescan
0000000000ca1c28 T FcDirCacheUnlink
0000000000ca2a64 T FcDirCacheUnload
0000000000ca316c T FcDirCacheValid
0000000000cb5454 T FcDirSave
0000000000cb4f94 T FcDirScan
0000000000cb478c T FcFileIsDir
0000000000cb4c4c T FcFileScan
0000000000cbe12c T FcFini
0000000000cc239c T FcFontList
0000000000cc47ec T FcFontMatch
0000000000cc2ed8 T FcFontRenderPrepare
0000000000cbcac8 T FcFontSetAdd
0000000000cbc9c0 T FcFontSetCreate
0000000000cbca34 T FcFontSetDestroy
0000000000cc1a98 T FcFontSetList
0000000000cc4118 T FcFontSetMatch
0000000000cb3cb4 T FcFontSetPrint
0000000000cc49d8 T FcFontSetSort
0000000000cc49b4 T FcFontSetSortDestroy
0000000000cc58c4 T FcFontSort
0000000000cba558 T FcFreeTypeCharIndex
0000000000cba77c T FcFreeTypeCharSet
0000000000cbaa10 T FcFreeTypeCharSetAndSpacing
0000000000cb9fa4 T FcFreeTypeQuery
0000000000cba080 T FcFreeTypeQueryAll
0000000000cb7d84 T FcFreeTypeQueryFace
0000000000cb3ddc T FcGetDefaultLangs
0000000000cbf5b8 T FcGetLangs
0000000000cbdcfc T FcGetVersion
0000000000cbe118 T FcInit
0000000000cbe1b4 T FcInitBringUptoDate
0000000000cbe064 T FcInitLoadConfig
0000000000cbe0fc T FcInitLoadConfigAndFonts
0000000000cbe150 T FcInitReinitialize
0000000000cbe758 T FcLangGetCharSet
0000000000cbe9a8 T FcLangNormalize
0000000000cbf878 T FcLangSetAdd
0000000000cbfd44 T FcLangSetCompare
0000000000cc07b0 T FcLangSetContains
0000000000cbf6b0 T FcLangSetCopy
0000000000cbe880 T FcLangSetCreate
0000000000cbf928 T FcLangSetDel
0000000000cbf650 T FcLangSetDestroy
0000000000cc061c T FcLangSetEqual
0000000000cc0e70 T FcLangSetGetLangs
0000000000cbfa40 T FcLangSetHasLang
0000000000cc0208 T FcLangSetHash
0000000000cc104c T FcLangSetSubtract
0000000000cc0f8c T FcLangSetUnion
0000000000cc6958 T FcMatrixCopy
0000000000cc6a18 T FcMatrixEqual
0000000000cc6b24 T FcMatrixMultiply
0000000000cc6c1c T FcMatrixRotate
0000000000cc6c74 T FcMatrixScale
0000000000cc6cc4 T FcMatrixShear
0000000000cc7174 T FcNameConstant
0000000000cc70d4 T FcNameGetConstant
0000000000cc6d4c T FcNameGetObjectType
0000000000cc74ac T FcNameParse
0000000000cc709c T FcNameRegisterConstants
0000000000cc6d14 T FcNameRegisterObjectTypes
0000000000cc80e4 T FcNameUnparse
0000000000cc70b8 T FcNameUnregisterConstants
0000000000cc6d30 T FcNameUnregisterObjectTypes
0000000000cc1248 T FcObjectSetAdd
0000000000cc1648 T FcObjectSetBuild
0000000000cc11d4 T FcObjectSetCreate
0000000000cc1484 T FcObjectSetDestroy
0000000000cc1518 T FcObjectSetVaBuild
0000000000ccad64 T FcPatternAdd
0000000000ccb3ac T FcPatternAddBool
0000000000ccb44c T FcPatternAddCharSet
0000000000ccb1d4 T FcPatternAddDouble
0000000000ccb49c T FcPatternAddFTFace
0000000000ccb138 T FcPatternAddInteger
0000000000ccb53c T FcPatternAddLangSet
0000000000ccb310 T FcPatternAddMatrix
0000000000ccb5dc T FcPatternAddRange
0000000000ccb2c0 T FcPatternAddString
0000000000ccadd0 T FcPatternAddWeak
0000000000ccc940 T FcPatternBuild
0000000000cc8b60 T FcPatternCreate
0000000000ccaf80 T FcPatternDel
0000000000cc9a34 T FcPatternDestroy
0000000000ccbff4 T FcPatternDuplicate
0000000000cca154 T FcPatternEqual
0000000000cca5fc T FcPatternEqualSubset
0000000000ccd0bc T FcPatternFilter
0000000000ccd43c T FcPatternFindIter
0000000000cb5474 T FcPatternFormat
0000000000ccb87c T FcPatternGet
0000000000ccbd08 T FcPatternGetBool
0000000000ccbd60 T FcPatternGetCharSet
0000000000ccbab8 T FcPatternGetDouble
0000000000ccbdec T FcPatternGetFTFace
0000000000ccb9a0 T FcPatternGetInteger
0000000000ccbe78 T FcPatternGetLangSet
0000000000ccbbf4 T FcPatternGetMatrix
0000000000ccbf9c T FcPatternGetRange
0000000000ccbb9c T FcPatternGetString
0000000000ccb81c T FcPatternGetWithBinding
0000000000cca414 T FcPatternHash
0000000000cca288 T FcPatternIterEqual
0000000000ccd494 T FcPatternIterGetObject
0000000000ccd568 T FcPatternIterGetValue
0000000000ccd354 T FcPatternIterIsValid
0000000000cca398 T FcPatternIterNext
0000000000cca24c T FcPatternIterStart
0000000000ccd4c4 T FcPatternIterValueCount
0000000000cc9c80 T FcPatternObjectCount
0000000000cb29f8 T FcPatternPrint
0000000000ccc270 T FcPatternReference
0000000000ccafc8 T FcPatternRemove
0000000000ccc300 T FcPatternVaBuild
0000000000cce2cc T FcRangeCopy
0000000000cce1d4 T FcRangeCreateDouble
0000000000cce238 T FcRangeCreateInteger
0000000000cce2a8 T FcRangeDestroy
0000000000cce2fc T FcRangeGetDouble
0000000000cd3680 T FcRuleDestroy
0000000000ccec50 T FcScandir
0000000000cd1b68 T FcStrBasename
0000000000cd12e4 T FcStrBuildFilename
0000000000ccfb38 T FcStrCmp
0000000000ccf998 T FcStrCmpIgnoreCase
0000000000ccf638 T FcStrCopy
0000000000cd1884 T FcStrCopyFilename
0000000000cd1a98 T FcStrDirname
0000000000ccf740 T FcStrDowncase
0000000000ccf71c T FcStrFree
0000000000cd16a8 T FcStrListCreate
0000000000cd1798 T FcStrListDone
0000000000cd2c30 T FcStrListFirst
0000000000cd1724 T FcStrListNext
0000000000ccf65c T FcStrPlus
0000000000cd162c T FcStrSetAdd
0000000000cd2614 T FcStrSetAddFilename
0000000000cd1dac T FcStrSetCreate
0000000000cd27d8 T FcStrSetDel
0000000000cd17c8 T FcStrSetDestroy
0000000000cd20ac T FcStrSetEqual
0000000000cd1de4 T FcStrSetMember
0000000000cd048c T FcStrStr
0000000000cd02f0 T FcStrStrIgnoreCase
0000000000cd0990 T FcUcs4ToUtf8
0000000000cd0d8c T FcUtf16Len
0000000000cd0bb8 T FcUtf16ToUcs4
0000000000cd087c T FcUtf8Len
0000000000cd0648 T FcUtf8ToUcs4
0000000000cc8c20 T FcValueDestroy
0000000000cc9558 T FcValueEqual
0000000000cb2538 T FcValuePrint
0000000000cc8e94 T FcValueSave
0000000000cd34b4 T FcWeightFromOpenType
0000000000cd30ac T FcWeightFromOpenTypeDouble
0000000000cd34f4 T FcWeightToOpenType
0000000000cd3344 T FcWeightToOpenTypeDouble
0000000000b64398 T FindNearestBitrate
0000000000b7d830 T GSMDecodeFrameExit
0000000000b8c424 T GSMEncodeFrame
0000000000b8c340 T GSMEncodeFrameExit
0000000000b7d8a8 T GSMFrameDecode
0000000000b7d794 T GSMInitDecode
0000000000b8c298 T GSMInitEncode
0000000000b84f70 T G_code
0000000000b851cc T G_pitch
0000000000b45bcc T GetTitleGain
0000000000b3eafc T GetVbrTag
0000000000b986a4 T Get_isp_pol
0000000000b98588 T Get_isp_pol_16kHz
0000000000ff87ec R H11_nc
0000000000ff89dc R H12_nc
000000000102cbec R HP_gain
0000000000b3e650 T IS_LITTLE_ENDIAN
000000000101ea60 R If2DecBytesPerFrame
000000000101f608 R If2EncBytesPerFrame
0000000000b453a4 T InitGainAnalysis
0000000000b6b9a0 T InitMP3
0000000000b3ed74 T InitVbrTag
0000000000b7a804 T Init_D_plsf_3
0000000000b98908 T Init_Lagconc
0000000000b8f690 T Int_lpc_1and3
0000000000b8f794 T Int_lpc_1and3_2
0000000000b8f878 T Int_lpc_1to3
0000000000b8fa10 T Int_lpc_1to3_2
0000000000b7c8a8 T Int_lsf
0000000000b85a00 T Interpol_3or6
0000000000b8fb98 T Inv_sqrt
0000000000fe5510 R InverseQuantTable
0000000000b987c0 T Isf_isp
0000000000b97c4c T Isp_Az
0000000001009f00 R KBDWindow1024
0000000001008f90 R KBDWindow120
0000000001009080 R KBDWindow128
0000000001009180 R KBDWindow768
0000000001008ed0 R KBDWindow96
0000000001009780 R KBDWindow960
0000000000b50514 T L3psycho_anal_vbr
0000000000b864dc T LTP_flag_update
0000000000b85dc4 T L_Comp
0000000000b864c4 T L_Extract
0000000000b85a94 T L_abs
0000000000b8fc28 T L_deposit_h
0000000000b8fc30 T L_deposit_l
0000000000b865ac T L_negate
0000000000b8fff0 T L_shr_r
0000000000b87240 T Lag_max_wrapper
0000000000b85aa0 T Lag_window
0000000000b85eb0 T Levinson
0000000000b85e80 T Levinson_exit
0000000000b85dfc T Levinson_init
0000000000b85e54 T Levinson_reset
0000000000b9cdd4 T Lg2_normalized
0000000000b8fc38 T Log2
0000000000b8fc7c T Log2_norm
0000000001028caa R Log2_norm_table
0000000000feaa08 R LowDelaySynthesis120
0000000000fea708 R LowDelaySynthesis128
0000000000fea348 R LowDelaySynthesis160
0000000000fe9da8 R LowDelaySynthesis240
0000000000fe97a8 R LowDelaySynthesis256
0000000000feb8d8 R LowDelaySynthesis480
0000000000feacd8 R LowDelaySynthesis512
0000000000b905ec T Lsf_lsp
0000000000b8fcd8 T Lsf_wt
0000000000b90054 T Lsp_Az
0000000000b90638 T Lsp_lsf
0000000000b88550 T MR475_gain_quant
0000000000b883c4 T MR475_update_unq_pred
0000000000b89124 T MR795_gain_quant
0000000000fe5914 R MantissaTable
0000000000b99cf0 T Pit_shrp
0000000000b868dc T Pitch_fr
0000000000b868ac T Pitch_fr_exit
0000000000b86848 T Pitch_fr_init
0000000000b86890 T Pitch_fr_reset
0000000000b87508 T Pitch_ol
0000000000b87ab4 T Pitch_ol_wgh
0000000000b7d45c T Post_Filter
0000000000b7d3c4 T Post_Filter_reset
0000000000b7d17c T Post_Process
0000000000b7d15c T Post_Process_reset
0000000000b907cc T Pow2
0000000000b88294 T Pre_Process
0000000000b88264 T Pre_Process_exit
0000000000b881f8 T Pre_Process_init
0000000000b88244 T Pre_Process_reset
0000000000b99ea8 T Pred_lt4
0000000000b90850 T Pred_lt_3or6
0000000000b8834c T Prm2bits
0000000000b3f7b0 T PutVbrTag
0000000000b90c78 T Q_plsf_3
0000000000b91578 T Q_plsf_5
0000000000b91dfc T Q_plsf_exit
0000000000b91d90 T Q_plsf_init
0000000000b91ddc T Q_plsf_reset
0000000000b8a678 T Qua_gain
0000000000b9de6c T Reorder_isf
0000000000b91e2c T Reorder_lsf
0000000000b91e78 T Residu
0000000000b5dc18 T ResvAdjust
0000000000b5da24 T ResvFrameBegin
0000000000b5dc38 T ResvFrameEnd
0000000000b5db1c T ResvMaxBits
0000000001004cf8 R RotVectorImag12
00000000010058d0 R RotVectorImag120
0000000001005b40 R RotVectorImag192
00000000010067b8 R RotVectorImag20
0000000001004d40 R RotVectorImag24
0000000001005e68 R RotVectorImag240
00000000010053f0 R RotVectorImag384
0000000001004dd0 R RotVectorImag48
00000000010063d0 R RotVectorImag480
0000000001004cd0 R RotVectorImag6
0000000001005768 R RotVectorImag60
0000000001004ed0 R RotVectorImag80
0000000001005030 R RotVectorImag96
0000000001004ce0 R RotVectorReal12
00000000010057e0 R RotVectorReal120
00000000010059c0 R RotVectorReal192
0000000001006790 R RotVectorReal20
0000000001004d10 R RotVectorReal24
0000000001005cc0 R RotVectorReal240
00000000010050f0 R RotVectorReal384
0000000001004d70 R RotVectorReal48
0000000001006010 R RotVectorReal480
0000000001004cc0 R RotVectorReal6
00000000010056f0 R RotVectorReal60
0000000001004e30 R RotVectorReal80
0000000001004f70 R RotVectorReal96
0000000000ffea40 R ScaleFactors
0000000000ffea7c R ScaleFactorsFine
0000000000b9688c T Serial_parm
0000000000b96928 T Serial_parm_1bit
0000000000b922d0 T Set_zero
00000000010044b8 R SineTable1024
00000000010039e0 R SineTable384
0000000001003ce8 R SineTable480
00000000010040b0 R SineTable512
0000000001003938 R SineTable80
00000000010086d0 R SineWindow1024
0000000001006a20 R SineWindow120
0000000001006b10 R SineWindow128
00000000010067f0 R SineWindow16
0000000001006c10 R SineWindow192
0000000001006810 R SineWindow24
0000000001006d90 R SineWindow256
0000000001006840 R SineWindow32
0000000001006880 R SineWindow48
0000000001007190 R SineWindow480
0000000001007550 R SineWindow512
00000000010068e0 R SineWindow64
0000000001007950 R SineWindow768
00000000010067e0 R SineWindow8
0000000001006960 R SineWindow96
0000000001007f50 R SineWindow960
0000000000b64884 T SmpFrqIndex
0000000000adc7a8 T SpatialDecApplyFrame
0000000000adc728 T SpatialDecChannelProperties
0000000000adbfc4 T SpatialDecInitParserContext
0000000000b7d860 T Speech_Decode_Frame_reset
0000000000b8c3c0 T Speech_Encode_Frame_First
0000000000b8c384 T Speech_Encode_Frame_reset
0000000000b924f4 T Syn_filt
0000000000ba0618 T Syn_filt_32
0000000000b3e658 T TO_LITTLE_ENDIAN
0000000000bc9acc T TT_New_Context
0000000000bc9c38 T TT_RunIns
0000000000b90b64 T Test_Vq_subvec3
0000000000b90ac4 T Test_Vq_subvec4
0000000000b7f4a4 T Test_build_code
0000000000b7f4a0 T Test_search_2i40
0000000000b3f064 T UpdateMusicCRC
0000000000b65510 T VBR_encode_frame
0000000000b57204 T VBR_new_iteration_loop
0000000000b55fe0 T VBR_old_iteration_loop
0000000000b92818 T Weight_Ai
000000000101ea40 R WmfDecBytesPerFrame
000000000101f5e8 R WmfEncBytesPerFrame
0000000000c770c0 T XML_DefaultCurrent
0000000000c772dc T XML_ErrorString
0000000000c775cc T XML_ExpatVersion
0000000000c775d8 T XML_ExpatVersionInfo
0000000000c73794 T XML_ExternalEntityParserCreate
0000000000c76f68 T XML_FreeContentModel
0000000000c75364 T XML_GetBase
0000000000c75f2c T XML_GetBuffer
0000000000c76c78 T XML_GetCurrentByteCount
0000000000c76bfc T XML_GetCurrentByteIndex
0000000000c76ea0 T XML_GetCurrentColumnNumber
0000000000c76ddc T XML_GetCurrentLineNumber
0000000000c76bbc T XML_GetErrorCode
0000000000c77618 T XML_GetFeatureList
0000000000c753e4 T XML_GetIdAttributeIndex
0000000000c76cf8 T XML_GetInputContext
0000000000c76b34 T XML_GetParsingStatus
0000000000c753a4 T XML_GetSpecifiedAttributeCount
0000000000c77074 T XML_MemFree
0000000000c76fb4 T XML_MemMalloc
0000000000c7700c T XML_MemRealloc
0000000000c75bac T XML_Parse
0000000000c7661c T XML_ParseBuffer
0000000000c72988 T XML_ParserCreate
0000000000c729f4 T XML_ParserCreateNS
0000000000c729b8 T XML_ParserCreate_MM
0000000000c74984 T XML_ParserFree
0000000000c72e7c T XML_ParserReset
0000000000c76994 T XML_ResumeParser
0000000000c759e4 T XML_SetAttlistDeclHandler
0000000000c751d0 T XML_SetBase
0000000000c75570 T XML_SetCdataSectionHandler
0000000000c754d4 T XML_SetCharacterDataHandler
0000000000c7553c T XML_SetCommentHandler
0000000000c75620 T XML_SetDefaultHandler
0000000000c75664 T XML_SetDefaultHandlerExpand
0000000000c756a8 T XML_SetDoctypeDeclHandler
0000000000c759b0 T XML_SetElementDeclHandler
0000000000c75424 T XML_SetElementHandler
0000000000c735ec T XML_SetEncoding
0000000000c755ec T XML_SetEndCdataSectionHandler
0000000000c75724 T XML_SetEndDoctypeDeclHandler
0000000000c754a0 T XML_SetEndElementHandler
0000000000c7583c T XML_SetEndNamespaceDeclHandler
0000000000c75a18 T XML_SetEntityDeclHandler
0000000000c758a4 T XML_SetExternalEntityRefHandler
0000000000c758d8 T XML_SetExternalEntityRefHandlerArg
0000000000c75af8 T XML_SetHashSalt
0000000000c757c0 T XML_SetNamespaceDeclHandler
0000000000c75870 T XML_SetNotStandaloneHandler
0000000000c7578c T XML_SetNotationDeclHandler
0000000000c75a80 T XML_SetParamEntityParsing
0000000000c75508 T XML_SetProcessingInstructionHandler
0000000000c750f0 T XML_SetReturnNSTriplet
0000000000c75934 T XML_SetSkippedEntityHandler
0000000000c755b8 T XML_SetStartCdataSectionHandler
0000000000c756f0 T XML_SetStartDoctypeDeclHandler
0000000000c7546c T XML_SetStartElementHandler
0000000000c75808 T XML_SetStartNamespaceDeclHandler
0000000000c75968 T XML_SetUnknownEncodingHandler
0000000000c75758 T XML_SetUnparsedEntityDeclHandler
0000000000c75164 T XML_SetUserData
0000000000c75a4c T XML_SetXmlDeclHandler
0000000000c76894 T XML_StopParser
0000000000c75074 T XML_UseForeignDTD
0000000000c75044 T XML_UseParserAsHandlerArg
0000000000c84dfc T _INTERNAL_trim_to_complete_utf8_characters
0000000000d17a90 T _Unwind_Backtrace
0000000000d17a6c T _Unwind_DeleteException
0000000000d160b4 T _Unwind_FindEnclosingFunction
0000000000d191fc T _Unwind_Find_FDE
0000000000d17784 T _Unwind_ForcedUnwind
0000000000d16020 T _Unwind_GetCFA
0000000000d160dc T _Unwind_GetDataRelBase
0000000000d15ebc T _Unwind_GetGR
0000000000d16080 T _Unwind_GetIP
0000000000d16088 T _Unwind_GetIPInfo
0000000000d160a4 T _Unwind_GetLanguageSpecificData
0000000000d160ac T _Unwind_GetRegionStart
0000000000d160e4 T _Unwind_GetTextRelBase
0000000000d1760c T _Unwind_RaiseException
0000000000d17878 T _Unwind_Resume
0000000000d17974 T _Unwind_Resume_or_Rethrow
0000000000d16028 T _Unwind_SetGR
0000000000d1609c T _Unwind_SetIP
0000000000a76e50 T _Z10ApplyToolsPP22CAacDecoderChannelInfoPK16SamplingRateInfojjii
0000000000a6bfc4 T _Z10CPns_ApplyPK8CPnsDataPK8CIcsInfoPiPKsS7_PK16SamplingRateInfoii
0000000000a7c4ac T _Z10CRvlc_ReadP22CAacDecoderChannelInfoP13FDK_BITSTREAM
0000000000a6cbb0 T _Z10CTns_ApplyP8CTnsDataPK8CIcsInfoPiPK16SamplingRateInfoihhj
0000000000a6c390 T _Z10CTns_ResetP8CTnsData
0000000000b2b330 T _Z10FDKcrcInitP11FDK_CRCINFOjjj
0000000000a65c8c T _Z10GetDrcInfoi
0000000000a68ce8 T _Z10HcrDecoderP10CErHcrInfoP22CAacDecoderChannelInfoPK16SamplingRateInfoP13FDK_BITSTREAM
0000000000b19fd4 T _Z10PSEnc_InitP19T_PARAMETRIC_STEREOP14T_PSENC_CONFIGiiPh
0000000000b009a0 T _Z10ReadPsDataP6PS_DECP13FDK_BITSTREAMi
0000000000b015cc T _Z10ResetPsDecP6PS_DEC
0000000000b31dcc T _Z10fixp_atan2ii
0000000000b379d4 T _Z10fixp_floorii
0000000000b37b14 T _Z10fixp_roundii
0000000000b3829c T _Z10imdct_gainPiS_i
0000000000b385fc T _Z10imlt_blockP6mdct_tPiS1_PKsiiiPK8FIXP_SPKiS6_iii
0000000000b37bac T _Z10mdct_blockP6mdct_tPKsiPiiiPK8FIXP_SPKiPs
0000000000aef3ac T _Z10setCplxVecP8FIXP_DPKii
0000000000b01bec T _Z11ApplyPsSlotP6PS_DECPPiS2_S1_S1_iiiii
0000000000b014cc T _Z11CreatePsDecPP6PS_DECi
0000000000b016d4 T _Z11DeletePsDecPP6PS_DEC
0000000000b2b3c4 T _Z11FDKcrcResetP11FDK_CRCINFO
0000000000a65c98 T _Z11FreeDrcInfoPP8CDrcInfo
0000000000ab1c44 T _Z11GetArcoDatai
0000000000b028f4 T _Z11SbrCrcCheckP13FDK_BITSTREAMi
0000000000aef3a4 T _Z11copyCplxVecP8FIXP_DPKPKS_i
0000000000b38344 T _Z11imdct_drainP6mdct_tPii
0000000000ac0750 T _Z11initGainDecP16DRC_GAIN_DECODERii
0000000000adac00 T _Z11initM1andM2P17spatialDec_structii
0000000000b0267c T _Z11pvcEndFrameP15PVC_STATIC_DATAP16PVC_DYNAMIC_DATA
0000000000b04050 T _Z11resetSbrDecP7SBR_DECP15SBR_HEADER_DATAP19SBR_PREV_FRAME_DATAijP14SBR_FRAME_DATA
0000000000b3daa8 T _Z11scaleValuesPiPKiii
0000000000b3d640 T _Z11scaleValuesPiii
0000000000b3dcb4 T _Z11scaleValuesPsPKiii
0000000000b3de40 T _Z11scaleValuesPsPKsii
0000000000b3d440 T _Z11scaleValuesPsii
0000000000ab1c84 T _Z12CArco_Createv
0000000000a8821c T _Z12CLpc_ConcealPA16_sPsS1_i
0000000000a7c8ac T _Z12CRvlc_DecodeP22CAacDecoderChannelInfoP28CAacDecoderStaticChannelInfoP13FDK_BITSTREAM
0000000000b2b488 T _Z12FDKcrcEndRegP11FDK_CRCINFOP13FDK_BITSTREAMi
0000000000b2b968 T _Z12FDKcrcGetCRCP11FDK_CRCINFO
0000000000ab1c50 T _Z12FreeArcoDataPP9CArcoData
0000000000b36c84 T _Z12LdDataVectorPiS_i
0000000000b19ed8 T _Z12PSEnc_CreatePP19T_PARAMETRIC_STEREO
0000000000ac059c T _Z12approxDb2liniiPi
0000000000b03e20 T _Z12createSbrDecP11SBR_CHANNELP15SBR_HEADER_DATAP19TRANSPOSER_SETTINGSijjiii
0000000000b03fe0 T _Z12deleteSbrDecP11SBR_CHANNEL
0000000000b321f8 T _Z12fixp_cos_siniiPiS_
0000000000ac0058 T _Z12getDeltaTmini
0000000000b01f54 T _Z12pvcInitFrameP15PVC_STATIC_DATAP16PVC_DYNAMIC_DATAhhiiiPKh
0000000000ab1c90 T _Z13CArco_DestroyP9CArcoData
0000000000b2f3a4 T _Z13CLpc_AnalysisPiiPKsiiS_S_
0000000000a85294 T _Z13CLpd_FAC_ReadP13FDK_BITSTREAMPiPhiii
0000000000a6a7bc T _Z13DecodeNonPCWsP13FDK_BITSTREAMP10CErHcrInfo
0000000000a82d08 T _Z13E_UTIL_residuPKsiPiS1_i
0000000000b39310 T _Z13EcDataPairDec12DECODER_TYPEP13FDK_BITSTREAMPaS2_S2_9DATA_TYPEiiiii
0000000000a65b88 T _Z13GetAacDecoderi
0000000000b0512c T _Z13GetRam_ps_deci
0000000000a79220 T _Z13IcsReadMaxSfbP13FDK_BITSTREAMP8CIcsInfoPK16SamplingRateInfo
0000000000b19f9c T _Z13PSEnc_DestroyPP19T_PARAMETRIC_STEREO
0000000000b32780 T _Z13dct_getTablesPPK8FIXP_SPKS2_Pii
0000000000af68a4 T _Z13decodeSbrDataP15SBR_HEADER_DATAP14SBR_FRAME_DATAP19SBR_PREV_FRAME_DATAS2_S4_
0000000000b02728 T _Z13expandPredEsgPK16PVC_DYNAMIC_DATAiiPiPa
0000000000b37a84 T _Z13fixp_truncateii
0000000000ac0a1c T _Z13initActiveDrcP16DRC_GAIN_DECODERP14UNI_DRC_CONFIGii
0000000000a82a20 T _Z13int_lpc_acelpPKsS0_iiPsPi
0000000000afdd14 T _Z13lppTransposerP13SBR_LPP_TRANSP16QMF_SCALE_FACTORPPiS3_S4_iiiiiiiP9INVF_MODES6_
0000000000ae3048 T _Z13subbandTPInitP7STP_DEC
0000000000aeef68 T _Z13sumUpCplxPow2PK8FIXP_DPKiiPii
0000000000a8691c T _Z14CLpc_DecodeAVQP13FDK_BITSTREAMPiiii
0000000000b2f090 T _Z14CLpc_SynthesisPiiiiPKiiiS_S_
0000000000b2f218 T _Z14CLpc_SynthesisPiiiiPKsiiS_S_
0000000000a84478 T _Z14CLpd_AcelpReadP13FDK_BITSTREAMP17CAcelpChannelDataiii
0000000000a83ed0 T _Z14CLpd_Acelp_ZirPKsiP15CAcelpStaticMemiPii
0000000000a6bdf4 T _Z14CPns_IsPnsUsedPK8CPnsDataii
0000000000a6bdb0 T _Z14CPns_ResetDataP8CPnsDataP20CPnsInterChannelData
0000000000a88ae0 T _Z14E_LPC_a_weightPsPKsi
0000000000a828d8 T _Z14E_UTIL_preemphPKiPii
0000000000b23360 T _Z14FDK_interleavePKiPijjj
0000000000b233b0 T _Z14FDK_interleavePKiPsjjj
0000000000b23400 T _Z14FDK_interleavePKsPsjjj
0000000000b2b3e0 T _Z14FDKcrcStartRegP11FDK_CRCINFOP13FDK_BITSTREAMi
0000000000a65b94 T _Z14FreeAacDecoderPP20AAC_DECODER_INSTANCE
0000000000b05138 T _Z14FreeRam_ps_decPP6PS_DEC
0000000000a8de8c T _Z14Get_AacEncoderi
0000000000ad0194 T _Z14adtsWrite_InitP11STRUCT_ADTSP12CODER_CONFIG
0000000000adde24 T _Z14checkTimeSlotsiii
0000000000b3701c T _Z14fDivNormSignedii
0000000000b370a0 T _Z14fDivNormSignediiPi
0000000000b379ec T _Z14fixp_ceilToIntii
0000000000b3e1e4 T _Z14getScalefactorPKii
0000000000b3e294 T _Z14getScalefactorPKsi
0000000000af7768 T _Z14initHeaderDataP15SBR_HEADER_DATAiiiiji
0000000000ac0d38 T _Z14prepareDrcGainP16DRC_GAIN_DECODERP12UNI_DRC_GAINssii
0000000000ac1bfc T _Z14processDrcTimeP16DRC_GAIN_DECODERiiiiiiPi
0000000000b020ec T _Z14pvcDecodeFrameP15PVC_STATIC_DATAP16PVC_DYNAMIC_DATAPPiS4_iii
0000000000ae30b0 T _Z14subbandTPApplyP17spatialDec_structPK23SPATIAL_BS_FRAME_struct
0000000000b39220 T _Z14sym_restoreIPDP13FDK_BITSTREAMiPa
0000000000a853ec T _Z15CFac_ApplyGainsPiiiPKii
0000000000acb4ec T _Z15CLatmDemux_ReadP13FDK_BITSTREAMP10CLatmDemux14TRANSPORT_TYPEP13CSTpCallBacksP21CSAudioSpecificConfigPii
0000000000a837e8 T _Z15CLpd_AcelpResetP15CAcelpStaticMem
0000000000a88b28 T _Z15CLpd_DecodeGainPiS_i
0000000000a8a7b4 T _Z15CLpd_FdnsDecodeP22CAacDecoderChannelInfoP28CAacDecoderStaticChannelInfoPiiiPsPKsiS6_iS3_i
0000000000a7bf48 T _Z15CPulseData_ReadP13FDK_BITSTREAMP10CPulseDataPKsPKvs
0000000000afdc4c T _Z15DecodeHuffmanCWPA2_KaP13FDK_BITSTREAM
0000000000a65a18 T _Z15FDK_Delay_ApplyP15FDK_SignalDelayPsjh
0000000000aa1228 T _Z15FDKaacEnc_BCNewPP13BITCNTR_STATEPh
0000000000aabff4 T _Z15FDKaacEnc_QCNewPP8QC_STATEiPh
0000000000a8de98 T _Z15Free_AacEncoderPP10AACENCODER
0000000000b30138 T _Z15GetAnaQmfStatesi
0000000000b301f8 T _Z15GetQmfSlotsImagi
0000000000b301b8 T _Z15GetQmfSlotsReali
0000000000b1f118 T _Z15GetRam_PsEncodei
0000000000b30178 T _Z15GetSynQmfStatesi
0000000000abf818 T _Z15_initValueOrderP11VALUE_ORDER
0000000000acb3f8 T _Z15drmRead_CrcInitP10STRUCT_DRM
0000000000b2fa90 T _Z15fdkFreeMatrix1DPv
0000000000b2fbc0 T _Z15fdkFreeMatrix2DPPv
0000000000b2fe54 T _Z15fdkFreeMatrix3DPPPv
0000000000b379c4 T _Z15fixp_floorToIntii
0000000000b37ab8 T _Z15fixp_roundToIntii
0000000000af0d8c T _Z15mapSineFlagsPvcPhiPjS0_PaiS1_i
0000000000ae2ffc T _Z15subbandTPCreatePP7STP_DEC
0000000000a6e12c T _Z16CAacDecoder_InitP20AAC_DECODER_INSTANCEPK21CSAudioSpecificConfighPh
0000000000a6dc30 T _Z16CAacDecoder_Open14TRANSPORT_TYPE
0000000000a75330 T _Z16CBlock_GetEscapeP13FDK_BITSTREAMi
0000000000b2f4c8 T _Z16CLpc_ParcorToLpcPKiPiiS1_
0000000000b2f6e8 T _Z16CLpc_ParcorToLpcPKsPsiPi
0000000000a82da8 T _Z16CLpd_AcelpDecodeP15CAcelpStaticMemiPKsS2_sP17CAcelpChannelDataiiiPiS5_S5_i
0000000000a7c1d4 T _Z16CPulseData_ApplyP10CPulseDataPKsPi
0000000000b2af80 T _Z16CopyAlignedBlockP10FDK_BITBUFPhj
0000000000a659b0 T _Z16FDK_Delay_CreateP15FDK_SignalDelayth
0000000000b234a4 T _Z16FDK_deinterleavePKiPijjj
0000000000b23450 T _Z16FDK_deinterleavePKiPsjjj
0000000000b2354c T _Z16FDK_deinterleavePKsPijjj
0000000000b234f8 T _Z16FDK_deinterleavePKsPsjjj
0000000000aa92e4 T _Z16FDKaacEnc_PsyNewPP12PSY_INTERNALiiPh
0000000000aac220 T _Z16FDKaacEnc_QCInitP8QC_STATEP7QC_INITj
0000000000aac4b4 T _Z16FDKaacEnc_QCMainP8QC_STATEPP7PSY_OUTPP6QC_OUTiP15CHANNEL_MAPPING17AUDIO_OBJECT_TYPEja
0000000000b30144 T _Z16FreeAnaQmfStatesPPs
0000000000b30204 T _Z16FreeQmfSlotsImagPPPi
0000000000b301c4 T _Z16FreeQmfSlotsRealPPPi
0000000000b1f128 T _Z16FreeRam_PsEncodePP11T_PS_ENCODE
0000000000b30184 T _Z16FreeSynQmfStatesPPi
0000000000a65c4c T _Z16GetOverlapBufferi
0000000000a65d4c T _Z16GetTimeDataFlushi
0000000000ae4320 T _Z16TsdGenerateNonTriPK8TSD_DATAiPiS2_S2_S2_PS2_S3_
0000000000ab3da8 T _Z16_decodeHuffmanCWPA2_KaP13FDK_BITSTREAM
0000000000ac2c08 T _Z16adtsRead_CrcInitP11STRUCT_ADTS
0000000000b3244c T _Z16autoCorr2nd_cplxP11ACORR_COEFSPKiS2_i
0000000000b322d4 T _Z16autoCorr2nd_realP11ACORR_COEFSPKii
0000000000aef8b8 T _Z16calcCoherenceVecPiPKiS1_S1_S1_iii
0000000000acb4b8 T _Z16drmRead_CrcCheckP10STRUCT_DRM
0000000000b37280 T _Z16fDivNormHighPreciiPi
0000000000ad0f60 T _Z16getChannelConfig12CHANNEL_MODEh
0000000000ac06a0 T _Z16getDownmixOffsetP20DOWNMIX_INSTRUCTIONSi
0000000000b3a4f0 T _Z16huff_dec_reshapeP13FDK_BITSTREAMPii
0000000000afee68 T _Z16lppTransposerHBEP13SBR_LPP_TRANSP13hbeTransposerP16QMF_SCALE_FACTORPPiS6_iiiiP9INVF_MODES8_
0000000000af5f34 T _Z16maxSubbandSamplePPiS0_iiii
0000000000b22740 T _Z16pcmLimiter_ApplyP9TDLimiterPiPsS1_PKijjj
0000000000b3c218 T _Z16qmfChangeOutGainP15QMF_FILTER_BANKii
0000000000af79d4 T _Z16sbrGetHeaderDataP15SBR_HEADER_DATAP13FDK_BITSTREAMjih
0000000000ae3084 T _Z16subbandTPDestroyPP7STP_DEC
0000000000a6dd58 T _Z17CAacDecoder_CloseP20AAC_DECODER_INSTANCE
0000000000a76930 T _Z17CBlock_ApplyNoiseP22CAacDecoderChannelInfoP16SamplingRateInfoPjPh
0000000000a7ed94 T _Z17CJointStereo_ReadP13FDK_BITSTREAMP16CJointStereoDataiiiP26CJointStereoPersistentDataP19CCplxPredictionDataiiij
0000000000b2f8f8 T _Z17CLpc_AutoToParcorPiiPsiS_S_
0000000000a83810 T _Z17CLpd_TcxTDConcealP15CAcelpStaticMemPsPKsS3_siPiih
0000000000a65b54 T _Z17FDK_Delay_DestroyP15FDK_SignalDelay
0000000000aa7084 T _Z17FDK_MpegsEnc_InitP11MPS_ENCODER17AUDIO_OBJECT_TYPEjjjjjj
0000000000aa6fd4 T _Z17FDK_MpegsEnc_OpenPP11MPS_ENCODER
0000000000aa12a0 T _Z17FDKaacEnc_BCClosePP13BITCNTR_STATE
0000000000aac0a4 T _Z17FDKaacEnc_QCClosePP8QC_STATEPP6QC_OUT
0000000000a935d8 T _Z17FDKaacEnc_TnsSyncP8TNS_DATAPKS_P8TNS_INFOS4_iiPK10TNS_CONFIG
0000000000aa98b8 T _Z17FDKaacEnc_psyInitP12PSY_INTERNALPP7PSY_OUTii17AUDIO_OBJECT_TYPEP15CHANNEL_MAPPING
0000000000aa9e20 T _Z17FDKaacEnc_psyMainiP11PSY_ELEMENTP11PSY_DYNAMICP17PSY_CONFIGURATIONP15PSY_OUT_ELEMENTPsjPii
0000000000b31bf0 T _Z17FDKgetWindowSlopeii
0000000000b1de04 T _Z17FDKsbrEnc_AddLeftPiS_i
0000000000a65c58 T _Z17FreeOverlapBufferPPi
0000000000a65d58 T _Z17FreeTimeDataFlushPPs
0000000000a8c6f8 T _Z17GetAACdynamic_RAMi
0000000000b30278 T _Z17GetAnaQmfStates16i
0000000000b302b8 T _Z17GetAnaQmfStates24i
0000000000b302f8 T _Z17GetAnaQmfStates32i
0000000000b235a4 T _Z17GetPcmDmxInstancei
0000000000b303b8 T _Z17GetQmfSlotsImag16i
0000000000b303f8 T _Z17GetQmfSlotsImag32i
0000000000b30338 T _Z17GetQmfSlotsReal16i
0000000000b30378 T _Z17GetQmfSlotsReal32i
0000000000b1ed48 T _Z17GetRam_SbrChanneli
0000000000b05068 T _Z17GetRam_SbrDecoderi
0000000000b1ed8c T _Z17GetRam_SbrElementi
0000000000b1ed08 T _Z17GetRam_SbrEncoderi
0000000000af62d4 T _Z17ResetLimiterBandsPhS_S_iPK11PATCH_PARAMiihPii
0000000000adfff0 T _Z17SpatialDecApplyM2P17spatialDec_structisPPiS2_S2_S2_S2_S2_
0000000000adf7e4 T _Z17SpatialDecCreateXP17spatialDec_structPPiS2_S2_S2_
0000000000adf4fc T _Z17SpatialDecFeedQMFP17spatialDec_structPPiS2_iiS2_S2_i
0000000000ac2c48 T _Z17adtsRead_CrcCheckP11STRUCT_ADTS
0000000000af0e50 T _Z17aliasingReductionPiP13ENV_CALC_NRGSPhi
0000000000a89570 T _Z17bass_pf_1sf_delayPiPKiS_iiiPsS_
0000000000a7c224 T _Z17decodeRVLCodewordP13FDK_BITSTREAMP11CErRvlcInfo
0000000000ab3e70 T _Z17drcDec_readUniDrcP13FDK_BITSTREAMP14UNI_DRC_CONFIGP17LOUDNESS_INFO_SETiiP12UNI_DRC_GAIN
0000000000acb4b4 T _Z17drmRead_CrcEndRegP10STRUCT_DRMP13FDK_BITSTREAMi
0000000000b2faa8 T _Z17fdkCallocMatrix1Djj
0000000000b2faac T _Z17fdkCallocMatrix2Djjj
0000000000b2fd64 T _Z17fdkCallocMatrix3Djjjj
0000000000b3e1a8 T _Z17getScalefactorPCMPKsii
0000000000b22340 T _Z17pcmLimiter_Createjjijj
0000000000ac212c T _Z17processDrcSubbandP16DRC_GAIN_DECODERiiiiiiPPiS2_
0000000000b021c0 T _Z17pvcDecodeTimeSlotP15PVC_STATIC_DATAP16PVC_DYNAMIC_DATAPPiS4_iiiS3_S3_
0000000000aef124 T _Z17sumUpCplxPow2Dim2PKPK8FIXP_DPKiiPiiiii
0000000000acc9f0 T _Z17transportDec_Open14TRANSPORT_TYPEjj
0000000000ad55b8 T _Z17transportEnc_InitP12TRANSPORTENCPhi14TRANSPORT_TYPEP12CODER_CONFIGj
0000000000ad5570 T _Z17transportEnc_OpenPP12TRANSPORTENC
0000000000a7a128 T _Z18CConcealment_ApplyP16CConcealmentInfoP22CAacDecoderChannelInfoP28CAacDecoderStaticChannelInfoPK16SamplingRateInfoihij
0000000000a79fc0 T _Z18CConcealment_StoreP16CConcealmentInfoP22CAacDecoderChannelInfoP28CAacDecoderStaticChannelInfo
0000000000a85248 T _Z18CLpd_FAC_GetMemoryP22CAacDecoderChannelInfoPhPi
0000000000a7de68 T _Z18CRvlc_ElementCheckPP22CAacDecoderChannelInfoPP28CAacDecoderStaticChannelInfoji
0000000000aa7040 T _Z18FDK_MpegsEnc_ClosePP11MPS_ENCODER
0000000000aa93e4 T _Z18FDKaacEnc_PsyClosePP12PSY_INTERNALPP7PSY_OUT
0000000000aabdb0 T _Z18FDKaacEnc_QCOutNewPP6QC_OUTiiiPh
0000000000a999a0 T _Z18FDKaacEnc_bitCountPKsiiPi
0000000000aefe38 T _Z18FDKcalcScaleFactorPKiS0_i
0000000000b2baa8 T _Z18FDKdecorrelateInitP10DECORR_DECi15FDK_DECORR_TYPE15FDK_DUCKER_TYPEiiiiii
0000000000b2ba7c T _Z18FDKdecorrelateOpenP10DECORR_DECPii
0000000000b1de3c T _Z18FDKsbrEnc_AddRightPiS_i
0000000000b1811c T _Z18FDKsbrEnc_PSEncodeP11T_PS_ENCODEP8T_PS_OUTPhjPA2_A2_Piii
0000000000a8c708 T _Z18FreeAACdynamic_RAMPPi
0000000000b30284 T _Z18FreeAnaQmfStates16PPs
0000000000b302c4 T _Z18FreeAnaQmfStates24PPs
0000000000b30304 T _Z18FreeAnaQmfStates32PPs
0000000000b235b0 T _Z18FreePcmDmxInstancePP16PCM_DMX_INSTANCE
0000000000b303c4 T _Z18FreeQmfSlotsImag16PPPi
0000000000b30404 T _Z18FreeQmfSlotsImag32PPPi
0000000000b30344 T _Z18FreeQmfSlotsReal16PPPi
0000000000b30384 T _Z18FreeQmfSlotsReal32PPPi
0000000000b1ed54 T _Z18FreeRam_SbrChannelPP11SBR_CHANNEL
0000000000b05074 T _Z18FreeRam_SbrDecoderPP20SBR_DECODER_INSTANCE
0000000000b1ed98 T _Z18FreeRam_SbrElementPP11SBR_ELEMENT
0000000000b1ed14 T _Z18FreeRam_SbrEncoderPP11SBR_ENCODER
0000000000b1f15c T _Z18GetRam_ParamStereoi
0000000000a65e98 T _Z18GetWorkBufferCore1i
0000000000a65d8c T _Z18GetWorkBufferCore2i
0000000000a65dd0 T _Z18GetWorkBufferCore3i
0000000000a65e14 T _Z18GetWorkBufferCore4i
0000000000a65edc T _Z18GetWorkBufferCore5i
0000000000a65e54 T _Z18GetWorkBufferCore6i
0000000000afb9f8 T _Z18QmfTransposerApplyP13hbeTransposerPPiS2_iS2_S2_PA64_iS4_iiiS1_iii23KEEP_STATES_SYNCED_MODE
0000000000afb5c4 T _Z18QmfTransposerCloseP13hbeTransposer
0000000000a65f24 T _Z18aacDecoder_drcInitP8CDrcInfo
0000000000a8df90 T _Z18aacenc_SscCallbackPvP13FDK_BITSTREAM17AUDIO_OBJECT_TYPEiiiihPh
0000000000aefb88 T _Z18addWeightedCplxVecPKP8FIXP_DPKPKiPKPKS_S4_S8_iPiiPKhiii
0000000000ac2c34 T _Z18adtsRead_CrcEndRegP11STRUCT_ADTSP13FDK_BITSTREAMi
0000000000b37a50 T _Z18fixp_truncateToIntii
0000000000ac0918 T _Z18initDrcGainBuffersiP16DRC_GAIN_BUFFERS
0000000000aff900 T _Z18resetLppTransposerP13SBR_LPP_TRANShPhhS1_hhj
0000000000accaec T _Z18transportDec_ClosePP12TRANSPORTDEC
0000000000ad5dfc T _Z18transportEnc_ClosePP12TRANSPORTENC
0000000000a83bac T _Z19Acelp_PreProcessingPiS_S_S_S_S_iS_iii
0000000000a6de78 T _Z19CAacDecoder_FreeMemP20AAC_DECODER_INSTANCEi
0000000000a858f8 T _Z19CLpd_FAC_Acelp2MdctP6mdct_tPiS1_PKsiS1_iiiiPK8FIXP_SPKiPsiP15CAcelpStaticMemiiihii
0000000000a85470 T _Z19CLpd_FAC_Mdct2AcelpP6mdct_tPiS1_iPsiiiih
0000000000a6be08 T _Z19CPns_SetCorrelationP8CPnsDataiii
0000000000ac38ec T _Z19CProgramConfig_InitP14CProgramConfig
0000000000ac3928 T _Z19CProgramConfig_ReadP14CProgramConfigP13FDK_BITSTREAMj
0000000000a81d28 T _Z19D_ACELP_decode_4t64PsiS_
0000000000b31bcc T _Z19FDK_QmfDomain_CloseP14FDK_QMF_DOMAIN
0000000000a9453c T _Z19FDKaacEnc_AdjThrNewPP13ADJ_THR_STATEi
0000000000a9104c T _Z19FDKaacEnc_PnsDetectP10PNS_CONFIGP8PNS_DATAiiiPiPKiS3_S3_PsiiiS3_S3_
0000000000aa972c T _Z19FDKaacEnc_PsyOutNewPP7PSY_OUTiiiPh
0000000000aabf54 T _Z19FDKaacEnc_QCOutInitPP6QC_OUTiPK15CHANNEL_MAPPING
0000000000a91e74 T _Z19FDKaacEnc_TnsDetectP8TNS_DATAPK10TNS_CONFIGP8TNS_INFOiPKiii
0000000000a9372c T _Z19FDKaacEnc_TnsEncodeP8TNS_INFOP8TNS_DATAiPK10TNS_CONFIGiPiii
0000000000aa31d0 T _Z19FDKaacEnc_calcSfbPeP15PE_CHANNEL_DATAPKiS2_iiiS2_S2_
0000000000b2c000 T _Z19FDKdecorrelateApplyP10DECORR_DECPiS1_S1_S1_i
0000000000b2bfd8 T _Z19FDKdecorrelateCloseP10DECORR_DEC
0000000000b1f168 T _Z19FreeRam_ParamStereoPP19T_PARAMETRIC_STEREO
0000000000a65ea8 T _Z19FreeWorkBufferCore1PP16CWorkBufferCore1
0000000000a65d9c T _Z19FreeWorkBufferCore2PPi
0000000000a65de0 T _Z19FreeWorkBufferCore3PPi
0000000000a65e20 T _Z19FreeWorkBufferCore4PPi
0000000000a65eec T _Z19FreeWorkBufferCore5PPi
0000000000a65e64 T _Z19FreeWorkBufferCore6PPa
0000000000b30238 T _Z19GetQmfOverlapBufferi
0000000000a8cab8 T _Z19GetRam_aacEnc_QCouti
0000000000a6af94 T _Z19Hcr_State_BODY_ONLYP13FDK_BITSTREAMPv
0000000000a82868 T _Z19Pred_lt4_postfilterPi
0000000000b01714 T _Z19PreparePsProcessingP6PS_DECPKPKiS4_i
0000000000afb3b0 T _Z19QmfTransposerCreatePP13hbeTransposeriii
0000000000afb790 T _Z19QmfTransposerReInitP13hbeTransposerPPhS1_
0000000000ae2d04 T _Z19SpatialDecSmoothOPDP17spatialDec_structPK23SPATIAL_BS_FRAME_structi
0000000000ae0cfc T _Z19SpatialDecSynthesisP17spatialDec_structiPPiS2_PsiPK19FDK_channelMapDescr
0000000000a6a3cc T _Z19ToggleReadDirectionh
0000000000a669a8 T _Z19aacDecoder_drcApplyP8CDrcInfoPvP22CAacDecoderChannelInfoP15CDrcChannelDataPiiii
0000000000a8decc T _Z19aacEncDefaultConfigP13AACENC_CONFIGP10USER_PARAM
0000000000ad0124 T _Z19adtsWrite_CrcEndRegP11STRUCT_ADTSP13FDK_BITSTREAMi
0000000000aff89c T _Z19createLppTransposerP13SBR_LPP_TRANSP19TRANSPOSER_SETTINGSiPhiiiiS3_ijii
0000000000acb408 T _Z19drmRead_CrcStartRegP10STRUCT_DRMP13FDK_BITSTREAMi
0000000000a7972c T _Z19getSamplingRateInfoP16SamplingRateInfojjj
0000000000b3e0ec T _Z19getScalefactorShortPKsi
0000000000ac0cec T _Z19initActiveDrcOffsetP16DRC_GAIN_DECODER
0000000000b06ce0 T _Z19resetFreqBandTablesP15SBR_HEADER_DATAj
0000000000b05be8 T _Z19sbrDecoder_drcApplyP18SBRDEC_DRC_CHANNELPPiS2_iS1_
0000000000b3d820 T _Z19scaleValuesSaturatePiS_ii
0000000000b3d790 T _Z19scaleValuesSaturatePiii
0000000000b3d8bc T _Z19scaleValuesSaturatePsPiii
0000000000b3da04 T _Z19scaleValuesSaturatePsS_ii
0000000000b3d96c T _Z19scaleValuesSaturatePsii
0000000000ace2f0 T _Z19transportDec_GetAscP12TRANSPORTDECjP21CSAudioSpecificConfig
0000000000a83dfc T _Z20Acelp_PostProcessingPiS_S_S_iii
0000000000a78004 T _Z20CChannelElement_ReadP13FDK_BITSTREAMPP22CAacDecoderChannelInfoPP28CAacDecoderStaticChannelInfo17AUDIO_OBJECT_TYPEP16SamplingRateInfojjjhaP12TRANSPORTDEC
0000000000a81b40 T _Z20CJointStereo_ApplyISPP22CAacDecoderChannelInfoPKsPKhii
0000000000a7f8ec T _Z20CJointStereo_ApplyMSPP22CAacDecoderChannelInfoPP28CAacDecoderStaticChannelInfoPiS5_PsS6_S6_S6_PKsPKhiiiiS5_S6_i
0000000000ac38e4 T _Z20CProgramConfig_ResetP14CProgramConfig
0000000000aa5768 T _Z20FDK_MetadataEnc_InitP20FDK_METADATA_ENCODERiiijjj12CHANNEL_MODE13CHANNEL_ORDER
0000000000aa5668 T _Z20FDK_MetadataEnc_OpenPP20FDK_METADATA_ENCODERj
0000000000aa7390 T _Z20FDK_MpegsEnc_ProcessP11MPS_ENCODERPsiP18AACENC_EXT_PAYLOAD
0000000000a945bc T _Z20FDKaacEnc_AdjThrInitP13ADJ_THR_STATEiiPK15CHANNEL_MAPPINGiii18AACENC_BITRES_MODEiii
0000000000b1ad50 T _Z20FDKaacEnc_DownsampleP11DOWNSAMPLERPsiS1_Pi
0000000000a9aa88 T _Z20FDKaacEnc_codeValuesPsiiP13FDK_BITSTREAM
0000000000aefcd8 T _Z20FDKcalcPbScaleFactorPKPK8FIXP_DPKPKhPiiii
0000000000b1dda4 T _Z20FDKsbrEnc_AddVecLeftPiS_S_i
0000000000b1b5c0 T _Z20FDKsbrEnc_DownsampleP11SBR_ENCODERPsjjPjPhi
0000000000b30244 T _Z20FreeQmfOverlapBufferPPi
0000000000a8cac4 T _Z20FreeRam_aacEnc_QCoutPP6QC_OUT
0000000000a65ccc T _Z20GetCpePersistentDatai
0000000000b050e8 T _Z20GetRam_SbrDecChanneli
0000000000b050a8 T _Z20GetRam_SbrDecElementi
0000000000b1efd4 T _Z20GetRam_Sbr_guideScfbi
0000000000a8c898 T _Z20GetRam_aacEnc_PsyOuti
0000000000ae10d8 T _Z20SpatialDecApplyPhaseP17spatialDec_structsi
0000000000a68454 T _Z20aacDecoder_drcEpilogP8CDrcInfoP13FDK_BITSTREAMPP28CAacDecoderStaticChannelInfohPhi
0000000000a6702c T _Z20aacDecoder_drcPrologP8CDrcInfoP13FDK_BITSTREAMPP28CAacDecoderStaticChannelInfohPhi
0000000000ac2c1c T _Z20adtsRead_CrcStartRegP11STRUCT_ADTSP13FDK_BITSTREAMi
0000000000af12c8 T _Z20calculateSbrEnvelopeP16QMF_SCALE_FACTORP22SBR_CALCULATE_ENVELOPEP15SBR_HEADER_DATAP14SBR_FRAME_DATAP16PVC_DYNAMIC_DATAPPiSA_iS9_ji
0000000000b38398 T _Z20imdct_copy_ov_and_nrP6mdct_tPii
0000000000af7998 T _Z20initSbrPrevFrameDataP19SBR_PREV_FRAME_DATAi
0000000000a863f8 T _Z20nearest_neighbor_2D8PiS_
0000000000b3bbf0 T _Z20qmfAnalysisFilteringP15QMF_FILTER_BANKPPiS2_P16QMF_SCALE_FACTORPKsiiS1_
0000000000b3c1f0 T _Z20qmfGetOutScalefactorP15QMF_FILTER_BANK
0000000000af62b4 T _Z20resetSbrEnvelopeCalcP22SBR_CALCULATE_ENVELOPE
0000000000af8430 T _Z20sbrGetChannelElementP15SBR_HEADER_DATAP14SBR_FRAME_DATAS2_P19SBR_PREV_FRAME_DATAhP13FDK_BITSTREAMP6PS_DECji
0000000000ad5e78 T _Z20transportEnc_GetConfP12TRANSPORTENCP12CODER_CONFIGP13FDK_BITSTREAMPj
0000000000ab1c94 T _Z21CArco_DecodeArithDataP9CArcoDataP13FDK_BITSTREAMPiiii
0000000000a7b3b4 T _Z21CConcealment_GetDelayP14CConcealParams
0000000000a79fb4 T _Z21CConcealment_GetStateP16CConcealmentInfo
0000000000a7b3cc T _Z21CConcealment_TDFadingiPP28CAacDecoderStaticChannelInfoPsS2_
0000000000b2ef20 T _Z21CLpc_SynthesisLatticePiiiiiPKiiS_
0000000000b2edd8 T _Z21CLpc_SynthesisLatticePiiiiiPKsiS_
0000000000a8baa4 T _Z21CLpd_RenderTimeSignalP28CAacDecoderStaticChannelInfoP22CAacDecoderChannelInfoPsiP16SamplingRateInfojjj
0000000000a6bdec T _Z21CPns_UpdateNoiseStateP8CPnsDataPiS1_
0000000000a6a33c T _Z21CarryBitToBranchValuehjPjS_
0000000000ad3b34 T _Z21CreateStreamMuxConfigP11LATM_STREAMP13FDK_BITSTREAMiP13CSTpCallBacks
0000000000aa570c T _Z21FDK_MetadataEnc_ClosePP20FDK_METADATA_ENCODER
0000000000aa7868 T _Z21FDK_MpegsEnc_GetDelayP11MPS_ENCODER
0000000000b31a50 T _Z21FDK_QmfDomain_FreeMemP14FDK_QMF_DOMAIN
0000000000b308e0 T _Z21FDK_QmfDomain_GetSlotP17FDK_QMF_DOMAIN_INiiiPiS1_i
0000000000a9802c T _Z21FDKaacEnc_AdjThrClosePP13ADJ_THR_STATE
0000000000aa8000 T _Z21FDKaacEnc_GetPnsParamP11NOISEPARAMSiiiPKiPiii
0000000000aade48 T _Z21FDKaacEnc_calcSfbDistPKiPsiii
0000000000a999e4 T _Z21FDKaacEnc_countValuesPsii
0000000000aa0560 T _Z21FDKaacEnc_dynBitCountP13BITCNTR_STATEPKsPKjPKiiiiiS6_P12SECTION_DATAS6_S6_S6_j
0000000000aa7ca8 T _Z21FDKaacEnc_noiseDetectPiS_iPKiPsP11NOISEPARAMSS2_
0000000000aa9b38 T _Z21FDKaacEnc_psyMainInitP12PSY_INTERNAL17AUDIO_OBJECT_TYPEP15CHANNEL_MAPPINGiiiiiiiijj
0000000000aef7b0 T _Z21FDKcalcCorrelationVecPiPKiS1_S1_i
0000000000aeff8c T _Z21FDKcalcScaleFactorDPKPK8FIXP_DPKii
0000000000b2db34 T _Z21FDKhybridAnalysisInitP18FDK_ANA_HYB_FILTER15FDK_HYBRID_MODEiii
0000000000b2db20 T _Z21FDKhybridAnalysisOpenP18FDK_ANA_HYB_FILTERPijS1_j
0000000000b1de54 T _Z21FDKsbrEnc_AddVecRightPiS_S_i
0000000000b1eb98 T _Z21FDKsbrEnc_UpdateHiResPhPiS_iS0_
0000000000b1ec38 T _Z21FDKsbrEnc_UpdateLoResPhPiS_i
0000000000a65cd8 T _Z21FreeCpePersistentDataPP17CpePersistentData
0000000000b050f4 T _Z21FreeRam_SbrDecChannelPP11SBR_CHANNEL
0000000000b050b4 T _Z21FreeRam_SbrDecElementPP19SBR_DECODER_ELEMENT
0000000000b1efe0 T _Z21FreeRam_Sbr_guideScfbPPh
0000000000a8c8a4 T _Z21FreeRam_aacEnc_PsyOutPP7PSY_OUT
0000000000afdc40 T _Z21Get41SbrQmfTransposerP13hbeTransposer
0000000000a65d0c T _Z21GetCplxPredictionDatai
0000000000b30438 T _Z21GetQmfOverlapBuffer16i
0000000000b30478 T _Z21GetQmfOverlapBuffer32i
0000000000b2ffa0 T _Z21GetQmfWorkBufferCore1i
0000000000b2ffe4 T _Z21GetQmfWorkBufferCore2i
0000000000b30028 T _Z21GetQmfWorkBufferCore3i
0000000000b3006c T _Z21GetQmfWorkBufferCore4i
0000000000b300b0 T _Z21GetQmfWorkBufferCore5i
0000000000b300f4 T _Z21GetQmfWorkBufferCore6i
0000000000b1ecc8 T _Z21GetRam_SbrDynamic_RAMi
0000000000b1f1fc T _Z21GetRam_Sbr_envIBufferiPh
0000000000b1f1f0 T _Z21GetRam_Sbr_envRBufferiPh
0000000000b1f19c T _Z21GetRam_Sbr_envYBufferi
0000000000b1f1dc T _Z21GetRam_Sbr_envYBufferiPh
0000000000b1ee54 T _Z21GetRam_Sbr_signMatrixi
0000000000b1ef14 T _Z21GetRam_Sbr_v_k_masteri
0000000000a8c958 T _Z21GetRam_aacEnc_QCstatei
0000000000a65cc4 T _Z21GetRequiredMemDrcInfov
0000000000a6a35c T _Z21HcrMuteErroneousLinesP10CErHcrInfo
0000000000ad8b30 T _Z21SpatialDecDecodeFrameP17spatialDec_structP23SPATIAL_BS_FRAME_struct
0000000000adf3d4 T _Z21SpatialDecQMFAnalysisP17spatialDec_structPKsiiPPiS4_i
0000000000a7ea98 T _Z21StatisticalEstimationP22CAacDecoderChannelInfo
0000000000a684d0 T _Z21aacDecoder_drcGetInfoP8CDrcInfoPaS1_
0000000000ac2604 T _Z21adifRead_DecodeHeaderP11CAdifHeaderP14CProgramConfigP13FDK_BITSTREAM
0000000000ac2c8c T _Z21adtsRead_DecodeHeaderP11STRUCT_ADTSP21CSAudioSpecificConfigP13FDK_BITSTREAMi
0000000000ad010c T _Z21adtsWrite_CrcStartRegP11STRUCT_ADTSP13FDK_BITSTREAMi
0000000000af621c T _Z21createSbrEnvelopeCalcP22SBR_CALCULATE_ENVELOPEP15SBR_HEADER_DATAij
0000000000af62cc T _Z21deleteSbrEnvelopeCalcP22SBR_CALCULATE_ENVELOPE
0000000000ab5a2c T _Z21drcDec_readUniDrcGainP13FDK_BITSTREAMP14UNI_DRC_CONFIGiiP12UNI_DRC_GAIN
0000000000b2fa80 T _Z21fdkCallocMatrix1D_intjj14MEMORY_SECTION
0000000000b2fc28 T _Z21fdkCallocMatrix2D_intjjj14MEMORY_SECTION
0000000000b2fea0 T _Z21fdkCallocMatrix3D_intjjjj14MEMORY_SECTION
0000000000ae5b48 T _Z21fdk_sacenc_delay_InitP5DELAYiiii
0000000000ae5ac4 T _Z21fdk_sacenc_delay_OpenPP5DELAY
0000000000aed7e0 T _Z21fdk_sacenc_initTtoBoxP9T_TTO_BOXPK16T_TTO_BOX_CONFIGPh
0000000000b01838 T _Z21initSlotBasedRotationP6PS_DECii
0000000000b3d214 T _Z21qmfSynthesisFilteringP15QMF_FILTER_BANKPPiS2_PK16QMF_SCALE_FACTORiPsiS1_
0000000000af615c T _Z21rescaleSubbandSamplesPPiS0_iiiii
0000000000b06c74 T _Z21sbrdecDownSampleLoResPhhS_h
0000000000b05cac T _Z21sbrdecUpdateFreqScalePhS_jP15SBR_HEADER_DATAj
0000000000b3d2fc T _Z21scaleValuesWithFactorPiiii
0000000000ac009c T _Z21selectDrcCoefficientsP14UNI_DRC_CONFIGi
0000000000ac00ec T _Z21selectDrcInstructionsP14UNI_DRC_CONFIGi
0000000000aceee4 T _Z21transportDec_CrcCheckP12TRANSPORTDEC
0000000000acd3e0 T _Z21transportDec_FillDataP12TRANSPORTDECPhjPji
0000000000acec28 T _Z21transportDec_SetParamP12TRANSPORTDEC11TPDEC_PARAMi
0000000000ad5bd4 T _Z21transportEnc_GetFrameP12TRANSPORTENCPi
0000000000ad2488 T _Z21transportEnc_writeASCP13FDK_BITSTREAMP12CODER_CONFIGP13CSTpCallBacks
0000000000ad0fa8 T _Z21transportEnc_writePCEP13FDK_BITSTREAM12CHANNEL_MODEiiiiij
0000000000a6d19c T _Z22CAacDecoder_AncDataGetP8CAncDataiPPhPi
0000000000a76fdc T _Z22CBlock_FrequencyToTimeP28CAacDecoderStaticChannelInfoP22CAacDecoderChannelInfoPssiPiji
0000000000a75aa0 T _Z22CBlock_ReadSectionDataP13FDK_BITSTREAMP22CAacDecoderChannelInfoPK16SamplingRateInfoj
0000000000a7753c T _Z22CChannelElement_DecodePP22CAacDecoderChannelInfoPP28CAacDecoderStaticChannelInfoP16SamplingRateInfojji
0000000000a79954 T _Z22CConcealment_GetMethodP14CConcealParams
0000000000a79a28 T _Z22CConcealment_SetParamsP14CConcealParamsiiiii
0000000000a8aa34 T _Z22CLpdChannelStream_ReadP13FDK_BITSTREAMP22CAacDecoderChannelInfoP28CAacDecoderStaticChannelInfoPK16SamplingRateInfoj
0000000000ac4aac T _Z22CProgramConfig_ComparePK14CProgramConfigS1_
0000000000ac3918 T _Z22CProgramConfig_IsValidPK14CProgramConfig
0000000000aca5b0 T _Z22Drm_xHEAACStaticConfigP21CSAudioSpecificConfigP13FDK_BITSTREAMiP13CSTpCallBacks
0000000000aa3c30 T _Z22FDK_DRC_Generator_CalcP8DRC_COMPPKsjiiiiiiiiiiPiS3_
0000000000aa3458 T _Z22FDK_DRC_Generator_OpenPP8DRC_COMP
0000000000ab13ec T _Z22FDKaacEnc_SpreadingMaxiPKiS0_Pi
0000000000aa8534 T _Z22FDKaacEnc_initSfbTableiiiPiS_
0000000000aa7ee0 T _Z22FDKaacEnc_lookUpPnsUseiiii
0000000000aa2fd4 T _Z22FDKaacEnc_prepareSfbPeP15PE_CHANNEL_DATAPKiS2_S2_S2_iii
0000000000aad9fc T _Z22FDKaacEnc_updateBitresP15CHANNEL_MAPPINGP8QC_STATEPP6QC_OUT
0000000000b2ddf0 T _Z22FDKhybridAnalysisApplyP18FDK_ANA_HYB_FILTERPKiS2_PiS3_
0000000000b2ec08 T _Z22FDKhybridAnalysisCloseP18FDK_ANA_HYB_FILTER
0000000000b2ec1c T _Z22FDKhybridSynthesisInitP18FDK_SYN_HYB_FILTER15FDK_HYBRID_MODEii
0000000000b17f9c T _Z22FDKsbrEnc_InitPSEncodeP11T_PS_ENCODE8PS_BANDSi
0000000000b0cd18 T _Z22FDKsbrEnc_codeEnvelopePaPK8FREQ_RESP17SBR_CODE_ENVELOPEPiiiii
0000000000a65d18 T _Z22FreeCplxPredictionDataPP19CCplxPredictionData
0000000000b30444 T _Z22FreeQmfOverlapBuffer16PPi
0000000000b30484 T _Z22FreeQmfOverlapBuffer32PPi
0000000000b2ffb0 T _Z22FreeQmfWorkBufferCore1PPi
0000000000b2fff4 T _Z22FreeQmfWorkBufferCore2PPi
0000000000b30038 T _Z22FreeQmfWorkBufferCore3PPi
0000000000b3007c T _Z22FreeQmfWorkBufferCore4PPi
0000000000b300c0 T _Z22FreeQmfWorkBufferCore5PPi
0000000000b30104 T _Z22FreeQmfWorkBufferCore6PPi
0000000000b1ecd4 T _Z22FreeRam_SbrDynamic_RAMPPi
0000000000b1f1a8 T _Z22FreeRam_Sbr_envYBufferPPi
0000000000b1ee60 T _Z22FreeRam_Sbr_signMatrixPPi
0000000000b1ef20 T _Z22FreeRam_Sbr_v_k_masterPPh
0000000000a8c964 T _Z22FreeRam_aacEnc_QCstatePP8QC_STATE
0000000000b1ee10 T _Z22GetRam_Sbr_quotaMatrixi
0000000000ab1c7c T _Z22GetRequiredMemArcoDatav
0000000000ad979c T _Z22SpatialDecCloseBsFrameP23SPATIAL_BS_FRAME_struct
0000000000ad917c T _Z22SpatialDecDecodeHeaderP17spatialDec_structP25T_SPATIAL_SPECIFIC_CONFIG
0000000000ae16d4 T _Z22SpatialDecReshapeBBEnvP17spatialDec_structPK23SPATIAL_BS_FRAME_structi
0000000000a65fa4 T _Z22aacDecoder_drcSetParamP8CDrcInfo16AACDEC_DRC_PARAMi
0000000000acfcf0 T _Z22adifWrite_EncodeHeaderP9ADIF_INFOP13FDK_BITSTREAMi
0000000000ad0394 T _Z22adtsWrite_EncodeHeaderP11STRUCT_ADTSP13FDK_BITSTREAMii
0000000000aef410 T _Z22cplx_cplxScalarProductP8FIXP_DPKPKPKS_S4_iiPiiiii
0000000000ac0158 T _Z22deriveDrcChannelGroupsiiPKaPK20DUCKING_MODIFICATIONPhPaS5_PS1_
0000000000aed9fc T _Z22fdk_sacenc_applyTtoBoxP9T_TTO_BOXiiiPKPK8FIXP_DPKS5_PaPhS6_S7_iPiS8_
0000000000ae5b0c T _Z22fdk_sacenc_delay_ClosePP5DELAY
0000000000b38574 T _Z22imdct_adapt_parametersP6mdct_tPiS1_iPK8FIXP_SPKi
0000000000ae2cf8 T _Z22initParameterSmoothingP17spatialDec_struct
0000000000b3c220 T _Z22qmfSynPrototypeFirSlotP15QMF_FILTER_BANKPiS1_Psi
0000000000aceea8 T _Z22transportDec_CrcEndRegP12TRANSPORTDECi
0000000000acd558 T _Z22transportDec_GetFormatP12TRANSPORTDEC
0000000000ad5e54 T _Z22transportEnc_CrcEndRegP12TRANSPORTENCi
0000000000ad4ce8 T _Z22transportEnc_LatmWriteP11LATM_STREAMP13FDK_BITSTREAMiiP13CSTpCallBacks
0000000000ad5464 T _Z22transportEnc_Latm_InitP11LATM_STREAMP13FDK_BITSTREAMP12CODER_CONFIGj14TRANSPORT_TYPEP13CSTpCallBacks
0000000000a8290c T _Z23BuildAdaptiveExcitationPsPisiiiS0_
0000000000a6d16c T _Z23CAacDecoder_AncDataInitP8CAncDataPhi
0000000000a6f3c8 T _Z23CAacDecoder_DecodeFrameP20AAC_DECODER_INSTANCEjPsii
0000000000a6ce6c T _Z23CAacDecoder_SyncQmfModeP20AAC_DECODER_INSTANCE
0000000000a762e8 T _Z23CBlock_ReadSpectralDataP13FDK_BITSTREAMP22CAacDecoderChannelInfoPK16SamplingRateInfoj
0000000000a89ecc T _Z23CLpd_AdaptLowFreqDeemphPiiS_i
0000000000aa34a4 T _Z23FDK_DRC_Generator_ClosePP8DRC_COMP
0000000000aa5dfc T _Z23FDK_MetadataEnc_ProcessP20FDK_METADATA_ENCODERPsjiPK15AACENC_MetaDataPP18AACENC_EXT_PAYLOADPjPi
0000000000aa78c0 T _Z23FDK_MpegsEnc_GetLibInfoP8LIB_INFO
0000000000b3128c T _Z23FDK_QmfDomain_ConfigureP14FDK_QMF_DOMAIN
0000000000aac474 T _Z23FDKaacEnc_AdjustBitrateP8QC_STATEP15CHANNEL_MAPPINGPiiii
0000000000aac3b8 T _Z23FDKaacEnc_QCMainPrepareP12ELEMENT_INFOP11ATS_ELEMENTP15PSY_OUT_ELEMENTP14QC_OUT_ELEMENT17AUDIO_OBJECT_TYPEja
0000000000a93940 T _Z23FDKaacEnc_peCalculationP7PE_DATAPKPK15PSY_OUT_CHANNELPKP14QC_OUT_CHANNELPK9TOOLSINFOP11ATS_ELEMENTi
0000000000aa986c T _Z23FDKaacEnc_psyInitStatesP12PSY_INTERNALP10PSY_STATIC17AUDIO_OBJECT_TYPE
0000000000b2ec4c T _Z23FDKhybridSynthesisApplyP18FDK_SYN_HYB_FILTERPKiS2_PiS3_
0000000000b1dcfc T _Z23FDKsbrEnc_Shellsort_intPii
0000000000b201e4 T _Z23FDKsbrEnc_frameSplitterPPiS_P22SBR_TRANSIENT_DETECTORPhS3_iiiiiS_
0000000000b1ee20 T _Z23FreeRam_Sbr_quotaMatrixPPi
0000000000acc970 T _Z23GetRam_TransportDecoderi
0000000000ad5530 T _Z23GetRam_TransportEncoderi
0000000000a8ca98 T _Z23GetRam_aacEnc_BitLookUpiPh
0000000000a8c800 T _Z23GetRam_aacEnc_PsyStatici
0000000000a8cb38 T _Z23GetRam_aacEnc_QCchanneliPh
0000000000a8caf8 T _Z23GetRam_aacEnc_QCelementi
0000000000a6a3d8 T _Z23HcrGetABitFromBitstreamP13FDK_BITSTREAMPiS1_h
0000000000a7ec6c T _Z23PredictiveInterpolationP22CAacDecoderChannelInfoP28CAacDecoderStaticChannelInfo
0000000000ad966c T _Z23SpatialDecCreateBsFrameP23SPATIAL_BS_FRAME_structP11BS_LL_STATE
0000000000ae2aa8 T _Z23SpatialDecSmoothM1andM2P17spatialDec_structPK23SPATIAL_BS_FRAME_structi
0000000000ad00d8 T _Z23adifWrite_GetHeaderBitsP9ADIF_INFO
0000000000ad0138 T _Z23adtsWrite_GetHeaderBitsP11STRUCT_ADTS
0000000000ab3414 T _Z23drcDec_GainDecoder_InitP16DRC_GAIN_DECODERii
0000000000ab33cc T _Z23drcDec_GainDecoder_OpenPP16DRC_GAIN_DECODER
0000000000ab3fbc T _Z23drcDec_readUniDrcConfigP13FDK_BITSTREAMP14UNI_DRC_CONFIG
0000000000b2fa9c T _Z23fdkFreeMatrix1D_alignedPv
0000000000b2fbf4 T _Z23fdkFreeMatrix2D_alignedPPv
0000000000aed768 T _Z23fdk_sacenc_createTtoBoxPP9T_TTO_BOX
0000000000ae712c T _Z23fdk_sacenc_initDCFilterP11T_DC_FILTERj
0000000000b31c74 T _Z23getBitstreamElementList17AUDIO_OBJECT_TYPEahhj
0000000000a8a1b4 T _Z23lpc2mdctAndNoiseShapingPiPsiiPKsiS2_i
0000000000b22bbc T _Z23pcmLimiter_SetThresholdP9TDLimiteri
0000000000b3c18c T _Z23qmfChangeOutScalefactorP15QMF_FILTER_BANKi
0000000000b0522c T _Z23sbrDecoder_drcApplySlotP18SBRDEC_DRC_CHANNELPiS1_iii
0000000000acedd4 T _Z23transportDec_GetLibInfoP8LIB_INFO
0000000000ad5ef0 T _Z23transportEnc_GetLibInfoP8LIB_INFO
0000000000ad235c T _Z23transportEnc_GetPCEBits12CHANNEL_MODEii
0000000000ac6c30 T _Z24AudioSpecificConfig_InitP21CSAudioSpecificConfig
0000000000a756c4 T _Z24CBlock_ScaleSpectralDataP22CAacDecoderChannelInfohP16SamplingRateInfo
0000000000acc950 T _Z24CLatmDemux_GetNrOfLayersP10CLatmDemuxj
0000000000a8b4c4 T _Z24CLpdChannelStream_DecodeP22CAacDecoderChannelInfoP28CAacDecoderStaticChannelInfoj
0000000000a84474 T _Z24CLpd_ACELP_GetFreeExcMemP15CAcelpStaticMemi
0000000000a6c3c4 T _Z24CTns_ReadDataPresentFlagP13FDK_BITSTREAMP8CTnsData
0000000000a6ca20 T _Z24CTns_ReadDataPresentUsacP13FDK_BITSTREAMP8CTnsDataS2_PhPK8CIcsInfojji
0000000000a88b74 T _Z24E_LPC_f_lsp_a_conversionPsS_Pi
0000000000aa6fc8 T _Z24FDK_MetadataEnc_GetDelayP20FDK_METADATA_ENCODER
0000000000aa7894 T _Z24FDK_MpegsEnc_GetDecDelayP11MPS_ENCODER
0000000000a9ef58 T _Z24FDKaacEnc_BlockSwitchingP23BLOCK_SWITCHING_CONTROLiiPKs
0000000000aae398 T _Z24FDKaacEnc_CalcFormFactorPP14QC_OUT_CHANNELPP15PSY_OUT_CHANNELi
0000000000a91358 T _Z24FDKaacEnc_CodePnsChanneliP10PNS_CONFIGPiS1_S1_S1_
0000000000a94c0c T _Z24FDKaacEnc_DistributeBitsP13ADJ_THR_STATEP11ATS_ELEMENTPP15PSY_OUT_CHANNELP7PE_DATAPiS8_iiiiii18AACENC_BITRES_MODE
0000000000aa8428 T _Z24FDKaacEnc_PreEchoControlPiiiisS_iS_
0000000000ab17b8 T _Z24FDKaacEnc_Transform_RealPKsPiiiS1_P6mdct_tiS1_i
0000000000a9e9a4 T _Z24FDKaacEnc_WriteBitstreamP12TRANSPORTENCP15CHANNEL_MAPPINGP6QC_OUTP7PSY_OUTP8QC_STATE17AUDIO_OBJECT_TYPEja
0000000000aa13fc T _Z24FDKaacEnc_groupShortDataPiP13SFB_THRESHOLDP10SFB_ENERGYS3_S3_iiPKiS5_S_S_S_iS5_i
0000000000aad90c T _Z24FDKaacEnc_updateFillBitsP15CHANNEL_MAPPINGP8QC_STATEPP12ELEMENT_BITSPP6QC_OUT
0000000000b17f4c T _Z24FDKsbrEnc_CreatePSEncodePP11T_PS_ENCODE
0000000000b1b008 T _Z24FDKsbrEnc_EnvEncodeFrameP11SBR_ENCODERiPsjPjPhi
0000000000b110dc T _Z24FDKsbrEnc_GetEnvEstDelayP20SBR_EXTRACT_ENVELOPE
0000000000acc97c T _Z24FreeRam_TransportDecoderPP12TRANSPORTDEC
0000000000ad553c T _Z24FreeRam_TransportEncoderPP12TRANSPORTENC
0000000000a8c80c T _Z24FreeRam_aacEnc_PsyStaticPP10PSY_STATIC
0000000000a8cb04 T _Z24FreeRam_aacEnc_QCelementPP14QC_OUT_ELEMENT
0000000000a65c0c T _Z24GetAacDecoderChannelInfoi
0000000000a8c740 T _Z24GetRam_aacEnc_AacEncoderi
0000000000a8c880 T _Z24GetRam_aacEnc_PsyDynamiciPh
0000000000a8c780 T _Z24GetRam_aacEnc_PsyElementi
0000000000a65bc0 T _Z24GetRequiredMemAacDecoderv
0000000000b05164 T _Z24GetRequiredMemRam_ps_decv
0000000000ae0fd4 T _Z24SpatialDecBufferMatricesP17spatialDec_struct
0000000000adf698 T _Z24SpatialDecHybridAnalysisP17spatialDec_structPPiS2_S2_S2_ii
0000000000ad75c8 T _Z24SpatialDecParseFrameDataP17spatialDec_structP23SPATIAL_BS_FRAME_structP13FDK_BITSTREAMPK25T_SPATIAL_SPECIFIC_CONFIG9UPMIXTYPEi
0000000000ab3504 T _Z24drcDec_GainDecoder_ClosePP16DRC_GAIN_DECODER
0000000000ae7220 T _Z24fdk_sacenc_applyDCFilterP11T_DC_FILTERPKsPsi
0000000000aed7b0 T _Z24fdk_sacenc_destroyTtoBoxPP9T_TTO_BOX
0000000000aea1f4 T _Z24fdk_sacenc_ecDataPairEncP13FDK_BITSTREAMPA23_sPs9DATA_TYPEiiiii
0000000000b3b1e8 T _Z24qmfAnalysisFilteringSlotP15QMF_FILTER_BANKPiS1_PKsiS1_
0000000000a7df50 T _Z24rvlcReadBitFromBitstreamP13FDK_BITSTREAMPih
0000000000af81c0 T _Z24sbrGetSyntheticCodedDataP15SBR_HEADER_DATAP14SBR_FRAME_DATAP13FDK_BITSTREAMj
0000000000acee68 T _Z24transportDec_CrcStartRegP12TRANSPORTDECi
0000000000ad5e2c T _Z24transportEnc_CrcStartRegP12TRANSPORTENCi
0000000000ac6c80 T _Z25AudioSpecificConfig_ParseP21CSAudioSpecificConfigP13FDK_BITSTREAMiP13CSTpCallBackshh17AUDIO_OBJECT_TYPE
0000000000a6de58 T _Z25CAacDecoder_CtrlCFGChangeP20AAC_DECODER_INSTANCEhaha
0000000000a72a1c T _Z25CAacDecoder_GetStreamInfoP20AAC_DECODER_INSTANCE
0000000000a76d14 T _Z25CBlock_ReadAcSpectralDataP13FDK_BITSTREAMP22CAacDecoderChannelInfoP28CAacDecoderStaticChannelInfoPK16SamplingRateInfojj
0000000000ac4cb4 T _Z25CProgramConfig_GetDefaultP14CProgramConfigj
0000000000ae1564 T _Z25CalculateSpaceAnalysisQmfP15QMF_FILTER_BANKPKsPiS3_
0000000000b31040 T _Z25FDK_QmfDomain_QmfData2HBEP17FDK_QMF_DOMAIN_INPPiS2_
0000000000b30818 T _Z25FDK_QmfDomain_SaveOverlapP17FDK_QMF_DOMAIN_INi
0000000000b1aca4 T _Z25FDKaacEnc_InitDownsamplerP11DOWNSAMPLERii
0000000000a9fe58 T _Z25FDKaacEnc_InitElementBitsP8QC_STATEP15CHANNEL_MAPPINGiii
0000000000b18100 T _Z25FDKsbrEnc_DestroyPSEncodePP11T_PS_ENCODE
0000000000b1dc54 T _Z25FDKsbrEnc_Shellsort_fractPii
0000000000b1e6a0 T _Z25FDKsbrEnc_UpdateFreqScalePhPiiiii
0000000000b20f7c T _Z25FDKsbrEnc_transientDetectP22SBR_TRANSIENT_DETECTORPPiS1_Phiiii
0000000000a65c18 T _Z25FreeAacDecoderChannelInfoPP22CAacDecoderChannelInfo
0000000000a8c74c T _Z25FreeRam_aacEnc_AacEncoderPP7AAC_ENC
0000000000a8c78c T _Z25FreeRam_aacEnc_PsyElementPP11PSY_ELEMENT
0000000000a8ca18 T _Z25GetRam_aacEnc_ElementBitsi
0000000000a8c7c0 T _Z25GetRam_aacEnc_PsyInternali
0000000000a8dec4 T _Z25GetRequiredMem_AacEncoderv
0000000000afdc3c T _Z25GetxOverBandQmfTransposerP13hbeTransposer
0000000000a6b180 T _Z25Hcr_State_BODY_SIGN__BODYP13FDK_BITSTREAMPv
0000000000a6b3c4 T _Z25Hcr_State_BODY_SIGN__SIGNP13FDK_BITSTREAMPv
0000000000adfa64 T _Z25SpatialDecApplyM2_Mode212P17spatialDec_structisPPiS2_S2_S2_
0000000000a6613c T _Z25aacDecoder_drcMarkPayloadP8CDrcInfoP13FDK_BITSTREAM23AACDEC_DRC_PAYLOAD_TYPE
0000000000ad0a28 T _Z25adtsWrite_EndRawDataBlockP11STRUCT_ADTSP13FDK_BITSTREAMPi
0000000000ab3474 T _Z25drcDec_GainDecoder_ConfigP16DRC_GAIN_DECODERP14UNI_DRC_CONFIGhPKaPKh
0000000000b2fa74 T _Z25fdkCallocMatrix1D_alignedjj
0000000000b2fb34 T _Z25fdkCallocMatrix2D_alignedjjj
0000000000ae70b0 T _Z25fdk_sacenc_createDCFilterPP11T_DC_FILTER
0000000000aee974 T _Z25fdk_sacenc_getPostGainFDKP11STATIC_GAIN
0000000000aeea98 T _Z25fdk_sacenc_spaceTree_InitP10SPACE_TREEPK16SPACE_TREE_SETUPPhi
0000000000aee9c4 T _Z25fdk_sacenc_spaceTree_OpenPP10SPACE_TREE
0000000000b2ba74 T _Z25getAddrDirectSignalMaxValP10DECORR_DEC
0000000000b3bcac T _Z25qmfInitAnalysisFilterBankP15QMF_FILTER_BANKPsiiiii
0000000000b3c494 T _Z25qmfSynthesisFilteringSlotP15QMF_FILTER_BANKPKiS2_iiPsiPi
0000000000b0516c T _Z25sbrDecoder_drcInitChannelP18SBRDEC_DRC_CHANNEL
0000000000af7710 T _Z25sbrdec_mapToStdSampleRatejj
0000000000ac0124 T _Z25selectDownmixInstructionsP14UNI_DRC_CONFIGi
0000000000acd548 T _Z25transportDec_GetBitstreamP12TRANSPORTDECj
0000000000acce1c T _Z25transportDec_InBandConfigP12TRANSPORTDECPhjhS1_jS1_
0000000000ad57c0 T _Z25transportEnc_GetBitstreamP12TRANSPORTENC
0000000000ad5184 T _Z25transportEnc_LatmGetFrameP11LATM_STREAMP13FDK_BITSTREAMPi
0000000000a6d248 T _Z26CAacDecoder_ApplyCrossFadePsPS_iii
0000000000a75450 T _Z26CBlock_ReadScaleFactorDataP22CAacDecoderChannelInfoP13FDK_BITSTREAMj
0000000000a77f1c T _Z26CChannel_CodebookTableInitP22CAacDecoderChannelInfo
0000000000ac6230 T _Z26CProgramConfig_GetPceChMapPK14CProgramConfigPhj
0000000000ae1510 T _Z26CalculateSpaceSynthesisQmfP18FDK_QMF_DOMAIN_OUTPKiS2_iPs
0000000000acad14 T _Z26DrmRawSdcAudioConfig_ParseP21CSAudioSpecificConfigP13FDK_BITSTREAMP13CSTpCallBackshh
0000000000a950f8 T _Z26FDKaacEnc_AdjustThresholdsP13ADJ_THR_STATEPKP14QC_OUT_ELEMENTP6QC_OUTPKPK15PSY_OUT_ELEMENTiPK15CHANNEL_MAPPING
0000000000a99320 T _Z26FDKaacEnc_CalcBandNrgMSOptPKiS0_PiS1_S0_iS1_S1_iS1_S1_
0000000000aadc30 T _Z26FDKaacEnc_QuantizeSpectrumiiiPKiS0_iS0_Psi
0000000000a93f48 T _Z26FDKaacEnc_bitresCalcBitFaciiiiiiPK13ADJ_THR_STATEP11ATS_ELEMENTPiS4_
0000000000b0d420 T _Z26FDKsbrEnc_InitSbrBitstreamP11COMMON_DATAPhiP11FDK_CRCINFOj
0000000000b1f844 T _Z26FDKsbrEnc_TonCorrParamExtrP16SBR_TON_CORR_ESTP9INVF_MODEPiS3_PhS4_PK14SBR_FRAME_INFOS4_S4_i9XPOS_MODEj
0000000000a8ca24 T _Z26FreeRam_aacEnc_ElementBitsPP12ELEMENT_BITS
0000000000a8c7cc T _Z26FreeRam_aacEnc_PsyInternalPP12PSY_INTERNAL
0000000000b1eed4 T _Z26GetRam_Sbr_freqBandTableHIi
0000000000b1ee94 T _Z26GetRam_Sbr_freqBandTableLOi
0000000000b1f054 T _Z26GetRam_Sbr_guideVectorDiffi
0000000000b1f094 T _Z26GetRam_Sbr_guideVectorOrigi
0000000000a8ca58 T _Z26GetRam_aacEnc_BitCntrStatei
0000000000b30170 T _Z26GetRequiredMemAnaQmfStatesv
0000000000b30230 T _Z26GetRequiredMemQmfSlotsImagv
0000000000b301f0 T _Z26GetRequiredMemQmfSlotsRealv
0000000000b1f154 T _Z26GetRequiredMemRam_PsEncodev
0000000000b301b0 T _Z26GetRequiredMemSynQmfStatesv
0000000000ada000 T _Z26SpatialDecCalculateM1andM2P17spatialDec_structiPK23SPATIAL_BS_FRAME_struct
0000000000add2d0 T _Z26SpatialDecConcealment_InitP25SpatialDecConcealmentInfoj
0000000000ad9fe8 T _Z26SpatialDecGetResidualIndexP17spatialDec_structi
0000000000ae2a64 T _Z26SpatialDequantGetCLDValuesiPiS_
0000000000ab375c T _Z26drcDec_GainDecoder_ConcealP16DRC_GAIN_DECODERP14UNI_DRC_CONFIGP12UNI_DRC_GAIN
0000000000ab515c T _Z26drcDec_readLoudnessInfoSetP13FDK_BITSTREAMP17LOUDNESS_INFO_SET
0000000000ae70f8 T _Z26fdk_sacenc_destroyDCFilterPP11T_DC_FILTER
0000000000aebe48 T _Z26fdk_sacenc_ecDataSingleEncP13FDK_BITSTREAMPA23_sPs9DATA_TYPEiiiii
0000000000ae4a7c T _Z26fdk_sacenc_getSpatialFrameP12BSF_INSTANCE17SPATIALFRAME_TYPE
0000000000aeebc8 T _Z26fdk_sacenc_spaceTree_ApplyP10SPACE_TREEiiiiiPiPKPKP8FIXP_DPKS7_P12SPATIALFRAMEiS1_
0000000000aeea4c T _Z26fdk_sacenc_spaceTree_ClosePP10SPACE_TREE
0000000000aee624 T _Z26fdk_sacenc_staticGain_InitP11STATIC_GAINP18STATIC_GAIN_CONFIGPi
0000000000aee5dc T _Z26fdk_sacenc_staticGain_OpenPP11STATIC_GAIN
0000000000b3c104 T _Z26qmfInitSynthesisFilterBankP15QMF_FILTER_BANKPiiiiii
0000000000ace48c T _Z26transportDec_EndAccessUnitP12TRANSPORTDEC
0000000000ad5b38 T _Z26transportEnc_EndAccessUnitP12TRANSPORTENCPi
0000000000ad5d60 T _Z26transportEnc_GetStaticBitsP12TRANSPORTENCi
0000000000a7b398 T _Z27CConcealment_GetLastFrameOkP16CConcealmentInfoi
0000000000a79900 T _Z27CConcealment_InitCommonDataP14CConcealParams
0000000000a79ad0 T _Z27CConcealment_SetAttenuationP14CConcealParamsPKsS2_
0000000000acc948 T _Z27CLatmDemux_GetNrOfSubFramesP10CLatmDemux
0000000000b30ecc T _Z27FDK_QmfDomain_GetWorkBufferP17FDK_QMF_DOMAIN_INiPPiS2_
0000000000b307f8 T _Z27FDK_QmfDomain_IsInitializedP14FDK_QMF_DOMAIN
0000000000aa03c8 T _Z27FDKaacEnc_GetMonoStereoMode12CHANNEL_MODE
0000000000b1a26c T _Z27FDKsbrEnc_PSEnc_WritePSDataP19T_PARAMETRIC_STEREOP13FDK_BITSTREAM
0000000000b1e0b8 T _Z27FDKsbrEnc_getSbrStopFreqRAWii
0000000000b1eee0 T _Z27FreeRam_Sbr_freqBandTableHIPPh
0000000000b1eea0 T _Z27FreeRam_Sbr_freqBandTableLOPPh
0000000000b1f060 T _Z27FreeRam_Sbr_guideVectorDiffPPi
0000000000b1f0a0 T _Z27FreeRam_Sbr_guideVectorOrigPPi
0000000000a8ca64 T _Z27FreeRam_aacEnc_BitCntrStatePP13BITCNTR_STATE
0000000000b1f0d4 T _Z27GetRam_PsQmfStatesSynthesisi
0000000000b1ef54 T _Z27GetRam_Sbr_detectionVectorsi
0000000000a8c918 T _Z27GetRam_aacEnc_PsyOutChanneli
0000000000a65c84 T _Z27GetRequiredMemOverlapBufferv
0000000000a65d84 T _Z27GetRequiredMemTimeDataFlushv
0000000000add2fc T _Z27SpatialDecConcealment_ApplyP25SpatialDecConcealmentInfoPA28_KaPPaS4_S4_iiaii
0000000000ad6f4c T _Z27SpatialDecParseMps212ConfigP13FDK_BITSTREAMP25T_SPATIAL_SPECIFIC_CONFIGi17AUDIO_OBJECT_TYPEii
0000000000ae2a90 T _Z27SpatialDequantGetCLD2ValuesiPi
0000000000ae7334 T _Z27fdk_sacenc_frameWindow_InitP13T_FRAMEWINDOWPK20T_FRAMEWINDOW_CONFIG
0000000000aee964 T _Z27fdk_sacenc_getPreGainPtrFDKP11STATIC_GAIN
0000000000aecfc0 T _Z27fdk_sacenc_onsetDetect_InitP12ONSET_DETECTPK21T_ONSET_DETECT_CONFIGj
0000000000aece84 T _Z27fdk_sacenc_onsetDetect_OpenPP12ONSET_DETECTj
0000000000aee704 T _Z27fdk_sacenc_staticGain_ClosePP11STATIC_GAIN
0000000000af0078 T _Z27sbrDecoder_calculateGainVecPPiS0_iiiS_S_iii
0000000000b051c0 T _Z27sbrDecoder_drcUpdateChannelP18SBRDEC_DRC_CHANNEL
0000000000ace470 T _Z27transportDec_GetAuBitsTotalP12TRANSPORTDECj
0000000000acd5c8 T _Z27transportDec_ReadAccessUnitP12TRANSPORTDECj
0000000000ad0f8c T _Z27transportEnc_GetChannelModei
0000000000a6d1e0 T _Z28CAacDecoder_PrepareCrossFadePKsPPsiii
0000000000a79968 T _Z28CConcealment_InitChannelDataP16CConcealmentInfoP14CConcealParams18AACDEC_RENDER_MODEi
0000000000a83fe8 T _Z28CLpd_AcelpPrepareInternalMemPKihhPKsiS2_iP15CAcelpStaticMemiih
0000000000ac5008 T _Z28CProgramConfig_LookupElementP14CProgramConfigjjjPhP18AUDIO_CHANNEL_TYPES1_jS1_P14MP4_ELEMENT_IDS4_
0000000000aa34e0 T _Z28FDK_DRC_Generator_InitializeP8DRC_COMP11DRC_PROFILES1_ij12CHANNEL_MODE13CHANNEL_ORDERh
0000000000b31260 T _Z28FDK_QmfDomain_ClearRequestedP17FDK_QMF_DOMAIN_GC
0000000000b30550 T _Z28FDK_QmfDomain_InitFilterBankP14FDK_QMF_DOMAINj
0000000000a99564 T _Z28FDKaacEnc_DetermineBandWidthii19AACENC_BITRATE_MODEiiPK15CHANNEL_MAPPING12CHANNEL_MODEPi
0000000000a9eef4 T _Z28FDKaacEnc_InitBlockSwitchingP23BLOCK_SWITCHING_CONTROLi
0000000000a9f6a4 T _Z28FDKaacEnc_InitChannelMapping12CHANNEL_MODE13CHANNEL_ORDERP15CHANNEL_MAPPING
0000000000aa83f0 T _Z28FDKaacEnc_InitPreEchoControlPiS_iS_S_
0000000000aa78ec T _Z28FDKaacEnc_MsStereoProcessingPP8PSY_DATAPP15PSY_OUT_CHANNELPKiPiS7_iiiiS6_
0000000000a9f284 T _Z28FDKaacEnc_SyncBlockSwitchingP23BLOCK_SWITCHING_CONTROLS0_ii
0000000000ab1908 T _Z28FDKaacEnc_Transform_Real_EldPKsPiiiS1_iS1_iS1_
0000000000a9c3b8 T _Z28FDKaacEnc_writeExtensionDataP12TRANSPORTENCP16QC_OUT_EXTENSIONijj17AUDIO_OBJECT_TYPEa
0000000000b2dd00 T _Z28FDKhybridAnalysisScaleStatesP18FDK_ANA_HYB_FILTERi
0000000000b114d8 T _Z28FDKsbrEnc_frameInfoGeneratorP18SBR_ENVELOPE_FRAMEPhiS1_iPKi
0000000000b1df5c T _Z28FDKsbrEnc_getSbrStartFreqRAWii
0000000000b17eb0 T _Z28FDKsbrEnc_initPsBandNrgScaleP11T_PS_ENCODE
0000000000b1f0e4 T _Z28FreeRam_PsQmfStatesSynthesisPPi
0000000000b1ef60 T _Z28FreeRam_Sbr_detectionVectorsPPh
0000000000a8c924 T _Z28FreeRam_aacEnc_PsyOutChannelPP15PSY_OUT_CHANNEL
0000000000b1edcc T _Z28GetRam_Sbr_QmfStatesAnalysisi
0000000000a8c840 T _Z28GetRam_aacEnc_PsyInputBufferi
0000000000a8c8d8 T _Z28GetRam_aacEnc_PsyOutElementsi
0000000000a8c734 T _Z28GetRequiredMemAACdynamic_RAMv
0000000000b302b0 T _Z28GetRequiredMemAnaQmfStates16v
0000000000b302f0 T _Z28GetRequiredMemAnaQmfStates24v
0000000000b30330 T _Z28GetRequiredMemAnaQmfStates32v
0000000000b235dc T _Z28GetRequiredMemPcmDmxInstancev
0000000000b303f0 T _Z28GetRequiredMemQmfSlotsImag16v
0000000000b30430 T _Z28GetRequiredMemQmfSlotsImag32v
0000000000b30370 T _Z28GetRequiredMemQmfSlotsReal16v
0000000000b303b0 T _Z28GetRequiredMemQmfSlotsReal32v
0000000000b1ed80 T _Z28GetRequiredMemRam_SbrChannelv
0000000000b050a0 T _Z28GetRequiredMemRam_SbrDecoderv
0000000000b1edc4 T _Z28GetRequiredMemRam_SbrElementv
0000000000b1ed40 T _Z28GetRequiredMemRam_SbrEncoderv
0000000000a7baac T _Z28InvMdctTransformLowDelay_fdkPiiPsS_i
0000000000abcd8c T _Z28drcDec_SelectionProcess_InitP26s_drcdec_selection_process
0000000000ae7f14 T _Z28fdk_sacenc_analysisWindowingiiPiPKPK8FIXP_DPKPKPS0_ii
0000000000ae5dc0 T _Z28fdk_sacenc_delay_SetDmxAlignP5DELAYi
0000000000aed1b4 T _Z28fdk_sacenc_onsetDetect_ApplyP12ONSET_DETECTiiPKP8FIXP_DPKiiPi
0000000000aecf5c T _Z28fdk_sacenc_onsetDetect_ClosePP12ONSET_DETECT
0000000000aee32c T _Z28fdk_sacenc_subband2ParamBand18BOX_SUBBAND_CONFIGi
0000000000ae4a90 T _Z28fdk_sacenc_writeSpatialFramePhiPiP12BSF_INSTANCE
0000000000accb2c T _Z28transportDec_OutOfBandConfigP12TRANSPORTDECPhjj
0000000000ad581c T _Z28transportEnc_WriteAccessUnitP12TRANSPORTENCiii
0000000000acc940 T _Z29CLatmDemux_GetOtherDataLengthP10CLatmDemux
0000000000a98c38 T _Z29FDKaacEnc_CalcSfbMaxScaleSpecPKiS0_Pii
0000000000a9d018 T _Z29FDKaacEnc_ChannelElementWriteP12TRANSPORTENCP12ELEMENT_INFOPP14QC_OUT_CHANNELP15PSY_OUT_ELEMENTPP15PSY_OUT_CHANNELj17AUDIO_OBJECT_TYPEaPih
0000000000b0d3b0 T _Z29FDKsbrEnc_InitSbrCodeEnvelopeP17SBR_CODE_ENVELOPEPiiii
0000000000b0d854 T _Z29FDKsbrEnc_extractSbrEnvelope1P15SBR_CONFIG_DATAP15SBR_HEADER_DATAP18SBR_BITSTREAM_DATAP11ENV_CHANNELP11COMMON_DATAP17SBR_ENV_TEMP_DATAP19SBR_FRAME_TEMP_DATA
0000000000b0e23c T _Z29FDKsbrEnc_extractSbrEnvelope2P15SBR_CONFIG_DATAP15SBR_HEADER_DATAP19T_PARAMETRIC_STEREOP18SBR_BITSTREAM_DATAP11ENV_CHANNELS8_P11COMMON_DATAP17SBR_ENV_TEMP_DATAP19SBR_FRAME_TEMP_DATAi
0000000000b21cac T _Z29FDKsbrEnc_fastTransientDetectP18FAST_TRAN_DETECTORPKPKiS2_iPh
0000000000b1390c T _Z29FDKsbrEnc_initInvFiltDetectorP16SBR_INV_FILT_ESTPiij
0000000000b1eddc T _Z29FreeRam_Sbr_QmfStatesAnalysisPPs
0000000000a8c84c T _Z29FreeRam_aacEnc_PsyInputBufferPPs
0000000000a8c8e4 T _Z29FreeRam_aacEnc_PsyOutElementsPP15PSY_OUT_ELEMENT
0000000000acc9b0 T _Z29GetRam_TransportDecoderBufferi
0000000000a8c998 T _Z29GetRam_aacEnc_AdjustThresholdi
0000000000a8caa8 T _Z29GetRam_aacEnc_MergeGainLookUpiPh
0000000000b1f194 T _Z29GetRequiredMemRam_ParamStereov
0000000000a65ed4 T _Z29GetRequiredMemWorkBufferCore1v
0000000000a65dc8 T _Z29GetRequiredMemWorkBufferCore2v
0000000000a65e0c T _Z29GetRequiredMemWorkBufferCore3v
0000000000a65e4c T _Z29GetRequiredMemWorkBufferCore4v
0000000000a65f18 T _Z29GetRequiredMemWorkBufferCore5v
0000000000a65e90 T _Z29GetRequiredMemWorkBufferCore6v
0000000000a6b578 T _Z29Hcr_State_BODY_SIGN_ESC__BODYP13FDK_BITSTREAMPv
0000000000a6b7a8 T _Z29Hcr_State_BODY_SIGN_ESC__SIGNP13FDK_BITSTREAMPv
0000000000ad61e0 T _Z29SpatialDecParseSpecificConfigP13FDK_BITSTREAMP25T_SPATIAL_SPECIFIC_CONFIGi17AUDIO_OBJECT_TYPE
0000000000a65f7c T _Z29aacDecoder_drcInitChannelDataP15CDrcChannelData
0000000000ac05b4 T _Z29bitstreamContainsMultibandDrcP14UNI_DRC_CONFIGi
0000000000ab3534 T _Z29drcDec_GainDecoder_PreprocessP16DRC_GAIN_DECODERP12UNI_DRC_GAINiss
0000000000b2fa84 T _Z29fdkCallocMatrix1D_int_alignedjj14MEMORY_SECTION
0000000000b2fcc4 T _Z29fdkCallocMatrix2D_int_alignedjjj14MEMORY_SECTION
0000000000ae72b8 T _Z29fdk_sacenc_frameWindow_CreatePP13T_FRAMEWINDOW
0000000000aed75c T _Z29fdk_sacenc_getSubbandImagSignv
0000000000aed0d0 T _Z29fdk_sacenc_onsetDetect_UpdateP12ONSET_DETECTi
0000000000aced98 T _Z29transportDec_GetNrOfSubFramesP12TRANSPORTDEC
0000000000ad5790 T _Z29transportEnc_AddOtherDataBitsP12TRANSPORTENCi
0000000000a6d10c T _Z30CAacDecoder_SignalInterruptionP20AAC_DECODER_INSTANCE
0000000000a77520 T _Z30CBlock_FrequencyToTimeLowDelayP28CAacDecoderStaticChannelInfoP22CAacDecoderChannelInfoPss
0000000000acb7e0 T _Z30CLatmDemux_ReadStreamMuxConfigP13FDK_BITSTREAMP10CLatmDemuxP13CSTpCallBacksP21CSAudioSpecificConfigPihh
0000000000ac6994 T _Z30CProgramConfig_GetElementTablePK14CProgramConfigP14MP4_ELEMENT_IDiPh
0000000000aa7318 T _Z30FDK_MpegsEnc_GetClosestBitRate17AUDIO_OBJECT_TYPE12CHANNEL_MODEjjj
0000000000a98d18 T _Z30FDKaacEnc_CheckBandEnergyOptimPKiS0_S0_iPiS1_i
0000000000a9f4f4 T _Z30FDKaacEnc_DetermineEncoderModeP12CHANNEL_MODEi
0000000000aae5d8 T _Z30FDKaacEnc_EstimateScaleFactorsPP15PSY_OUT_CHANNELPP14QC_OUT_CHANNELiii
0000000000a91000 T _Z30FDKaacEnc_InitPnsConfigurationP10PNS_CONFIGiiiiPKiii
0000000000aa8660 T _Z30FDKaacEnc_InitPsyConfigurationiiiiiiiP17PSY_CONFIGURATION7FB_TYPE
0000000000a91858 T _Z30FDKaacEnc_InitTnsConfigurationiiiiiiiP10TNS_CONFIGP17PSY_CONFIGURATIONii
0000000000a9b984 T _Z30FDKaacEnc_codeScalefactorDeltaiP13FDK_BITSTREAM
0000000000b0d564 T _Z30FDKsbrEnc_AssembleSbrBitstreamP11COMMON_DATAP11FDK_CRCINFOij
0000000000b1e49c T _Z30FDKsbrEnc_FindStartAndStopBandiiiiiPiS_
0000000000b0cb1c T _Z30FDKsbrEnc_InitSbrHuffmanTablesP12SBR_ENV_DATAP17SBR_CODE_ENVELOPES2_7AMP_RES
0000000000b1fb88 T _Z30FDKsbrEnc_InitTonCorrParamExtriP16SBR_TON_CORR_ESTP15SBR_CONFIG_DATAiiiiij
0000000000b139d0 T _Z30FDKsbrEnc_resetInvFiltDetectorP16SBR_INV_FILT_ESTPii
0000000000acc9bc T _Z30FreeRam_TransportDecoderBufferPPh
0000000000a8c9a4 T _Z30FreeRam_aacEnc_AdjustThresholdPP13ADJ_THR_STATE
0000000000a65bc8 T _Z30GetAacDecoderStaticChannelInfoi
0000000000b1f014 T _Z30GetRam_Sbr_guideVectorDetectedi
0000000000b30270 T _Z30GetRequiredMemQmfOverlapBufferv
0000000000a8caf0 T _Z30GetRequiredMemRam_aacEnc_QCoutv
0000000000add6d8 T _Z30SpatialDecConcealment_SetParamP25SpatialDecConcealmentInfo21SAC_DEC_CONCEAL_PARAMi
0000000000ac3874 T _Z30adtsRead_GetRawDataBlockLengthP11STRUCT_ADTSi
0000000000abcd44 T _Z30drcDec_SelectionProcess_CreatePP26s_drcdec_selection_process
0000000000abd1c4 T _Z30drcDec_SelectionProcess_DeletePP26s_drcdec_selection_process
0000000000ae5de4 T _Z30fdk_sacenc_delay_SetTimeDomDmxP5DELAYi
0000000000ae7300 T _Z30fdk_sacenc_frameWindow_DestroyPP13T_FRAMEWINDOW
0000000000acd560 T _Z30transportDec_GetBufferFullnessP12TRANSPORTDEC
0000000000acc8f8 T _Z31CLatmDemux_GetFrameLengthInBitsP10CLatmDemuxjj
0000000000aa5658 T _Z31FDK_DRC_Generator_getDrcProfileP8DRC_COMP
0000000000aa377c T _Z31FDK_DRC_Generator_setDrcProfileP8DRC_COMP11DRC_PROFILES1_
0000000000aa0408 T _Z31FDKaacEnc_CalculateChaosMeasurePiiS_
0000000000ab1470 T _Z31FDKaacEnc_CalculateFullTonalityPiS_S_PsiPKii
0000000000b2015c T _Z31FDKsbrEnc_ResetTonCorrParamExtrP16SBR_TON_CORR_ESTiiPhiiPS1_Pii
0000000000a65bd4 T _Z31FreeAacDecoderStaticChannelInfoPP28CAacDecoderStaticChannelInfo
0000000000b1f020 T _Z31FreeRam_Sbr_guideVectorDetectedPPh
0000000000a65d04 T _Z31GetRequiredMemCpePersistentDatav
0000000000b05120 T _Z31GetRequiredMemRam_SbrDecChannelv
0000000000b050e0 T _Z31GetRequiredMemRam_SbrDecElementv
0000000000b1f00c T _Z31GetRequiredMemRam_Sbr_guideScfbv
0000000000a8c8d0 T _Z31GetRequiredMemRam_aacEnc_PsyOutv
0000000000ad752c T _Z31SpatialDecDefaultSpecificConfigP25T_SPATIAL_SPECIFIC_CONFIG17AUDIO_OBJECT_TYPEiiiii
0000000000ab3d80 T _Z31drcDec_GainDecoder_GetFrameSizeP16DRC_GAIN_DECODER
0000000000abd200 T _Z31drcDec_SelectionProcess_ProcessP26s_drcdec_selection_processP14UNI_DRC_CONFIGP17LOUDNESS_INFO_SETP26s_selection_process_output
0000000000ace32c T _Z31transportDec_GetAuBitsRemainingP12TRANSPORTDECj
0000000000acc840 T _Z32CLatmDemux_ReadAuChunkLengthInfoP13FDK_BITSTREAM
0000000000acc6b4 T _Z32CLatmDemux_ReadPayloadLengthInfoP13FDK_BITSTREAMP10CLatmDemux
0000000000aa5660 T _Z32FDK_DRC_Generator_getCompProfileP8DRC_COMP
0000000000aada4c T _Z32FDKaacEnc_FinalizeBitConsumptionP15CHANNEL_MAPPINGP8QC_STATEP6QC_OUTPP14QC_OUT_ELEMENTP12TRANSPORTENC17AUDIO_OBJECT_TYPEja
0000000000b1fa78 T _Z32FDKsbrEnc_CreateTonCorrParamExtrP16SBR_TON_CORR_ESTi
0000000000b1fb50 T _Z32FDKsbrEnc_DeleteTonCorrParamExtrP16SBR_TON_CORR_EST
0000000000b10f64 T _Z32FDKsbrEnc_InitExtractSbrEnvelopeP20SBR_EXTRACT_ENVELOPEiiiiiijiPhj
0000000000b1de84 T _Z32FDKsbrEnc_LSI_divide_scale_fractiii
0000000000b130f4 T _Z32FDKsbrEnc_initFrameInfoGeneratorP18SBR_ENVELOPE_FRAMEiiiiPK8FREQ_REShi
0000000000a8c9d8 T _Z32GetRam_aacEnc_AdjThrStateElementi
0000000000a65d44 T _Z32GetRequiredMemCplxPredictionDatav
0000000000b30470 T _Z32GetRequiredMemQmfOverlapBuffer16v
0000000000b304b0 T _Z32GetRequiredMemQmfOverlapBuffer32v
0000000000b2ffdc T _Z32GetRequiredMemQmfWorkBufferCore1v
0000000000b30020 T _Z32GetRequiredMemQmfWorkBufferCore2v
0000000000b30064 T _Z32GetRequiredMemQmfWorkBufferCore3v
0000000000b300a8 T _Z32GetRequiredMemQmfWorkBufferCore4v
0000000000b300ec T _Z32GetRequiredMemQmfWorkBufferCore5v
0000000000b30130 T _Z32GetRequiredMemQmfWorkBufferCore6v
0000000000b1ed00 T _Z32GetRequiredMemRam_SbrDynamic_RAMv
0000000000b1f1d4 T _Z32GetRequiredMemRam_Sbr_envYBufferv
0000000000b1ee8c T _Z32GetRequiredMemRam_Sbr_signMatrixv
0000000000b1ef4c T _Z32GetRequiredMemRam_Sbr_v_k_masterv
0000000000a8c990 T _Z32GetRequiredMemRam_aacEnc_QCstatev
0000000000abd198 T _Z32drcDec_SelectionProcess_GetParamP26s_drcdec_selection_process19SEL_PROC_USER_PARAM
0000000000abce68 T _Z32drcDec_SelectionProcess_SetParamP26s_drcdec_selection_process19SEL_PROC_USER_PARAMiPi
0000000000ae5ea4 T _Z32fdk_sacenc_delay_GetInfoDmxDelayP5DELAY
0000000000ae44fc T _Z32fdk_sacenc_duplicateParameterSetPK12SPATIALFRAMEiPS_i
0000000000ae7474 T _Z32fdk_sacenc_frameWindow_GetWindowP13T_FRAMEWINDOWPiiP11FRAMINGINFOPS1_P13FRAMEWIN_LISTi
0000000000aee97c T _Z32fdk_sacenc_staticGain_GetDmxGainP11STATIC_GAIN
0000000000aee530 T _Z32fdk_sacenc_staticGain_OpenConfigPP18STATIC_GAIN_CONFIG
0000000000aee98c T _Z32fdk_sacenc_staticGain_SetDmxGainP18STATIC_GAIN_CONFIG20MP4SPACEENC_DMX_GAIN
0000000000aee9a8 T _Z32fdk_sacenc_staticGain_SetEncModeP18STATIC_GAIN_CONFIG16MP4SPACEENC_MODE
0000000000acd318 T _Z32transportDec_RegisterAscCallbackP12TRANSPORTDECPFiPvPK21CSAudioSpecificConfighPhES1_
0000000000acd388 T _Z32transportDec_RegisterSbrCallbackP12TRANSPORTDECPFiPvP13FDK_BITSTREAMiii17AUDIO_OBJECT_TYPE14MP4_ELEMENT_IDihhhPhiES1_
0000000000acd36c T _Z32transportDec_RegisterSscCallbackP12TRANSPORTDECPFiPvP13FDK_BITSTREAM17AUDIO_OBJECT_TYPEiiiihPhES1_
0000000000ad57c8 T _Z32transportEnc_RegisterSbrCallbackP12TRANSPORTENCPFiPvP13FDK_BITSTREAMiii17AUDIO_OBJECT_TYPE14MP4_ELEMENT_IDihhhPhiES1_
0000000000ad5800 T _Z32transportEnc_RegisterSscCallbackP12TRANSPORTENCPFiPvP13FDK_BITSTREAM17AUDIO_OBJECT_TYPEiiiihPhES1_
0000000000a98fd0 T _Z33FDKaacEnc_CalcBandEnergyOptimLongPKiPiS0_iS1_S1_
0000000000a917e4 T _Z33FDKaacEnc_FreqToBandWidthRoundingiiiPKi
0000000000b1f210 T _Z33FDKsbrEnc_CalculateTonalityQuotasP16SBR_TON_CORR_ESTPPiS2_ii
0000000000a8c9e4 T _Z33FreeRam_aacEnc_AdjThrStateElementPP11ATS_ELEMENT
0000000000b1ee4c T _Z33GetRequiredMemRam_Sbr_quotaMatrixv
0000000000a6bb94 T _Z33Hcr_State_BODY_SIGN_ESC__ESC_WORDP13FDK_BITSTREAMPv
0000000000adf900 T _Z33SpatialDecApplyM1_CreateW_Mode212P17spatialDec_structPK23SPATIAL_BS_FRAME_structPPiS5_S5_S5_
0000000000add5d0 T _Z33SpatialDecConcealment_UpdateStateP25SpatialDecConcealmentInfoi
0000000000ae5e50 T _Z33fdk_sacenc_delay_SetMinimizeDelayP5DELAYi
0000000000aee578 T _Z33fdk_sacenc_staticGain_CloseConfigPP18STATIC_GAIN_CONFIG
0000000000acd3a4 T _Z33transportDec_RegisterUsacCallbackP12TRANSPORTDECPFiPvP13FDK_BITSTREAMES1_
0000000000ad54e4 T _Z33transportEnc_LatmAddOtherDataBitsP11LATM_STREAMi
0000000000ad57e4 T _Z33transportEnc_RegisterUsacCallbackP12TRANSPORTENCPFiPvP13FDK_BITSTREAMES1_
0000000000a75ed0 T _Z34CBlock_InverseQuantizeSpectralDataP22CAacDecoderChannelInfoP16SamplingRateInfoPhh
0000000000acc930 T _Z34CLatmDemux_GetOtherDataPresentFlagP10CLatmDemux
0000000000a991fc T _Z34FDKaacEnc_CalcBandEnergyOptimShortPKiPiS0_iS1_
0000000000a9146c T _Z34FDKaacEnc_PreProcessPnsChannelPairiPiS_S_S_S_P10PNS_CONFIGP8PNS_DATAS3_
0000000000b10c78 T _Z34FDKsbrEnc_CreateExtractSbrEnvelopeP20SBR_EXTRACT_ENVELOPEiiPh
0000000000b217e0 T _Z34FDKsbrEnc_InitSbrTransientDetectorP22SBR_TRANSIENT_DETECTORjiiP16sbrConfigurationiiiiiii
0000000000b10f54 T _Z34FDKsbrEnc_deleteExtractSbrEnvelopeP20SBR_EXTRACT_ENVELOPE
0000000000b15d28 T _Z34FDKsbrEnc_sbrNoiseFloorEstimateQmfP24SBR_NOISE_FLOOR_ESTIMATEPK14SBR_FRAME_INFOPiPS4_PaiijiP9INVF_MODEj
0000000000acc9a8 T _Z34GetRequiredMemRam_TransportDecoderv
0000000000ad5568 T _Z34GetRequiredMemRam_TransportEncoderv
0000000000a8c838 T _Z34GetRequiredMemRam_aacEnc_PsyStaticv
0000000000a8cb30 T _Z34GetRequiredMemRam_aacEnc_QCelementv
0000000000ab3824 T _Z34drcDec_GainDecoder_SetChannelGainsP16DRC_GAIN_DECODERiiPKiiPi
0000000000ae5eac T _Z34fdk_sacenc_delay_GetInfoCodecDelayP5DELAY
0000000000aee740 T _Z34fdk_sacenc_staticPostGain_ApplyFDKP11STATIC_GAINPsii
0000000000b304b8 T _Z35FDK_QmfDomain_ClearPersistentMemoryP14FDK_QMF_DOMAIN
0000000000aa1c8c T _Z35FDKaacEnc_IntensityStereoProcessingPiS_S_S_S_S_S_S_S_S_S_S_S_iiiPKiiS_S_PP8PNS_DATA
0000000000a91730 T _Z35FDKaacEnc_PostProcessPnsChannelPairiP10PNS_CONFIGP8PNS_DATAS2_PiS3_
0000000000aae22c T _Z35FDKaacEnc_calcSfbQuantEnergyAndDistPiPsiiS_S_
0000000000b16360 T _Z35FDKsbrEnc_InitSbrNoiseFloorEstimateP24SBR_NOISE_FLOOR_ESTIMATEiPKhiiiij
0000000000b1ef94 T _Z35GetRam_Sbr_prevEnvelopeCompensationi
0000000000a65c44 T _Z35GetRequiredMemAacDecoderChannelInfov
0000000000a8c778 T _Z35GetRequiredMemRam_aacEnc_AacEncoderv
0000000000a8c7b8 T _Z35GetRequiredMemRam_aacEnc_PsyElementv
0000000000a6ba0c T _Z35Hcr_State_BODY_SIGN_ESC__ESC_PREFIXP13FDK_BITSTREAMPv
0000000000ad5f8c T _Z35SpatialDecParseSpecificConfigHeaderP13FDK_BITSTREAMP25T_SPATIAL_SPECIFIC_CONFIG17AUDIO_OBJECT_TYPE22SPATIAL_DEC_UPMIX_TYPE
0000000000ae4680 T _Z35fdk_sacenc_getSpatialSpecificConfigP12BSF_INSTANCE
0000000000aeef3c T _Z35fdk_sacenc_spaceTree_GetDescriptionP10SPACE_TREEP22SPACE_TREE_DESCRIPTION
0000000000ad5150 T _Z35transportEnc_LatmAdjustSubframeBitsP11LATM_STREAMPi
0000000000ac5fbc T _Z36CProgramConfig_GetChannelDescriptionjPK14CProgramConfigP18AUDIO_CHANNEL_TYPEPh
0000000000b30f34 T _Z36FDK_QmfDomain_WorkBuffer2ProcChannelP17FDK_QMF_DOMAIN_IN
0000000000b0b05c T _Z36FDKsbrEnc_CountSbrChannelPairElementP15SBR_HEADER_DATAP19T_PARAMETRIC_STEREOP18SBR_BITSTREAM_DATAP12SBR_ENV_DATAS6_P11COMMON_DATAj
0000000000b0af18 T _Z36FDKsbrEnc_WriteEnvChannelPairElementP15SBR_HEADER_DATAP19T_PARAMETRIC_STEREOP18SBR_BITSTREAM_DATAP12SBR_ENV_DATAS6_P11COMMON_DATAj
0000000000b164a4 T _Z36FDKsbrEnc_resetSbrNoiseFloorEstimateP24SBR_NOISE_FLOOR_ESTIMATEPKhi
0000000000b1efa0 T _Z36FreeRam_Sbr_prevEnvelopeCompensationPPh
0000000000a8ca50 T _Z36GetRequiredMemRam_aacEnc_ElementBitsv
0000000000a8c7f8 T _Z36GetRequiredMemRam_aacEnc_PsyInternalv
0000000000ab3af4 T _Z36drcDec_GainDecoder_ProcessTimeDomainP16DRC_GAIN_DECODERi17GAIN_DEC_LOCATIONiiiiPi
0000000000abcdf8 T _Z36drcDec_SelectionProcess_SetCodecModeP26s_drcdec_selection_process19SEL_PROC_CODEC_MODE
0000000000ae5e9c T _Z36fdk_sacenc_delay_GetDiscardOutFramesP5DELAY
0000000000ae5eb4 T _Z36fdk_sacenc_delay_GetInfoDecoderDelayP5DELAY
0000000000acd334 T _Z36transportDec_RegisterFreeMemCallbackP12TRANSPORTDECPFiPvPK21CSAudioSpecificConfigES1_
0000000000a9f5ec T _Z37FDKaacEnc_GetChannelModeConfiguration12CHANNEL_MODE
0000000000b16728 T _Z37FDKsbrEnc_deleteSbrNoiseFloorEstimateP24SBR_NOISE_FLOOR_ESTIMATE
0000000000b13204 T _Z37FDKsbrEnc_qmfInverseFilteringDetectorP16SBR_INV_FILT_ESTPPiS1_PaiiiP9INVF_MODE
0000000000b1ef0c T _Z37GetRequiredMemRam_Sbr_freqBandTableHIv
0000000000b1eecc T _Z37GetRequiredMemRam_Sbr_freqBandTableLOv
0000000000b1f08c T _Z37GetRequiredMemRam_Sbr_guideVectorDiffv
0000000000b1f0cc T _Z37GetRequiredMemRam_Sbr_guideVectorOrigv
0000000000a8ca90 T _Z37GetRequiredMemRam_aacEnc_BitCntrStatev
0000000000ae5e2c T _Z37fdk_sacenc_delay_SetNSacTimeAlignmentP5DELAYi
0000000000ae5f8c T _Z37fdk_sacenc_init_enhancedTimeDomainDmxP26T_ENHANCED_TIME_DOMAIN_DMXPKiiiii
0000000000ae5ebc T _Z37fdk_sacenc_open_enhancedTimeDomainDmxPP26T_ENHANCED_TIME_DOMAIN_DMXi
0000000000aeef64 T _Z37fdk_sacenc_spaceTree_Hybrid2ParamBandii
0000000000ae4684 T _Z37fdk_sacenc_writeSpatialSpecificConfigP21SPATIALSPECIFICCONFIGPhiPi
0000000000b21924 T _Z38FDKsbrEnc_InitSbrFastTransientDetectorP18FAST_TRAN_DETECTORiiii
0000000000b09c04 T _Z38FDKsbrEnc_WriteEnvSingleChannelElementP15SBR_HEADER_DATAP19T_PARAMETRIC_STEREOP18SBR_BITSTREAM_DATAP12SBR_ENV_DATAP11COMMON_DATAj
0000000000b1f110 T _Z38GetRequiredMemRam_PsQmfStatesSynthesisv
0000000000b1ef8c T _Z38GetRequiredMemRam_Sbr_detectionVectorsv
0000000000a8c950 T _Z38GetRequiredMemRam_aacEnc_PsyOutChannelv
0000000000ab3d94 T _Z38drcDec_GainDecoder_GetDeltaTminDefaultP16DRC_GAIN_DECODER
0000000000ae61ac T _Z38fdk_sacenc_apply_enhancedTimeDomainDmxP26T_ENHANCED_TIME_DOMAIN_DMXPKPKsPsi
0000000000ae5f34 T _Z38fdk_sacenc_close_enhancedTimeDomainDmxPP26T_ENHANCED_TIME_DOMAIN_DMX
0000000000ae463c T _Z38fdk_sacenc_initSpatialBitstreamEncoderP12BSF_INSTANCE
0000000000ace47c T _Z38transportDec_GetMissingAccessUnitCountPiP12TRANSPORTDEC
0000000000aa76ec T _Z39FDK_MpegsEnc_WriteSpatialSpecificConfigP11MPS_ENCODERP13FDK_BITSTREAM
0000000000b1ee08 T _Z39GetRequiredMemRam_Sbr_QmfStatesAnalysisv
0000000000a8c878 T _Z39GetRequiredMemRam_aacEnc_PsyInputBufferv
0000000000a8c910 T _Z39GetRequiredMemRam_aacEnc_PsyOutElementsv
0000000000ab3c2c T _Z39drcDec_GainDecoder_ProcessSubbandDomainP16DRC_GAIN_DECODERi17GAIN_DEC_LOCATIONiiiiPPiS3_
0000000000ae5e94 T _Z39fdk_sacenc_delay_GetDmxAlignBufferDelayP5DELAY
0000000000aee5b4 T _Z39fdk_sacenc_staticGain_InitDefaultConfigP18STATIC_GAIN_CONFIG
0000000000acef4c T _Z39transportDec_DrmRawSdcAudioConfig_CheckPhj
0000000000b33780 T _Z3fftiPiS_
0000000000a6d2e4 T _Z40CAacDecoder_PreRollExtensionPayloadParseP20AAC_DECODER_INSTANCEPjS1_S1_
0000000000b13b84 T _Z40FDKsbrEnc_SbrMissingHarmonicsDetectorQmfP30SBR_MISSING_HARMONICS_DETECTORPPiS2_PaPK14SBR_FRAME_INFOPKhS1_PhS8_iS9_S1_
0000000000acc9e8 T _Z40GetRequiredMemRam_TransportDecoderBufferv
0000000000a8c9d0 T _Z40GetRequiredMemRam_aacEnc_AdjustThresholdv
0000000000ae45f4 T _Z40fdk_sacenc_createSpatialBitstreamEncoderPP12BSF_INSTANCE
0000000000ae5ba4 T _Z40fdk_sacenc_delay_SubCalulateBufferDelaysP5DELAY
0000000000b151ec T _Z41FDKsbrEnc_InitSbrMissingHarmonicsDetectorP30SBR_MISSING_HARMONICS_DETECTORiiiiiiij
0000000000a65c00 T _Z41GetRequiredMemAacDecoderStaticChannelInfov
0000000000b1f04c T _Z41GetRequiredMemRam_Sbr_guideVectorDetectedv
0000000000ae45b8 T _Z41fdk_sacenc_destroySpatialBitstreamEncoderPP12BSF_INSTANCE
0000000000acd3c0 T _Z41transportDec_RegisterUniDrcConfigCallbackP12TRANSPORTDECPFiPvP13FDK_BITSTREAMiiii17AUDIO_OBJECT_TYPEES1_Pj
0000000000b1a27c T _Z42FDKsbrEnc_PSEnc_ParametricStereoProcessingP19T_PARAMETRIC_STEREOPPsjPP15QMF_FILTER_BANKPPiS7_S1_S4_Pai
0000000000b15370 T _Z42FDKsbrEnc_ResetSbrMissingHarmonicsDetectorP30SBR_MISSING_HARMONICS_DETECTORi
0000000000ae5e74 T _Z42fdk_sacenc_delay_GetOutputAudioBufferDelayP5DELAY
0000000000acd350 T _Z42transportDec_RegisterCtrlCFGChangeCallbackP12TRANSPORTDECPFiPvPK14CCtrlCFGChangeES1_
0000000000ad4ac0 T _Z42transportEnc_LatmCountTotalBitDemandHeaderP11LATM_STREAMj
0000000000b1501c T _Z43FDKsbrEnc_CreateSbrMissingHarmonicsDetectorP30SBR_MISSING_HARMONICS_DETECTORi
0000000000b15198 T _Z43FDKsbrEnc_DeleteSbrMissingHarmonicsDetectorP30SBR_MISSING_HARMONICS_DETECTOR
0000000000a8ca10 T _Z43GetRequiredMemRam_aacEnc_AdjThrStateElementv
0000000000ae5e8c T _Z44fdk_sacenc_delay_GetBitstreamFrameBufferSizeP5DELAY
0000000000aed68c T _Z45fdk_sacenc_calcParameterBand2HybridBandOffset18BOX_SUBBAND_CONFIGiPh
0000000000ae5e84 T _Z45fdk_sacenc_delay_GetArbDmxAnalysisBufferDelayP5DELAY
0000000000b1efcc T _Z46GetRequiredMemRam_Sbr_prevEnvelopeCompensationv
0000000000ab344c T _Z46drcDec_GainDecoder_SetCodecDependentParametersP16DRC_GAIN_DECODER10DELAY_MODEi19SUBBAND_DOMAIN_MODE
0000000000ae5e08 T _Z46fdk_sacenc_delay_SetSacTimeAlignmentDynamicOutP5DELAYi
0000000000ae5e7c T _Z47fdk_sacenc_delay_GetSurroundAnalysisBufferDelayP5DELAY
0000000000a7e1cc T _Z49BidirectionalEstimation_UseLowerScfOfCurrentFrameP22CAacDecoderChannelInfo
0000000000ab3d74 T _Z49drcDec_GainDecoder_SetLoudnessNormalizationGainDbP16DRC_GAIN_DECODERi
0000000000b374ec T _Z4fPowiiiiPi
0000000000b34e20 T _Z4ifftiPiS_
0000000000adfc18 T _Z50SpatialDecApplyM2_Mode212_ResidualsPlusPhaseCodingP17spatialDec_structisPPiS2_S2_S2_
0000000000a7e738 T _Z52BidirectionalEstimation_UseScfOfPrevFrameAsReferenceP22CAacDecoderChannelInfoP28CAacDecoderStaticChannelInfo
0000000000b373ec T _Z5f2Powii
0000000000b37314 T _Z5f2PowiiPi
0000000000a82cb0 T _Z6DeemphPiS_iS_
0000000000ac03f4 T _Z6dB2liniiPi
0000000000b32e10 T _Z6dct_IIPiS_iS_
0000000000b331e0 T _Z6dct_IVPiiS_
0000000000b334ac T _Z6dst_IVPiiS_
0000000000b3788c T _Z6fLdPowiiii
0000000000b3778c T _Z6fLdPowiiiiPi
0000000000b361cc W _Z6fft_16Pi
0000000000b35154 W _Z6fft_32Pi
0000000000a894a8 T _Z6filtLPPKiPsPiPKsii
0000000000ac040c T _Z6lin2dBiiPi
0000000000a687d4 T _Z7HcrInitP10CErHcrInfoP22CAacDecoderChannelInfoPK16SamplingRateInfoP13FDK_BITSTREAM
0000000000a792e8 T _Z7IcsReadP13FDK_BITSTREAMP8CIcsInfoPK16SamplingRateInfoj
0000000000a866b8 T _Z7RE8_PPVPiPsi
0000000000ae3c20 T _Z7TsdReadP13FDK_BITSTREAMiP8TSD_DATA
0000000000b32870 T _Z7dct_IIIPiS_iS_
0000000000b3677c T _Z7dit_fftPiiPK8FIXP_SPKi
0000000000b32d14 T _Z7dst_IIIPiS_iS_
0000000000b378e8 T _Z7fPowIntiiiPi
0000000000b02c48 T _Z7sbr_decP7SBR_DECPsS1_S0_S1_iP15SBR_HEADER_DATAP14SBR_FRAME_DATAP19SBR_PREV_FRAME_DATAiP6PS_DECji
0000000000b379c0 T _Z8CalcLog2iiPi
0000000000affd9c T _Z8DecodePsP6PS_DEChP19PS_DEC_COEFFICIENTS
0000000000a826e0 T _Z8Pred_lt4Piii
0000000000a82ad8 T _Z8Syn_filtPKsiiPiS1_
0000000000ae4458 T _Z8TsdApplyiPK8TSD_DATAPiPKiS4_S2_S2_
0000000000b36fc8 T _Z8fDivNormii
0000000000b36e08 T _Z8fDivNormiiPi
0000000000b3206c T _Z8fixp_cosii
0000000000b32134 T _Z8fixp_sinii
0000000000a76ee8 T _Z8get_gainPKiS0_i
