00000000000a0100 T _ZNKSt10bad_typeid4whatEv
000000000009fe40 T _ZNKSt11logic_error4whatEv
00000000000ca8d4 T _ZNKSt12bad_any_cast4whatEv
00000000000ca8e4 T _ZNKSt12experimental15fundamentals_v112bad_any_cast4whatEv
000000000009fcf0 T _ZNKSt13bad_exception4whatEv
000000000009fee4 T _ZNKSt13runtime_error4whatEv
00000000000cccf0 T _ZNKSt16nested_exception14rethrow_nestedEv
00000000000deb30 T _ZNKSt18bad_variant_access4whatEv
00000000000d1868 T _ZNKSt19bad_optional_access4whatEv
000000000009fd98 T _ZNKSt20bad_array_new_length4whatEv
0000000000103234 T _ZNKSt6__ndk110__time_put8__do_putEPcRS1_PK2tmcc
0000000000103624 T _ZNKSt6__ndk110__time_put8__do_putEPwRS1_PK2tmcc
00000000000ddf10 T _ZNKSt6__ndk110error_code7messageEv
0000000000103734 W _ZNKSt6__ndk110moneypunctIcLb0EE11do_groupingEv
0000000000103794 W _ZNKSt6__ndk110moneypunctIcLb0EE13do_neg_formatEv
0000000000103784 W _ZNKSt6__ndk110moneypunctIcLb0EE13do_pos_formatEv
0000000000103744 W _ZNKSt6__ndk110moneypunctIcLb0EE14do_curr_symbolEv
0000000000103778 W _ZNKSt6__ndk110moneypunctIcLb0EE14do_frac_digitsEv
000000000010371c W _ZNKSt6__ndk110moneypunctIcLb0EE16do_decimal_pointEv
0000000000103764 W _ZNKSt6__ndk110moneypunctIcLb0EE16do_negative_signEv
0000000000103754 W _ZNKSt6__ndk110moneypunctIcLb0EE16do_positive_signEv
0000000000103728 W _ZNKSt6__ndk110moneypunctIcLb0EE16do_thousands_sepEv
00000000001037bc W _ZNKSt6__ndk110moneypunctIcLb1EE11do_groupingEv
000000000010381c W _ZNKSt6__ndk110moneypunctIcLb1EE13do_neg_formatEv
000000000010380c W _ZNKSt6__ndk110moneypunctIcLb1EE13do_pos_formatEv
00000000001037cc W _ZNKSt6__ndk110moneypunctIcLb1EE14do_curr_symbolEv
0000000000103800 W _ZNKSt6__ndk110moneypunctIcLb1EE14do_frac_digitsEv
00000000001037a4 W _ZNKSt6__ndk110moneypunctIcLb1EE16do_decimal_pointEv
00000000001037ec W _ZNKSt6__ndk110moneypunctIcLb1EE16do_negative_signEv
00000000001037dc W _ZNKSt6__ndk110moneypunctIcLb1EE16do_positive_signEv
00000000001037b0 W _ZNKSt6__ndk110moneypunctIcLb1EE16do_thousands_sepEv
0000000000103844 W _ZNKSt6__ndk110moneypunctIwLb0EE11do_groupingEv
00000000001038ac W _ZNKSt6__ndk110moneypunctIwLb0EE13do_neg_formatEv
000000000010389c W _ZNKSt6__ndk110moneypunctIwLb0EE13do_pos_formatEv
0000000000103854 W _ZNKSt6__ndk110moneypunctIwLb0EE14do_curr_symbolEv
0000000000103890 W _ZNKSt6__ndk110moneypunctIwLb0EE14do_frac_digitsEv
000000000010382c W _ZNKSt6__ndk110moneypunctIwLb0EE16do_decimal_pointEv
0000000000103874 W _ZNKSt6__ndk110moneypunctIwLb0EE16do_negative_signEv
0000000000103864 W _ZNKSt6__ndk110moneypunctIwLb0EE16do_positive_signEv
0000000000103838 W _ZNKSt6__ndk110moneypunctIwLb0EE16do_thousands_sepEv
00000000001038d4 W _ZNKSt6__ndk110moneypunctIwLb1EE11do_groupingEv
000000000010393c W _ZNKSt6__ndk110moneypunctIwLb1EE13do_neg_formatEv
000000000010392c W _ZNKSt6__ndk110moneypunctIwLb1EE13do_pos_formatEv
00000000001038e4 W _ZNKSt6__ndk110moneypunctIwLb1EE14do_curr_symbolEv
0000000000103920 W _ZNKSt6__ndk110moneypunctIwLb1EE14do_frac_digitsEv
00000000001038bc W _ZNKSt6__ndk110moneypunctIwLb1EE16do_decimal_pointEv
0000000000103904 W _ZNKSt6__ndk110moneypunctIwLb1EE16do_negative_signEv
00000000001038f4 W _ZNKSt6__ndk110moneypunctIwLb1EE16do_positive_signEv
00000000001038c8 W _ZNKSt6__ndk110moneypunctIwLb1EE16do_thousands_sepEv
00000000000d07bc T _ZNKSt6__ndk112bad_weak_ptr4whatEv
00000000000d6798 W _ZNKSt6__ndk112basic_stringIcNS_11char_traitsIcEENS_9allocatorIcEEE12find_last_ofEPKcmm
00000000000d5f38 W _ZNKSt6__ndk112basic_stringIcNS_11char_traitsIcEENS_9allocatorIcEEE13find_first_ofEPKcmm
00000000000d58fc W _ZNKSt6__ndk112basic_stringIcNS_11char_traitsIcEENS_9allocatorIcEEE16find_last_not_ofEPKcmm
00000000000d59cc W _ZNKSt6__ndk112basic_stringIcNS_11char_traitsIcEENS_9allocatorIcEEE17find_first_not_ofEPKcmm
00000000000d5d00 W _ZNKSt6__ndk112basic_stringIcNS_11char_traitsIcEENS_9allocatorIcEEE2atEm
00000000000d6504 W _ZNKSt6__ndk112basic_stringIcNS_11char_traitsIcEENS_9allocatorIcEEE4copyEPcmm
00000000000d7144 W _ZNKSt6__ndk112basic_stringIcNS_11char_traitsIcEENS_9allocatorIcEEE4findEPKcmm
00000000000d663c W _ZNKSt6__ndk112basic_stringIcNS_11char_traitsIcEENS_9allocatorIcEEE4findEcm
00000000000d5708 W _ZNKSt6__ndk112basic_stringIcNS_11char_traitsIcEENS_9allocatorIcEEE5rfindEPKcmm
00000000000d6c14 W _ZNKSt6__ndk112basic_stringIcNS_11char_traitsIcEENS_9allocatorIcEEE5rfindEcm
00000000000d6f18 W _ZNKSt6__ndk112basic_stringIcNS_11char_traitsIcEENS_9allocatorIcEEE7compareEPKc
00000000000d7018 W _ZNKSt6__ndk112basic_stringIcNS_11char_traitsIcEENS_9allocatorIcEEE7compareEmmPKc
00000000000d6f98 W _ZNKSt6__ndk112basic_stringIcNS_11char_traitsIcEENS_9allocatorIcEEE7compareEmmPKcm
00000000000d7214 W _ZNKSt6__ndk112basic_stringIcNS_11char_traitsIcEENS_9allocatorIcEEE7compareEmmRKS5_mm
00000000000d8d30 W _ZNKSt6__ndk112basic_stringIwNS_11char_traitsIwEENS_9allocatorIwEEE12find_last_ofEPKwmm
00000000000d8434 W _ZNKSt6__ndk112basic_stringIwNS_11char_traitsIwEENS_9allocatorIwEEE13find_first_ofEPKwmm
00000000000d7de0 W _ZNKSt6__ndk112basic_stringIwNS_11char_traitsIwEENS_9allocatorIwEEE16find_last_not_ofEPKwmm
00000000000d7ea8 W _ZNKSt6__ndk112basic_stringIwNS_11char_traitsIwEENS_9allocatorIwEEE17find_first_not_ofEPKwmm
00000000000d82c8 W _ZNKSt6__ndk112basic_stringIwNS_11char_traitsIwEENS_9allocatorIwEEE2atEm
00000000000d8a28 W _ZNKSt6__ndk112basic_stringIwNS_11char_traitsIwEENS_9allocatorIwEEE4copyEPwmm
00000000000d98b4 W _ZNKSt6__ndk112basic_stringIwNS_11char_traitsIwEENS_9allocatorIwEEE4findEPKwmm
00000000000d8b80 W _ZNKSt6__ndk112basic_stringIwNS_11char_traitsIwEENS_9allocatorIwEEE4findEwm
00000000000d7b20 W _ZNKSt6__ndk112basic_stringIwNS_11char_traitsIwEENS_9allocatorIwEEE5rfindEPKwmm
00000000000d91f0 W _ZNKSt6__ndk112basic_stringIwNS_11char_traitsIwEENS_9allocatorIwEEE5rfindEwm
00000000000d9610 W _ZNKSt6__ndk112basic_stringIwNS_11char_traitsIwEENS_9allocatorIwEEE7compareEPKw
00000000000d9758 W _ZNKSt6__ndk112basic_stringIwNS_11char_traitsIwEENS_9allocatorIwEEE7compareEmmPKw
00000000000d96bc W _ZNKSt6__ndk112basic_stringIwNS_11char_traitsIwEENS_9allocatorIwEEE7compareEmmPKwm
00000000000d9994 W _ZNKSt6__ndk112basic_stringIwNS_11char_traitsIwEENS_9allocatorIwEEE7compareEmmRKS5_mm
0000000000114bd8 T _ZNKSt6__ndk112ctype_bynameIcE10do_tolowerEPcPKc
0000000000114bbc T _ZNKSt6__ndk112ctype_bynameIcE10do_tolowerEc
0000000000114a10 T _ZNKSt6__ndk112ctype_bynameIcE10do_toupperEPcPKc
00000000001149f4 T _ZNKSt6__ndk112ctype_bynameIcE10do_toupperEc
00000000001152a0 T _ZNKSt6__ndk112ctype_bynameIwE10do_scan_isEmPKwS3_
0000000000115584 T _ZNKSt6__ndk112ctype_bynameIwE10do_tolowerEPwPKw
0000000000115570 T _ZNKSt6__ndk112ctype_bynameIwE10do_tolowerEw
0000000000115514 T _ZNKSt6__ndk112ctype_bynameIwE10do_toupperEPwPKw
0000000000115500 T _ZNKSt6__ndk112ctype_bynameIwE10do_toupperEw
00000000001153d0 T _ZNKSt6__ndk112ctype_bynameIwE11do_scan_notEmPKwS3_
0000000000115104 T _ZNKSt6__ndk112ctype_bynameIwE5do_isEPKwS3_Pm
0000000000114f9c T _ZNKSt6__ndk112ctype_bynameIwE5do_isEmw
0000000000115650 T _ZNKSt6__ndk112ctype_bynameIwE8do_widenEPKcS3_Pw
00000000001155e0 T _ZNKSt6__ndk112ctype_bynameIwE8do_widenEc
000000000011577c T _ZNKSt6__ndk112ctype_bynameIwE9do_narrowEPKwS3_cPc
0000000000115704 T _ZNKSt6__ndk112ctype_bynameIwE9do_narrowEwc
000000000012587c T _ZNKSt6__ndk112strstreambuf6pcountEv
00000000000e17e8 T _ZNKSt6__ndk113random_device7entropyEv
0000000000117e98 T _ZNKSt6__ndk114__codecvt_utf8IDiE10do_unshiftER9mbstate_tPcS4_RS4_
0000000000117ea8 T _ZNKSt6__ndk114__codecvt_utf8IDiE11do_encodingEv
0000000000117ee0 T _ZNKSt6__ndk114__codecvt_utf8IDiE13do_max_lengthEv
0000000000117eb4 T _ZNKSt6__ndk114__codecvt_utf8IDiE16do_always_noconvEv
0000000000117e28 T _ZNKSt6__ndk114__codecvt_utf8IDiE5do_inER9mbstate_tPKcS5_RS5_PDiS7_RS7_
0000000000117db8 T _ZNKSt6__ndk114__codecvt_utf8IDiE6do_outER9mbstate_tPKDiS5_RS5_PcS7_RS7_
0000000000117ec0 T _ZNKSt6__ndk114__codecvt_utf8IDiE9do_lengthER9mbstate_tPKcS5_m
0000000000117c08 T _ZNKSt6__ndk114__codecvt_utf8IDsE10do_unshiftER9mbstate_tPcS4_RS4_
0000000000117c18 T _ZNKSt6__ndk114__codecvt_utf8IDsE11do_encodingEv
0000000000117d9c T _ZNKSt6__ndk114__codecvt_utf8IDsE13do_max_lengthEv
0000000000117c24 T _ZNKSt6__ndk114__codecvt_utf8IDsE16do_always_noconvEv
0000000000117a68 T _ZNKSt6__ndk114__codecvt_utf8IDsE5do_inER9mbstate_tPKcS5_RS5_PDsS7_RS7_
0000000000117940 T _ZNKSt6__ndk114__codecvt_utf8IDsE6do_outER9mbstate_tPKDsS5_RS5_PcS7_RS7_
0000000000117c30 T _ZNKSt6__ndk114__codecvt_utf8IDsE9do_lengthER9mbstate_tPKcS5_m
00000000001178dc T _ZNKSt6__ndk114__codecvt_utf8IwE10do_unshiftER9mbstate_tPcS4_RS4_
00000000001178ec T _ZNKSt6__ndk114__codecvt_utf8IwE11do_encodingEv
0000000000117924 T _ZNKSt6__ndk114__codecvt_utf8IwE13do_max_lengthEv
00000000001178f8 T _ZNKSt6__ndk114__codecvt_utf8IwE16do_always_noconvEv
000000000011786c T _ZNKSt6__ndk114__codecvt_utf8IwE5do_inER9mbstate_tPKcS5_RS5_PwS7_RS7_
00000000001177fc T _ZNKSt6__ndk114__codecvt_utf8IwE6do_outER9mbstate_tPKwS5_RS5_PcS7_RS7_
0000000000117904 T _ZNKSt6__ndk114__codecvt_utf8IwE9do_lengthER9mbstate_tPKcS5_m
00000000001130ec T _ZNKSt6__ndk114collate_bynameIcE10do_compareEPKcS3_S3_S3_
00000000001132a8 T _ZNKSt6__ndk114collate_bynameIcE12do_transformEPKcS3_
00000000001136dc T _ZNKSt6__ndk114collate_bynameIwE10do_compareEPKwS3_S3_S3_
00000000001138d4 T _ZNKSt6__ndk114collate_bynameIwE12do_transformEPKwS3_
00000000000ccb88 T _ZNKSt6__ndk114error_category10equivalentERKNS_10error_codeEi
00000000000ccb44 T _ZNKSt6__ndk114error_category10equivalentEiRKNS_15error_conditionE
00000000000ccb30 T _ZNKSt6__ndk114error_category23default_error_conditionEi
0000000000118c20 T _ZNKSt6__ndk115__codecvt_utf16IDiLb0EE10do_unshiftER9mbstate_tPcS4_RS4_
0000000000118c30 T _ZNKSt6__ndk115__codecvt_utf16IDiLb0EE11do_encodingEv
0000000000118d50 T _ZNKSt6__ndk115__codecvt_utf16IDiLb0EE13do_max_lengthEv
0000000000118c3c T _ZNKSt6__ndk115__codecvt_utf16IDiLb0EE16do_always_noconvEv
0000000000118b14 T _ZNKSt6__ndk115__codecvt_utf16IDiLb0EE5do_inER9mbstate_tPKcS5_RS5_PDiS7_RS7_
0000000000118a20 T _ZNKSt6__ndk115__codecvt_utf16IDiLb0EE6do_outER9mbstate_tPKDiS5_RS5_PcS7_RS7_
0000000000118c48 T _ZNKSt6__ndk115__codecvt_utf16IDiLb0EE9do_lengthER9mbstate_tPKcS5_m
0000000000118f68 T _ZNKSt6__ndk115__codecvt_utf16IDiLb1EE10do_unshiftER9mbstate_tPcS4_RS4_
0000000000118f78 T _ZNKSt6__ndk115__codecvt_utf16IDiLb1EE11do_encodingEv
0000000000119098 T _ZNKSt6__ndk115__codecvt_utf16IDiLb1EE13do_max_lengthEv
0000000000118f84 T _ZNKSt6__ndk115__codecvt_utf16IDiLb1EE16do_always_noconvEv
0000000000118e50 T _ZNKSt6__ndk115__codecvt_utf16IDiLb1EE5do_inER9mbstate_tPKcS5_RS5_PDiS7_RS7_
0000000000118d6c T _ZNKSt6__ndk115__codecvt_utf16IDiLb1EE6do_outER9mbstate_tPKDiS5_RS5_PcS7_RS7_
0000000000118f90 T _ZNKSt6__ndk115__codecvt_utf16IDiLb1EE9do_lengthER9mbstate_tPKcS5_m
00000000001186d4 T _ZNKSt6__ndk115__codecvt_utf16IDsLb0EE10do_unshiftER9mbstate_tPcS4_RS4_
00000000001186e4 T _ZNKSt6__ndk115__codecvt_utf16IDsLb0EE11do_encodingEv
00000000001187b4 T _ZNKSt6__ndk115__codecvt_utf16IDsLb0EE13do_max_lengthEv
00000000001186f0 T _ZNKSt6__ndk115__codecvt_utf16IDsLb0EE16do_always_noconvEv
0000000000118640 T _ZNKSt6__ndk115__codecvt_utf16IDsLb0EE5do_inER9mbstate_tPKcS5_RS5_PDsS7_RS7_
0000000000118590 T _ZNKSt6__ndk115__codecvt_utf16IDsLb0EE6do_outER9mbstate_tPKDsS5_RS5_PcS7_RS7_
00000000001186fc T _ZNKSt6__ndk115__codecvt_utf16IDsLb0EE9do_lengthER9mbstate_tPKcS5_m
0000000000118924 T _ZNKSt6__ndk115__codecvt_utf16IDsLb1EE10do_unshiftER9mbstate_tPcS4_RS4_
0000000000118934 T _ZNKSt6__ndk115__codecvt_utf16IDsLb1EE11do_encodingEv
0000000000118a04 T _ZNKSt6__ndk115__codecvt_utf16IDsLb1EE13do_max_lengthEv
0000000000118940 T _ZNKSt6__ndk115__codecvt_utf16IDsLb1EE16do_always_noconvEv
0000000000118880 T _ZNKSt6__ndk115__codecvt_utf16IDsLb1EE5do_inER9mbstate_tPKcS5_RS5_PDsS7_RS7_
00000000001187d0 T _ZNKSt6__ndk115__codecvt_utf16IDsLb1EE6do_outER9mbstate_tPKDsS5_RS5_PcS7_RS7_
000000000011894c T _ZNKSt6__ndk115__codecvt_utf16IDsLb1EE9do_lengthER9mbstate_tPKcS5_m
00000000001180fc T _ZNKSt6__ndk115__codecvt_utf16IwLb0EE10do_unshiftER9mbstate_tPcS4_RS4_
000000000011810c T _ZNKSt6__ndk115__codecvt_utf16IwLb0EE11do_encodingEv
000000000011822c T _ZNKSt6__ndk115__codecvt_utf16IwLb0EE13do_max_lengthEv
0000000000118118 T _ZNKSt6__ndk115__codecvt_utf16IwLb0EE16do_always_noconvEv
0000000000117ff0 T _ZNKSt6__ndk115__codecvt_utf16IwLb0EE5do_inER9mbstate_tPKcS5_RS5_PwS7_RS7_
0000000000117efc T _ZNKSt6__ndk115__codecvt_utf16IwLb0EE6do_outER9mbstate_tPKwS5_RS5_PcS7_RS7_
0000000000118124 T _ZNKSt6__ndk115__codecvt_utf16IwLb0EE9do_lengthER9mbstate_tPKcS5_m
0000000000118444 T _ZNKSt6__ndk115__codecvt_utf16IwLb1EE10do_unshiftER9mbstate_tPcS4_RS4_
0000000000118454 T _ZNKSt6__ndk115__codecvt_utf16IwLb1EE11do_encodingEv
0000000000118574 T _ZNKSt6__ndk115__codecvt_utf16IwLb1EE13do_max_lengthEv
0000000000118460 T _ZNKSt6__ndk115__codecvt_utf16IwLb1EE16do_always_noconvEv
000000000011832c T _ZNKSt6__ndk115__codecvt_utf16IwLb1EE5do_inER9mbstate_tPKcS5_RS5_PwS7_RS7_
0000000000118248 T _ZNKSt6__ndk115__codecvt_utf16IwLb1EE6do_outER9mbstate_tPKwS5_RS5_PcS7_RS7_
000000000011846c T _ZNKSt6__ndk115__codecvt_utf16IwLb1EE9do_lengthER9mbstate_tPKcS5_m
00000000000e2684 W _ZNKSt6__ndk115basic_streambufIcNS_11char_traitsIcEEE6getlocEv
00000000000e79fc W _ZNKSt6__ndk115basic_streambufIwNS_11char_traitsIwEEE6getlocEv
00000000000ed184 W _ZNKSt6__ndk115basic_stringbufIcNS_11char_traitsIcEENS_9allocatorIcEEE3strEv
00000000000ddef4 T _ZNKSt6__ndk115error_condition7messageEv
0000000000103964 W _ZNKSt6__ndk117moneypunct_bynameIcLb0EE11do_groupingEv
0000000000103a3c W _ZNKSt6__ndk117moneypunct_bynameIcLb0EE13do_neg_formatEv
0000000000103a30 W _ZNKSt6__ndk117moneypunct_bynameIcLb0EE13do_pos_formatEv
0000000000103994 W _ZNKSt6__ndk117moneypunct_bynameIcLb0EE14do_curr_symbolEv
0000000000103a24 W _ZNKSt6__ndk117moneypunct_bynameIcLb0EE14do_frac_digitsEv
000000000010394c W _ZNKSt6__ndk117moneypunct_bynameIcLb0EE16do_decimal_pointEv
00000000001039f4 W _ZNKSt6__ndk117moneypunct_bynameIcLb0EE16do_negative_signEv
00000000001039c4 W _ZNKSt6__ndk117moneypunct_bynameIcLb0EE16do_positive_signEv
0000000000103958 W _ZNKSt6__ndk117moneypunct_bynameIcLb0EE16do_thousands_sepEv
0000000000103a60 W _ZNKSt6__ndk117moneypunct_bynameIcLb1EE11do_groupingEv
0000000000103b38 W _ZNKSt6__ndk117moneypunct_bynameIcLb1EE13do_neg_formatEv
0000000000103b2c W _ZNKSt6__ndk117moneypunct_bynameIcLb1EE13do_pos_formatEv
0000000000103a90 W _ZNKSt6__ndk117moneypunct_bynameIcLb1EE14do_curr_symbolEv
0000000000103b20 W _ZNKSt6__ndk117moneypunct_bynameIcLb1EE14do_frac_digitsEv
0000000000103a48 W _ZNKSt6__ndk117moneypunct_bynameIcLb1EE16do_decimal_pointEv
0000000000103af0 W _ZNKSt6__ndk117moneypunct_bynameIcLb1EE16do_negative_signEv
0000000000103ac0 W _ZNKSt6__ndk117moneypunct_bynameIcLb1EE16do_positive_signEv
0000000000103a54 W _ZNKSt6__ndk117moneypunct_bynameIcLb1EE16do_thousands_sepEv
0000000000103b5c W _ZNKSt6__ndk117moneypunct_bynameIwLb0EE11do_groupingEv
0000000000103c34 W _ZNKSt6__ndk117moneypunct_bynameIwLb0EE13do_neg_formatEv
0000000000103c28 W _ZNKSt6__ndk117moneypunct_bynameIwLb0EE13do_pos_formatEv
0000000000103b8c W _ZNKSt6__ndk117moneypunct_bynameIwLb0EE14do_curr_symbolEv
0000000000103c1c W _ZNKSt6__ndk117moneypunct_bynameIwLb0EE14do_frac_digitsEv
0000000000103b44 W _ZNKSt6__ndk117moneypunct_bynameIwLb0EE16do_decimal_pointEv
0000000000103bec W _ZNKSt6__ndk117moneypunct_bynameIwLb0EE16do_negative_signEv
0000000000103bbc W _ZNKSt6__ndk117moneypunct_bynameIwLb0EE16do_positive_signEv
0000000000103b50 W _ZNKSt6__ndk117moneypunct_bynameIwLb0EE16do_thousands_sepEv
0000000000103c58 W _ZNKSt6__ndk117moneypunct_bynameIwLb1EE11do_groupingEv
0000000000103d30 W _ZNKSt6__ndk117moneypunct_bynameIwLb1EE13do_neg_formatEv
0000000000103d24 W _ZNKSt6__ndk117moneypunct_bynameIwLb1EE13do_pos_formatEv
0000000000103c88 W _ZNKSt6__ndk117moneypunct_bynameIwLb1EE14do_curr_symbolEv
0000000000103d18 W _ZNKSt6__ndk117moneypunct_bynameIwLb1EE14do_frac_digitsEv
0000000000103c40 W _ZNKSt6__ndk117moneypunct_bynameIwLb1EE16do_decimal_pointEv
0000000000103ce8 W _ZNKSt6__ndk117moneypunct_bynameIwLb1EE16do_negative_signEv
0000000000103cb8 W _ZNKSt6__ndk117moneypunct_bynameIwLb1EE16do_positive_signEv
0000000000103c4c W _ZNKSt6__ndk117moneypunct_bynameIwLb1EE16do_thousands_sepEv
000000000011f824 T _ZNKSt6__ndk118__time_get_storageIcE15__do_date_orderEv
000000000011fabc T _ZNKSt6__ndk118__time_get_storageIwE15__do_date_orderEv
00000000000d09ec T _ZNKSt6__ndk119__shared_weak_count13__get_deleterERKSt9type_info
00000000001198d8 T _ZNKSt6__ndk120__codecvt_utf8_utf16IDiE10do_unshiftER9mbstate_tPcS4_RS4_
00000000001198e8 T _ZNKSt6__ndk120__codecvt_utf8_utf16IDiE11do_encodingEv
0000000000119920 T _ZNKSt6__ndk120__codecvt_utf8_utf16IDiE13do_max_lengthEv
00000000001198f4 T _ZNKSt6__ndk120__codecvt_utf8_utf16IDiE16do_always_noconvEv
0000000000119868 T _ZNKSt6__ndk120__codecvt_utf8_utf16IDiE5do_inER9mbstate_tPKcS5_RS5_PDiS7_RS7_
00000000001197f8 T _ZNKSt6__ndk120__codecvt_utf8_utf16IDiE6do_outER9mbstate_tPKDiS5_RS5_PcS7_RS7_
0000000000119900 T _ZNKSt6__ndk120__codecvt_utf8_utf16IDiE9do_lengthER9mbstate_tPKcS5_m
0000000000119794 T _ZNKSt6__ndk120__codecvt_utf8_utf16IDsE10do_unshiftER9mbstate_tPcS4_RS4_
00000000001197a4 T _ZNKSt6__ndk120__codecvt_utf8_utf16IDsE11do_encodingEv
00000000001197dc T _ZNKSt6__ndk120__codecvt_utf8_utf16IDsE13do_max_lengthEv
00000000001197b0 T _ZNKSt6__ndk120__codecvt_utf8_utf16IDsE16do_always_noconvEv
0000000000119724 T _ZNKSt6__ndk120__codecvt_utf8_utf16IDsE5do_inER9mbstate_tPKcS5_RS5_PDsS7_RS7_
00000000001196b4 T _ZNKSt6__ndk120__codecvt_utf8_utf16IDsE6do_outER9mbstate_tPKDsS5_RS5_PcS7_RS7_
00000000001197bc T _ZNKSt6__ndk120__codecvt_utf8_utf16IDsE9do_lengthER9mbstate_tPKcS5_m
0000000000119650 T _ZNKSt6__ndk120__codecvt_utf8_utf16IwE10do_unshiftER9mbstate_tPcS4_RS4_
0000000000119660 T _ZNKSt6__ndk120__codecvt_utf8_utf16IwE11do_encodingEv
0000000000119698 T _ZNKSt6__ndk120__codecvt_utf8_utf16IwE13do_max_lengthEv
000000000011966c T _ZNKSt6__ndk120__codecvt_utf8_utf16IwE16do_always_noconvEv
000000000011934c T _ZNKSt6__ndk120__codecvt_utf8_utf16IwE5do_inER9mbstate_tPKcS5_RS5_PwS7_RS7_
00000000001190b4 T _ZNKSt6__ndk120__codecvt_utf8_utf16IwE6do_outER9mbstate_tPKwS5_RS5_PcS7_RS7_
0000000000119678 T _ZNKSt6__ndk120__codecvt_utf8_utf16IwE9do_lengthER9mbstate_tPKcS5_m
000000000011c0f0 T _ZNKSt6__ndk120__time_get_c_storageIcE3__XEv
000000000011c21c T _ZNKSt6__ndk120__time_get_c_storageIcE3__cEv
000000000011c348 T _ZNKSt6__ndk120__time_get_c_storageIcE3__rEv
000000000011bfc4 T _ZNKSt6__ndk120__time_get_c_storageIcE3__xEv
000000000011bcec T _ZNKSt6__ndk120__time_get_c_storageIcE7__am_pmEv
000000000011a65c T _ZNKSt6__ndk120__time_get_c_storageIcE7__weeksEv
000000000011aef0 T _ZNKSt6__ndk120__time_get_c_storageIcE8__monthsEv
000000000011c16c T _ZNKSt6__ndk120__time_get_c_storageIwE3__XEv
000000000011c298 T _ZNKSt6__ndk120__time_get_c_storageIwE3__cEv
000000000011c3c4 T _ZNKSt6__ndk120__time_get_c_storageIwE3__rEv
000000000011c040 T _ZNKSt6__ndk120__time_get_c_storageIwE3__xEv
000000000011be60 T _ZNKSt6__ndk120__time_get_c_storageIwE7__am_pmEv
000000000011ab8c T _ZNKSt6__ndk120__time_get_c_storageIwE7__weeksEv
000000000011b734 T _ZNKSt6__ndk120__time_get_c_storageIwE8__monthsEv
00000000000deb6c T _ZNKSt6__ndk120__vector_base_commonILb1EE20__throw_length_errorEv
00000000000deb84 T _ZNKSt6__ndk120__vector_base_commonILb1EE20__throw_out_of_rangeEv
00000000000d9ffc T _ZNKSt6__ndk121__basic_string_commonILb1EE20__throw_length_errorEv
00000000000da014 T _ZNKSt6__ndk121__basic_string_commonILb1EE20__throw_out_of_rangeEv
0000000000125220 T _ZNKSt6__ndk123__match_any_but_newlineIcE6__execERNS_7__stateIcEE
0000000000125270 T _ZNKSt6__ndk123__match_any_but_newlineIwE6__execERNS_7__stateIwEE
00000000000d1200 T _ZNKSt6__ndk13pmr26synchronized_pool_resource11do_is_equalERKNS0_15memory_resourceE
00000000000d0ccc T _ZNKSt6__ndk13pmr28unsynchronized_pool_resource12__pool_indexEmm
00000000000d0cac T _ZNKSt6__ndk13pmr28unsynchronized_pool_resource17__pool_block_sizeEi
00000000000d0cc0 T _ZNKSt6__ndk13pmr28unsynchronized_pool_resource22__log2_pool_block_sizeEi
00000000000d0dc4 T _ZNKSt6__ndk13pmr28unsynchronized_pool_resource7optionsEv
00000000001279e8 T _ZNKSt6__ndk14__fs10filesystem18directory_iterator13__dereferenceEv
00000000001281a0 T _ZNKSt6__ndk14__fs10filesystem28recursive_directory_iterator13__dereferenceEv
000000000012818c T _ZNKSt6__ndk14__fs10filesystem28recursive_directory_iterator5depthEv
000000000012817c T _ZNKSt6__ndk14__fs10filesystem28recursive_directory_iterator7optionsEv
00000000000cdb2c T _ZNKSt6__ndk14__fs10filesystem4path10__filenameEv
00000000000cdd34 T _ZNKSt6__ndk14__fs10filesystem4path11__extensionEv
00000000000cd6f8 T _ZNKSt6__ndk14__fs10filesystem4path11__root_nameEv
00000000000cd9d0 T _ZNKSt6__ndk14__fs10filesystem4path13__parent_pathEv
00000000000cd908 T _ZNKSt6__ndk14__fs10filesystem4path15__relative_pathEv
00000000000cd808 T _ZNKSt6__ndk14__fs10filesystem4path15__root_path_rawEv
00000000000cd75c T _ZNKSt6__ndk14__fs10filesystem4path16__root_directoryEv
00000000000cde18 T _ZNKSt6__ndk14__fs10filesystem4path16lexically_normalEv
00000000000ce430 T _ZNKSt6__ndk14__fs10filesystem4path18lexically_relativeERKS2_
00000000000cefec T _ZNKSt6__ndk14__fs10filesystem4path3endEv
00000000000cee8c T _ZNKSt6__ndk14__fs10filesystem4path5beginEv
00000000000cdc88 T _ZNKSt6__ndk14__fs10filesystem4path6__stemEv
00000000000ce9f8 T _ZNKSt6__ndk14__fs10filesystem4path9__compareENS_17basic_string_viewIcNS_11char_traitsIcEEEE
00000000001144f8 T _ZNKSt6__ndk15ctypeIcE10do_tolowerEPcPKc
0000000000114454 T _ZNKSt6__ndk15ctypeIcE10do_tolowerEc
0000000000114378 T _ZNKSt6__ndk15ctypeIcE10do_toupperEPcPKc
00000000001142d4 T _ZNKSt6__ndk15ctypeIcE10do_toupperEc
00000000001145e0 T _ZNKSt6__ndk15ctypeIcE8do_widenEPKcS3_Pc
00000000001145d4 T _ZNKSt6__ndk15ctypeIcE8do_widenEc
00000000001146c4 T _ZNKSt6__ndk15ctypeIcE9do_narrowEPKcS3_cPc
00000000001146b0 T _ZNKSt6__ndk15ctypeIcE9do_narrowEcc
0000000000113ba8 T _ZNKSt6__ndk15ctypeIwE10do_scan_isEmPKwS3_
0000000000113e68 T _ZNKSt6__ndk15ctypeIwE10do_tolowerEPwPKw
0000000000113dc4 T _ZNKSt6__ndk15ctypeIwE10do_tolowerEw
0000000000113ce8 T _ZNKSt6__ndk15ctypeIwE10do_toupperEPwPKw
0000000000113c38 T _ZNKSt6__ndk15ctypeIwE10do_toupperEw
0000000000113bf4 T _ZNKSt6__ndk15ctypeIwE11do_scan_notEmPKwS3_
0000000000113b50 T _ZNKSt6__ndk15ctypeIwE5do_isEPKwS3_Pm
0000000000113b14 T _ZNKSt6__ndk15ctypeIwE5do_isEmw
0000000000113f50 T _ZNKSt6__ndk15ctypeIwE8do_widenEPKcS3_Pw
0000000000113f44 T _ZNKSt6__ndk15ctypeIwE8do_widenEc
0000000000114090 T _ZNKSt6__ndk15ctypeIwE9do_narrowEPKwS3_cPc
0000000000114080 T _ZNKSt6__ndk15ctypeIwE9do_narrowEwc
000000000011285c T _ZNKSt6__ndk16locale4nameEv
0000000000112b50 T _ZNKSt6__ndk16locale9has_facetERNS0_2idE
0000000000112c58 T _ZNKSt6__ndk16locale9use_facetERNS0_2idE
0000000000112ce0 T _ZNKSt6__ndk16localeeqERKS0_
00000000001177ac T _ZNKSt6__ndk17codecvtIDiDu9mbstate_tE10do_unshiftERS1_PDuS4_RS4_
00000000001177bc T _ZNKSt6__ndk17codecvtIDiDu9mbstate_tE11do_encodingEv
00000000001177f0 T _ZNKSt6__ndk17codecvtIDiDu9mbstate_tE13do_max_lengthEv
00000000001177c8 T _ZNKSt6__ndk17codecvtIDiDu9mbstate_tE16do_always_noconvEv
0000000000117744 T _ZNKSt6__ndk17codecvtIDiDu9mbstate_tE5do_inERS1_PKDuS5_RS5_PDiS7_RS7_
0000000000117600 T _ZNKSt6__ndk17codecvtIDiDu9mbstate_tE6do_outERS1_PKDiS5_RS5_PDuS7_RS7_
00000000001177d4 T _ZNKSt6__ndk17codecvtIDiDu9mbstate_tE9do_lengthERS1_PKDuS5_m
0000000000117378 T _ZNKSt6__ndk17codecvtIDic9mbstate_tE10do_unshiftERS1_PcS4_RS4_
0000000000117388 T _ZNKSt6__ndk17codecvtIDic9mbstate_tE11do_encodingEv
00000000001175c8 T _ZNKSt6__ndk17codecvtIDic9mbstate_tE13do_max_lengthEv
0000000000117394 T _ZNKSt6__ndk17codecvtIDic9mbstate_tE16do_always_noconvEv
00000000001170c4 T _ZNKSt6__ndk17codecvtIDic9mbstate_tE5do_inERS1_PKcS5_RS5_PDiS7_RS7_
0000000000116de4 T _ZNKSt6__ndk17codecvtIDic9mbstate_tE6do_outERS1_PKDiS5_RS5_PcS7_RS7_
00000000001173a0 T _ZNKSt6__ndk17codecvtIDic9mbstate_tE9do_lengthERS1_PKcS5_m
0000000000116d68 T _ZNKSt6__ndk17codecvtIDsDu9mbstate_tE10do_unshiftERS1_PDuS4_RS4_
0000000000116d78 T _ZNKSt6__ndk17codecvtIDsDu9mbstate_tE11do_encodingEv
0000000000116dac T _ZNKSt6__ndk17codecvtIDsDu9mbstate_tE13do_max_lengthEv
0000000000116d84 T _ZNKSt6__ndk17codecvtIDsDu9mbstate_tE16do_always_noconvEv
0000000000116d00 T _ZNKSt6__ndk17codecvtIDsDu9mbstate_tE5do_inERS1_PKDuS5_RS5_PDsS7_RS7_
0000000000116c98 T _ZNKSt6__ndk17codecvtIDsDu9mbstate_tE6do_outERS1_PKDsS5_RS5_PDuS7_RS7_
0000000000116d90 T _ZNKSt6__ndk17codecvtIDsDu9mbstate_tE9do_lengthERS1_PKDuS5_m
0000000000116a18 T _ZNKSt6__ndk17codecvtIDsc9mbstate_tE10do_unshiftERS1_PcS4_RS4_
0000000000116a28 T _ZNKSt6__ndk17codecvtIDsc9mbstate_tE11do_encodingEv
0000000000116c60 T _ZNKSt6__ndk17codecvtIDsc9mbstate_tE13do_max_lengthEv
0000000000116a34 T _ZNKSt6__ndk17codecvtIDsc9mbstate_tE16do_always_noconvEv
0000000000116718 T _ZNKSt6__ndk17codecvtIDsc9mbstate_tE5do_inERS1_PKcS5_RS5_PDsS7_RS7_
0000000000116454 T _ZNKSt6__ndk17codecvtIDsc9mbstate_tE6do_outERS1_PKDsS5_RS5_PcS7_RS7_
0000000000116a40 T _ZNKSt6__ndk17codecvtIDsc9mbstate_tE9do_lengthERS1_PKcS5_m
0000000000115890 T _ZNKSt6__ndk17codecvtIcc9mbstate_tE10do_unshiftERS1_PcS4_RS4_
00000000001158a0 T _ZNKSt6__ndk17codecvtIcc9mbstate_tE11do_encodingEv
00000000001158cc T _ZNKSt6__ndk17codecvtIcc9mbstate_tE13do_max_lengthEv
00000000001158ac T _ZNKSt6__ndk17codecvtIcc9mbstate_tE16do_always_noconvEv
000000000011587c T _ZNKSt6__ndk17codecvtIcc9mbstate_tE5do_inERS1_PKcS5_RS5_PcS7_RS7_
0000000000115868 T _ZNKSt6__ndk17codecvtIcc9mbstate_tE6do_outERS1_PKcS5_RS5_PcS7_RS7_
00000000001158b8 T _ZNKSt6__ndk17codecvtIcc9mbstate_tE9do_lengthERS1_PKcS5_m
0000000000116090 T _ZNKSt6__ndk17codecvtIwc9mbstate_tE10do_unshiftERS1_PcS4_RS4_
0000000000116198 T _ZNKSt6__ndk17codecvtIwc9mbstate_tE11do_encodingEv
000000000011639c T _ZNKSt6__ndk17codecvtIwc9mbstate_tE13do_max_lengthEv
000000000011628c T _ZNKSt6__ndk17codecvtIwc9mbstate_tE16do_always_noconvEv
0000000000115dbc T _ZNKSt6__ndk17codecvtIwc9mbstate_tE5do_inERS1_PKcS5_RS5_PwS7_RS7_
0000000000115acc T _ZNKSt6__ndk17codecvtIwc9mbstate_tE6do_outERS1_PKwS5_RS5_PcS7_RS7_
0000000000116298 T _ZNKSt6__ndk17codecvtIwc9mbstate_tE9do_lengthERS1_PKcS5_m
00000000000f1298 W _ZNKSt6__ndk17collateIcE10do_compareEPKcS3_S3_S3_
00000000000f12fc W _ZNKSt6__ndk17collateIcE12do_transformEPKcS3_
00000000000f13a4 W _ZNKSt6__ndk17collateIcE7do_hashEPKcS3_
00000000000f1410 W _ZNKSt6__ndk17collateIwE10do_compareEPKwS3_S3_S3_
00000000000f1468 W _ZNKSt6__ndk17collateIwE12do_transformEPKwS3_
00000000000f152c W _ZNKSt6__ndk17collateIwE7do_hashEPKwS3_
00000000000f52a8 W _ZNKSt6__ndk17num_getIcNS_19istreambuf_iteratorIcNS_11char_traitsIcEEEEE6do_getES4_S4_RNS_8ios_baseERjRPv
00000000000f1564 W _ZNKSt6__ndk17num_getIcNS_19istreambuf_iteratorIcNS_11char_traitsIcEEEEE6do_getES4_S4_RNS_8ios_baseERjRb
00000000000f4820 W _ZNKSt6__ndk17num_getIcNS_19istreambuf_iteratorIcNS_11char_traitsIcEEEEE6do_getES4_S4_RNS_8ios_baseERjRd
00000000000f4d64 W _ZNKSt6__ndk17num_getIcNS_19istreambuf_iteratorIcNS_11char_traitsIcEEEEE6do_getES4_S4_RNS_8ios_baseERjRe
00000000000f42dc W _ZNKSt6__ndk17num_getIcNS_19istreambuf_iteratorIcNS_11char_traitsIcEEEEE6do_getES4_S4_RNS_8ios_baseERjRf
00000000000f1c9c W _ZNKSt6__ndk17num_getIcNS_19istreambuf_iteratorIcNS_11char_traitsIcEEEEE6do_getES4_S4_RNS_8ios_baseERjRl
00000000000f361c W _ZNKSt6__ndk17num_getIcNS_19istreambuf_iteratorIcNS_11char_traitsIcEEEEE6do_getES4_S4_RNS_8ios_baseERjRm
00000000000f295c W _ZNKSt6__ndk17num_getIcNS_19istreambuf_iteratorIcNS_11char_traitsIcEEEEE6do_getES4_S4_RNS_8ios_baseERjRt
00000000000f22fc W _ZNKSt6__ndk17num_getIcNS_19istreambuf_iteratorIcNS_11char_traitsIcEEEEE6do_getES4_S4_RNS_8ios_baseERjRx
00000000000f3c7c W _ZNKSt6__ndk17num_getIcNS_19istreambuf_iteratorIcNS_11char_traitsIcEEEEE6do_getES4_S4_RNS_8ios_baseERjRy
00000000000f2fbc W _ZNKSt6__ndk17num_getIcNS_19istreambuf_iteratorIcNS_11char_traitsIcEEEEE6do_getES4_S4_RNS_8ios_baseERjS8_
00000000000f97d0 W _ZNKSt6__ndk17num_getIwNS_19istreambuf_iteratorIwNS_11char_traitsIwEEEEE6do_getES4_S4_RNS_8ios_baseERjRPv
00000000000f5b38 W _ZNKSt6__ndk17num_getIwNS_19istreambuf_iteratorIwNS_11char_traitsIwEEEEE6do_getES4_S4_RNS_8ios_baseERjRb
00000000000f8d58 W _ZNKSt6__ndk17num_getIwNS_19istreambuf_iteratorIwNS_11char_traitsIwEEEEE6do_getES4_S4_RNS_8ios_baseERjRd
00000000000f9294 W _ZNKSt6__ndk17num_getIwNS_19istreambuf_iteratorIwNS_11char_traitsIwEEEEE6do_getES4_S4_RNS_8ios_baseERjRe
00000000000f881c W _ZNKSt6__ndk17num_getIwNS_19istreambuf_iteratorIwNS_11char_traitsIwEEEEE6do_getES4_S4_RNS_8ios_baseERjRf
00000000000f626c W _ZNKSt6__ndk17num_getIwNS_19istreambuf_iteratorIwNS_11char_traitsIwEEEEE6do_getES4_S4_RNS_8ios_baseERjRl
00000000000f7b8c W _ZNKSt6__ndk17num_getIwNS_19istreambuf_iteratorIwNS_11char_traitsIwEEEEE6do_getES4_S4_RNS_8ios_baseERjRm
00000000000f6efc W _ZNKSt6__ndk17num_getIwNS_19istreambuf_iteratorIwNS_11char_traitsIwEEEEE6do_getES4_S4_RNS_8ios_baseERjRt
00000000000f68b4 W _ZNKSt6__ndk17num_getIwNS_19istreambuf_iteratorIwNS_11char_traitsIwEEEEE6do_getES4_S4_RNS_8ios_baseERjRx
00000000000f81d4 W _ZNKSt6__ndk17num_getIwNS_19istreambuf_iteratorIwNS_11char_traitsIwEEEEE6do_getES4_S4_RNS_8ios_baseERjRy
00000000000f7544 W _ZNKSt6__ndk17num_getIwNS_19istreambuf_iteratorIwNS_11char_traitsIwEEEEE6do_getES4_S4_RNS_8ios_baseERjS8_
00000000000fbfa8 W _ZNKSt6__ndk17num_putIcNS_19ostreambuf_iteratorIcNS_11char_traitsIcEEEEE6do_putES4_RNS_8ios_baseEcPKv
00000000000faad8 W _ZNKSt6__ndk17num_putIcNS_19ostreambuf_iteratorIcNS_11char_traitsIcEEEEE6do_putES4_RNS_8ios_baseEcb
00000000000fb5f0 W _ZNKSt6__ndk17num_putIcNS_19ostreambuf_iteratorIcNS_11char_traitsIcEEEEE6do_putES4_RNS_8ios_baseEcd
00000000000fbad0 W _ZNKSt6__ndk17num_putIcNS_19ostreambuf_iteratorIcNS_11char_traitsIcEEEEE6do_putES4_RNS_8ios_baseEce
00000000000face8 W _ZNKSt6__ndk17num_putIcNS_19ostreambuf_iteratorIcNS_11char_traitsIcEEEEE6do_putES4_RNS_8ios_baseEcl
00000000000fb188 W _ZNKSt6__ndk17num_putIcNS_19ostreambuf_iteratorIcNS_11char_traitsIcEEEEE6do_putES4_RNS_8ios_baseEcm
00000000000faf38 W _ZNKSt6__ndk17num_putIcNS_19ostreambuf_iteratorIcNS_11char_traitsIcEEEEE6do_putES4_RNS_8ios_baseEcx
00000000000fb3bc W _ZNKSt6__ndk17num_putIcNS_19ostreambuf_iteratorIcNS_11char_traitsIcEEEEE6do_putES4_RNS_8ios_baseEcy
00000000000fd92c W _ZNKSt6__ndk17num_putIwNS_19ostreambuf_iteratorIwNS_11char_traitsIwEEEEE6do_putES4_RNS_8ios_baseEwPKv
00000000000fc484 W _ZNKSt6__ndk17num_putIwNS_19ostreambuf_iteratorIwNS_11char_traitsIwEEEEE6do_putES4_RNS_8ios_baseEwb
00000000000fcf74 W _ZNKSt6__ndk17num_putIwNS_19ostreambuf_iteratorIwNS_11char_traitsIwEEEEE6do_putES4_RNS_8ios_baseEwd
00000000000fd454 W _ZNKSt6__ndk17num_putIwNS_19ostreambuf_iteratorIwNS_11char_traitsIwEEEEE6do_putES4_RNS_8ios_baseEwe
00000000000fc66c W _ZNKSt6__ndk17num_putIwNS_19ostreambuf_iteratorIwNS_11char_traitsIwEEEEE6do_putES4_RNS_8ios_baseEwl
00000000000fcb0c W _ZNKSt6__ndk17num_putIwNS_19ostreambuf_iteratorIwNS_11char_traitsIwEEEEE6do_putES4_RNS_8ios_baseEwm
00000000000fc8bc W _ZNKSt6__ndk17num_putIwNS_19ostreambuf_iteratorIwNS_11char_traitsIwEEEEE6do_putES4_RNS_8ios_baseEwx
00000000000fcd40 W _ZNKSt6__ndk17num_putIwNS_19ostreambuf_iteratorIwNS_11char_traitsIwEEEEE6do_putES4_RNS_8ios_baseEwy
00000000000e1acc T _ZNKSt6__ndk18ios_base6getlocEv
0000000000109bd0 W _ZNKSt6__ndk18messagesIcE6do_getEliiRKNS_12basic_stringIcNS_11char_traitsIcEENS_9allocatorIcEEEE
0000000000109bc4 W _ZNKSt6__ndk18messagesIcE7do_openERKNS_12basic_stringIcNS_11char_traitsIcEENS_9allocatorIcEEEERKNS_6localeE
0000000000109bfc W _ZNKSt6__ndk18messagesIcE8do_closeEl
0000000000109c10 W _ZNKSt6__ndk18messagesIwE6do_getEliiRKNS_12basic_stringIwNS_11char_traitsIwEENS_9allocatorIwEEEE
0000000000109c04 W _ZNKSt6__ndk18messagesIwE7do_openERKNS_12basic_stringIcNS_11char_traitsIcEENS_9allocatorIcEEEERKNS_6localeE
0000000000109c3c W _ZNKSt6__ndk18messagesIwE8do_closeEl
0000000000119b70 T _ZNKSt6__ndk18numpunctIcE11do_groupingEv
0000000000119bd0 T _ZNKSt6__ndk18numpunctIcE11do_truenameEv
0000000000119cd4 T _ZNKSt6__ndk18numpunctIcE12do_falsenameEv
0000000000119b40 T _ZNKSt6__ndk18numpunctIcE16do_decimal_pointEv
0000000000119b58 T _ZNKSt6__ndk18numpunctIcE16do_thousands_sepEv
0000000000119ba0 T _ZNKSt6__ndk18numpunctIwE11do_groupingEv
0000000000119bf0 T _ZNKSt6__ndk18numpunctIwE11do_truenameEv
0000000000119cf8 T _ZNKSt6__ndk18numpunctIwE12do_falsenameEv
0000000000119b4c T _ZNKSt6__ndk18numpunctIwE16do_decimal_pointEv
0000000000119b64 T _ZNKSt6__ndk18numpunctIwE16do_thousands_sepEv
000000000010043c W _ZNKSt6__ndk18time_getIcNS_19istreambuf_iteratorIcNS_11char_traitsIcEEEEE10__get_hourERiRS4_S4_RjRKNS_5ctypeIcEE
00000000000ffce4 W _ZNKSt6__ndk18time_getIcNS_19istreambuf_iteratorIcNS_11char_traitsIcEEEEE10__get_yearERiRS4_S4_RjRKNS_5ctypeIcEE
000000000010084c W _ZNKSt6__ndk18time_getIcNS_19istreambuf_iteratorIcNS_11char_traitsIcEEEEE11__get_am_pmERiRS4_S4_RjRKNS_5ctypeIcEE
0000000000100584 W _ZNKSt6__ndk18time_getIcNS_19istreambuf_iteratorIcNS_11char_traitsIcEEEEE11__get_monthERiRS4_S4_RjRKNS_5ctypeIcEE
0000000000100a34 W _ZNKSt6__ndk18time_getIcNS_19istreambuf_iteratorIcNS_11char_traitsIcEEEEE11__get_year4ERiRS4_S4_RjRKNS_5ctypeIcEE
00000000000ff724 W _ZNKSt6__ndk18time_getIcNS_19istreambuf_iteratorIcNS_11char_traitsIcEEEEE11do_get_dateES4_S4_RNS_8ios_baseERjP2tm
00000000000ff6e0 W _ZNKSt6__ndk18time_getIcNS_19istreambuf_iteratorIcNS_11char_traitsIcEEEEE11do_get_timeES4_S4_RNS_8ios_baseERjP2tm
00000000000ffbc8 W _ZNKSt6__ndk18time_getIcNS_19istreambuf_iteratorIcNS_11char_traitsIcEEEEE11do_get_yearES4_S4_RNS_8ios_baseERjP2tm
00000000001005f4 W _ZNKSt6__ndk18time_getIcNS_19istreambuf_iteratorIcNS_11char_traitsIcEEEEE12__get_minuteERiRS4_S4_RjRKNS_5ctypeIcEE
000000000010095c W _ZNKSt6__ndk18time_getIcNS_19istreambuf_iteratorIcNS_11char_traitsIcEEEEE12__get_secondERiRS4_S4_RjRKNS_5ctypeIcEE
00000000001004a8 W _ZNKSt6__ndk18time_getIcNS_19istreambuf_iteratorIcNS_11char_traitsIcEEEEE13__get_12_hourERiRS4_S4_RjRKNS_5ctypeIcEE
0000000000100a84 W _ZNKSt6__ndk18time_getIcNS_19istreambuf_iteratorIcNS_11char_traitsIcEEEEE13__get_percentERS4_S4_RjRKNS_5ctypeIcEE
00000000001009c8 W _ZNKSt6__ndk18time_getIcNS_19istreambuf_iteratorIcNS_11char_traitsIcEEEEE13__get_weekdayERiRS4_S4_RjRKNS_5ctypeIcEE
00000000000ff6d4 W _ZNKSt6__ndk18time_getIcNS_19istreambuf_iteratorIcNS_11char_traitsIcEEEEE13do_date_orderEv
00000000000ff7b0 W _ZNKSt6__ndk18time_getIcNS_19istreambuf_iteratorIcNS_11char_traitsIcEEEEE14do_get_weekdayES4_S4_RNS_8ios_baseERjP2tm
00000000000ffb14 W _ZNKSt6__ndk18time_getIcNS_19istreambuf_iteratorIcNS_11char_traitsIcEEEEE15__get_monthnameERiRS4_S4_RjRKNS_5ctypeIcEE
00000000000ff9c4 W _ZNKSt6__ndk18time_getIcNS_19istreambuf_iteratorIcNS_11char_traitsIcEEEEE16do_get_monthnameES4_S4_RNS_8ios_baseERjP2tm
00000000000ff908 W _ZNKSt6__ndk18time_getIcNS_19istreambuf_iteratorIcNS_11char_traitsIcEEEEE17__get_weekdaynameERiRS4_S4_RjRKNS_5ctypeIcEE
0000000000100660 W _ZNKSt6__ndk18time_getIcNS_19istreambuf_iteratorIcNS_11char_traitsIcEEEEE17__get_white_spaceERS4_S4_RjRKNS_5ctypeIcEE
0000000000100518 W _ZNKSt6__ndk18time_getIcNS_19istreambuf_iteratorIcNS_11char_traitsIcEEEEE18__get_day_year_numERiRS4_S4_RjRKNS_5ctypeIcEE
00000000000ff1ec W _ZNKSt6__ndk18time_getIcNS_19istreambuf_iteratorIcNS_11char_traitsIcEEEEE3getES4_S4_RNS_8ios_baseERjP2tmPKcSC_
00000000000ffd4c W _ZNKSt6__ndk18time_getIcNS_19istreambuf_iteratorIcNS_11char_traitsIcEEEEE6do_getES4_S4_RNS_8ios_baseERjP2tmcc
00000000001003cc W _ZNKSt6__ndk18time_getIcNS_19istreambuf_iteratorIcNS_11char_traitsIcEEEEE9__get_dayERiRS4_S4_RjRKNS_5ctypeIcEE
000000000010229c W _ZNKSt6__ndk18time_getIwNS_19istreambuf_iteratorIwNS_11char_traitsIwEEEEE10__get_hourERiRS4_S4_RjRKNS_5ctypeIwEE
0000000000101b54 W _ZNKSt6__ndk18time_getIwNS_19istreambuf_iteratorIwNS_11char_traitsIwEEEEE10__get_yearERiRS4_S4_RjRKNS_5ctypeIwEE
00000000001026d0 W _ZNKSt6__ndk18time_getIwNS_19istreambuf_iteratorIwNS_11char_traitsIwEEEEE11__get_am_pmERiRS4_S4_RjRKNS_5ctypeIwEE
00000000001023e4 W _ZNKSt6__ndk18time_getIwNS_19istreambuf_iteratorIwNS_11char_traitsIwEEEEE11__get_monthERiRS4_S4_RjRKNS_5ctypeIwEE
00000000001028b8 W _ZNKSt6__ndk18time_getIwNS_19istreambuf_iteratorIwNS_11char_traitsIwEEEEE11__get_year4ERiRS4_S4_RjRKNS_5ctypeIwEE
0000000000101590 W _ZNKSt6__ndk18time_getIwNS_19istreambuf_iteratorIwNS_11char_traitsIwEEEEE11do_get_dateES4_S4_RNS_8ios_baseERjP2tm
0000000000101550 W _ZNKSt6__ndk18time_getIwNS_19istreambuf_iteratorIwNS_11char_traitsIwEEEEE11do_get_timeES4_S4_RNS_8ios_baseERjP2tm
0000000000101a38 W _ZNKSt6__ndk18time_getIwNS_19istreambuf_iteratorIwNS_11char_traitsIwEEEEE11do_get_yearES4_S4_RNS_8ios_baseERjP2tm
0000000000102454 W _ZNKSt6__ndk18time_getIwNS_19istreambuf_iteratorIwNS_11char_traitsIwEEEEE12__get_minuteERiRS4_S4_RjRKNS_5ctypeIwEE
00000000001027e0 W _ZNKSt6__ndk18time_getIwNS_19istreambuf_iteratorIwNS_11char_traitsIwEEEEE12__get_secondERiRS4_S4_RjRKNS_5ctypeIwEE
0000000000102308 W _ZNKSt6__ndk18time_getIwNS_19istreambuf_iteratorIwNS_11char_traitsIwEEEEE13__get_12_hourERiRS4_S4_RjRKNS_5ctypeIwEE
0000000000102908 W _ZNKSt6__ndk18time_getIwNS_19istreambuf_iteratorIwNS_11char_traitsIwEEEEE13__get_percentERS4_S4_RjRKNS_5ctypeIwEE
000000000010284c W _ZNKSt6__ndk18time_getIwNS_19istreambuf_iteratorIwNS_11char_traitsIwEEEEE13__get_weekdayERiRS4_S4_RjRKNS_5ctypeIwEE
0000000000101544 W _ZNKSt6__ndk18time_getIwNS_19istreambuf_iteratorIwNS_11char_traitsIwEEEEE13do_date_orderEv
0000000000101620 W _ZNKSt6__ndk18time_getIwNS_19istreambuf_iteratorIwNS_11char_traitsIwEEEEE14do_get_weekdayES4_S4_RNS_8ios_baseERjP2tm
0000000000101984 W _ZNKSt6__ndk18time_getIwNS_19istreambuf_iteratorIwNS_11char_traitsIwEEEEE15__get_monthnameERiRS4_S4_RjRKNS_5ctypeIwEE
0000000000101834 W _ZNKSt6__ndk18time_getIwNS_19istreambuf_iteratorIwNS_11char_traitsIwEEEEE16do_get_monthnameES4_S4_RNS_8ios_baseERjP2tm
0000000000101778 W _ZNKSt6__ndk18time_getIwNS_19istreambuf_iteratorIwNS_11char_traitsIwEEEEE17__get_weekdaynameERiRS4_S4_RjRKNS_5ctypeIwEE
00000000001024c0 W _ZNKSt6__ndk18time_getIwNS_19istreambuf_iteratorIwNS_11char_traitsIwEEEEE17__get_white_spaceERS4_S4_RjRKNS_5ctypeIwEE
0000000000102378 W _ZNKSt6__ndk18time_getIwNS_19istreambuf_iteratorIwNS_11char_traitsIwEEEEE18__get_day_year_numERiRS4_S4_RjRKNS_5ctypeIwEE
0000000000100fe8 W _ZNKSt6__ndk18time_getIwNS_19istreambuf_iteratorIwNS_11char_traitsIwEEEEE3getES4_S4_RNS_8ios_baseERjP2tmPKwSC_
0000000000101bbc W _ZNKSt6__ndk18time_getIwNS_19istreambuf_iteratorIwNS_11char_traitsIwEEEEE6do_getES4_S4_RNS_8ios_baseERjP2tmcc
000000000010222c W _ZNKSt6__ndk18time_getIwNS_19istreambuf_iteratorIwNS_11char_traitsIwEEEEE9__get_dayERiRS4_S4_RjRKNS_5ctypeIwEE
0000000000102ec4 W _ZNKSt6__ndk18time_putIcNS_19ostreambuf_iteratorIcNS_11char_traitsIcEEEEE3putES4_RNS_8ios_baseEcPK2tmPKcSC_
0000000000103164 W _ZNKSt6__ndk18time_putIcNS_19ostreambuf_iteratorIcNS_11char_traitsIcEEEEE6do_putES4_RNS_8ios_baseEcPK2tmcc
00000000001032a8 W _ZNKSt6__ndk18time_putIwNS_19ostreambuf_iteratorIwNS_11char_traitsIwEEEEE3putES4_RNS_8ios_baseEwPK2tmPKwSC_
0000000000103558 W _ZNKSt6__ndk18time_putIwNS_19ostreambuf_iteratorIwNS_11char_traitsIwEEEEE6do_putES4_RNS_8ios_baseEwPK2tmcc
000000000010543c W _ZNKSt6__ndk19money_getIcNS_19istreambuf_iteratorIcNS_11char_traitsIcEEEEE6do_getES4_S4_bRNS_8ios_baseERjRNS_12basic_stringIcS3_NS_9allocatorIcEEEE
0000000000103d3c W _ZNKSt6__ndk19money_getIcNS_19istreambuf_iteratorIcNS_11char_traitsIcEEEEE6do_getES4_S4_bRNS_8ios_baseERjRe
0000000000107410 W _ZNKSt6__ndk19money_getIwNS_19istreambuf_iteratorIwNS_11char_traitsIwEEEEE6do_getES4_S4_bRNS_8ios_baseERjRNS_12basic_stringIwS3_NS_9allocatorIwEEEE
0000000000105ce4 W _ZNKSt6__ndk19money_getIwNS_19istreambuf_iteratorIwNS_11char_traitsIwEEEEE6do_getES4_S4_bRNS_8ios_baseERjRe
00000000001088a4 W _ZNKSt6__ndk19money_putIcNS_19ostreambuf_iteratorIcNS_11char_traitsIcEEEEE6do_putES4_bRNS_8ios_baseEcRKNS_12basic_stringIcS3_NS_9allocatorIcEEEE
0000000000107c80 W _ZNKSt6__ndk19money_putIcNS_19ostreambuf_iteratorIcNS_11char_traitsIcEEEEE6do_putES4_bRNS_8ios_baseEce
00000000001097f0 W _ZNKSt6__ndk19money_putIwNS_19ostreambuf_iteratorIwNS_11char_traitsIwEEEEE6do_putES4_bRNS_8ios_baseEwRKNS_12basic_stringIwS3_NS_9allocatorIwEEEE
0000000000108c68 W _ZNKSt6__ndk19money_putIwNS_19ostreambuf_iteratorIwNS_11char_traitsIwEEEEE6do_putES4_bRNS_8ios_baseEwe
00000000000a00a4 T _ZNKSt8bad_cast4whatEv
000000000009fd44 T _ZNKSt9bad_alloc4whatEv
000000000009fcb4 T _ZNKSt9exception4whatEv
00000000000a00b4 T _ZNSt10bad_typeidC1Ev
00000000000a00b4 T _ZNSt10bad_typeidC2Ev
00000000000a00d4 T _ZNSt10bad_typeidD0Ev
00000000000a00cc T _ZNSt10bad_typeidD1Ev
00000000000a00cc T _ZNSt10bad_typeidD2Ev
00000000000d4f9c T _ZNSt11logic_errorC1EPKc
00000000000d4f08 T _ZNSt11logic_errorC1ERKNSt6__ndk112basic_stringIcNS0_11char_traitsIcEENS0_9allocatorIcEEEE
00000000000d5024 T _ZNSt11logic_errorC1ERKS_
00000000000d4f9c T _ZNSt11logic_errorC2EPKc
00000000000d4f08 T _ZNSt11logic_errorC2ERKNSt6__ndk112basic_stringIcNS0_11char_traitsIcEENS0_9allocatorIcEEEE
00000000000d5024 T _ZNSt11logic_errorC2ERKS_
000000000009fe14 T _ZNSt11logic_errorD0Ev
000000000009fda8 T _ZNSt11logic_errorD1Ev
000000000009fda8 T _ZNSt11logic_errorD2Ev
00000000000d505c T _ZNSt11logic_erroraSERKS_
000000000009ffa0 T _ZNSt11range_errorD0Ev
000000000009fe4c T _ZNSt11range_errorD1Ev
000000000009fe4c T _ZNSt11range_errorD2Ev
000000000009fef0 T _ZNSt12domain_errorD0Ev
000000000009fda8 T _ZNSt12domain_errorD1Ev
000000000009fda8 T _ZNSt12domain_errorD2Ev
00000000000d1880 T _ZNSt12experimental19bad_optional_accessD0Ev
00000000000d1878 T _ZNSt12experimental19bad_optional_accessD1Ev
00000000000d1878 T _ZNSt12experimental19bad_optional_accessD2Ev
000000000009ff48 T _ZNSt12length_errorD0Ev
000000000009fda8 T _ZNSt12length_errorD1Ev
000000000009fda8 T _ZNSt12length_errorD2Ev
000000000009ff74 T _ZNSt12out_of_rangeD0Ev
000000000009fda8 T _ZNSt12out_of_rangeD1Ev
000000000009fda8 T _ZNSt12out_of_rangeD2Ev
000000000009fcc4 T _ZNSt13bad_exceptionD0Ev
000000000009fc80 T _ZNSt13bad_exceptionD1Ev
000000000009fc80 T _ZNSt13bad_exceptionD2Ev
00000000000ccbdc T _ZNSt13exception_ptrC1ERKS_
00000000000ccbdc T _ZNSt13exception_ptrC2ERKS_
00000000000ccbd0 T _ZNSt13exception_ptrD1Ev
00000000000ccbd0 T _ZNSt13exception_ptrD2Ev
00000000000ccbf4 T _ZNSt13exception_ptraSERKS_
00000000000d5160 T _ZNSt13runtime_errorC1EPKc
00000000000d50cc T _ZNSt13runtime_errorC1ERKNSt6__ndk112basic_stringIcNS0_11char_traitsIcEENS0_9allocatorIcEEEE
00000000000d51e8 T _ZNSt13runtime_errorC1ERKS_
00000000000d5160 T _ZNSt13runtime_errorC2EPKc
00000000000d50cc T _ZNSt13runtime_errorC2ERKNSt6__ndk112basic_stringIcNS0_11char_traitsIcEENS0_9allocatorIcEEEE
00000000000d51e8 T _ZNSt13runtime_errorC2ERKS_
000000000009feb8 T _ZNSt13runtime_errorD0Ev
000000000009fe4c T _ZNSt13runtime_errorD1Ev
000000000009fe4c T _ZNSt13runtime_errorD2Ev
00000000000d5220 T _ZNSt13runtime_erroraSERKS_
000000000009ffcc T _ZNSt14overflow_errorD0Ev
000000000009fe4c T _ZNSt14overflow_errorD1Ev
000000000009fe4c T _ZNSt14overflow_errorD2Ev
000000000009fff8 T _ZNSt15underflow_errorD0Ev
000000000009fe4c T _ZNSt15underflow_errorD1Ev
000000000009fe4c T _ZNSt15underflow_errorD2Ev
000000000009ff1c T _ZNSt16invalid_argumentD0Ev
000000000009fda8 T _ZNSt16invalid_argumentD1Ev
000000000009fda8 T _ZNSt16invalid_argumentD2Ev
00000000000ccc44 T _ZNSt16nested_exceptionC1Ev
00000000000ccc44 T _ZNSt16nested_exceptionC2Ev
00000000000cccc4 T _ZNSt16nested_exceptionD0Ev
00000000000cccac T _ZNSt16nested_exceptionD1Ev
00000000000cccac T _ZNSt16nested_exceptionD2Ev
00000000000d183c T _ZNSt19bad_optional_accessD0Ev
00000000000d1834 T _ZNSt19bad_optional_accessD1Ev
00000000000d1834 T _ZNSt19bad_optional_accessD2Ev
000000000009fd54 T _ZNSt20bad_array_new_lengthC1Ev
000000000009fd54 T _ZNSt20bad_array_new_lengthC2Ev
000000000009fd6c T _ZNSt20bad_array_new_lengthD0Ev
000000000009fc80 T _ZNSt20bad_array_new_lengthD1Ev
000000000009fc80 T _ZNSt20bad_array_new_lengthD2Ev
000000000011c474 T _ZNSt6__ndk110__time_getC1EPKc
000000000011c540 T _ZNSt6__ndk110__time_getC1ERKNS_12basic_stringIcNS_11char_traitsIcEENS_9allocatorIcEEEE
000000000011c474 T _ZNSt6__ndk110__time_getC2EPKc
000000000011c540 T _ZNSt6__ndk110__time_getC2ERKNS_12basic_stringIcNS_11char_traitsIcEENS_9allocatorIcEEEE
000000000011c5e0 T _ZNSt6__ndk110__time_getD1Ev
000000000011c5e0 T _ZNSt6__ndk110__time_getD2Ev
000000000011fd54 T _ZNSt6__ndk110__time_putC1EPKc
000000000011fe20 T _ZNSt6__ndk110__time_putC1ERKNS_12basic_stringIcNS_11char_traitsIcEENS_9allocatorIcEEEE
000000000011fd54 T _ZNSt6__ndk110__time_putC2EPKc
000000000011fe20 T _ZNSt6__ndk110__time_putC2ERKNS_12basic_stringIcNS_11char_traitsIcEENS_9allocatorIcEEEE
000000000011fec0 T _ZNSt6__ndk110__time_putD1Ev
000000000011fec0 T _ZNSt6__ndk110__time_putD2Ev
00000000000772b8 R _ZNSt6__ndk110ctype_base5alnumE
0000000000077290 R _ZNSt6__ndk110ctype_base5alphaE
00000000000772b0 R _ZNSt6__ndk110ctype_base5blankE
0000000000077278 R _ZNSt6__ndk110ctype_base5cntrlE
0000000000077298 R _ZNSt6__ndk110ctype_base5digitE
00000000000772c0 R _ZNSt6__ndk110ctype_base5graphE
0000000000077288 R _ZNSt6__ndk110ctype_base5lowerE
0000000000077270 R _ZNSt6__ndk110ctype_base5printE
00000000000772a0 R _ZNSt6__ndk110ctype_base5punctE
0000000000077268 R _ZNSt6__ndk110ctype_base5spaceE
0000000000077280 R _ZNSt6__ndk110ctype_base5upperE
00000000000772a8 R _ZNSt6__ndk110ctype_base6xdigitE
0000000000125d9c T _ZNSt6__ndk110istrstreamD0Ev
0000000000125cd8 T _ZNSt6__ndk110istrstreamD1Ev
0000000000125c8c T _ZNSt6__ndk110istrstreamD2Ev
000000000014d508 V _ZNSt6__ndk110moneypunctIcLb0EE2idE
0000000000077244 V _ZNSt6__ndk110moneypunctIcLb0EE4intlE
000000000014d518 V _ZNSt6__ndk110moneypunctIcLb1EE2idE
0000000000077245 V _ZNSt6__ndk110moneypunctIcLb1EE4intlE
000000000014d528 V _ZNSt6__ndk110moneypunctIwLb0EE2idE
0000000000077246 V _ZNSt6__ndk110moneypunctIwLb0EE4intlE
000000000014d538 V _ZNSt6__ndk110moneypunctIwLb1EE2idE
0000000000077247 V _ZNSt6__ndk110moneypunctIwLb1EE4intlE
0000000000125f80 T _ZNSt6__ndk110ostrstreamD0Ev
0000000000125ebc T _ZNSt6__ndk110ostrstreamD1Ev
0000000000125e70 T _ZNSt6__ndk110ostrstreamD2Ev
00000000000dd278 T _ZNSt6__ndk110to_wstringEd
00000000000dd454 T _ZNSt6__ndk110to_wstringEe
00000000000dd098 T _ZNSt6__ndk110to_wstringEf
00000000000dbd98 T _ZNSt6__ndk110to_wstringEi
00000000000dc520 T _ZNSt6__ndk110to_wstringEj
00000000000dbf78 T _ZNSt6__ndk110to_wstringEl
00000000000dc68c T _ZNSt6__ndk110to_wstringEm
00000000000dc24c T _ZNSt6__ndk110to_wstringEx
00000000000dc900 T _ZNSt6__ndk110to_wstringEy
00000000000ca94c T _ZNSt6__ndk111__call_onceERVmPvPFvS2_E
00000000001059c4 W _ZNSt6__ndk111__money_getIcE13__gather_infoEbRKNS_6localeERNS_10money_base7patternERcS8_RNS_12basic_stringIcNS_11char_traitsIcEENS_9allocatorIcEEEESF_SF_SF_Ri
0000000000107a58 W _ZNSt6__ndk111__money_getIwE13__gather_infoEbRKNS_6localeERNS_10money_base7patternERwS8_RNS_12basic_stringIcNS_11char_traitsIcEENS_9allocatorIcEEEERNS9_IwNSA_IwEENSC_IwEEEESJ_SJ_Ri
0000000000108210 W _ZNSt6__ndk111__money_putIcE13__gather_infoEbbRKNS_6localeERNS_10money_base7patternERcS8_RNS_12basic_stringIcNS_11char_traitsIcEENS_9allocatorIcEEEESF_SF_Ri
0000000000108438 W _ZNSt6__ndk111__money_putIcE8__formatEPcRS2_S3_jPKcS5_RKNS_5ctypeIcEEbRKNS_10money_base7patternEccRKNS_12basic_stringIcNS_11char_traitsIcEENS_9allocatorIcEEEESL_SL_i
0000000000109138 W _ZNSt6__ndk111__money_putIwE13__gather_infoEbbRKNS_6localeERNS_10money_base7patternERwS8_RNS_12basic_stringIcNS_11char_traitsIcEENS_9allocatorIcEEEERNS9_IwNSA_IwEENSC_IwEEEESJ_Ri
0000000000109360 W _ZNSt6__ndk111__money_putIwE8__formatEPwRS2_S3_jPKwS5_RKNS_5ctypeIwEEbRKNS_10money_base7patternEwwRKNS_12basic_stringIcNS_11char_traitsIcEENS_9allocatorIcEEEERKNSE_IwNSF_IwEENSH_IwEEEESQ_i
0000000000124fc4 T _ZNSt6__ndk111regex_errorC1ENS_15regex_constants10error_typeE
0000000000124fc4 T _ZNSt6__ndk111regex_errorC2ENS_15regex_constants10error_typeE
0000000000125038 T _ZNSt6__ndk111regex_errorD0Ev
0000000000125030 T _ZNSt6__ndk111regex_errorD1Ev
0000000000125030 T _ZNSt6__ndk111regex_errorD2Ev
00000000000e10f4 T _ZNSt6__ndk111this_thread9sleep_forERKNS_6chrono8durationIxNS_5ratioILl1ELl1000000000EEEEE
00000000000e06f4 T _ZNSt6__ndk111timed_mutex4lockEv
00000000000e0820 T _ZNSt6__ndk111timed_mutex6unlockEv
00000000000e07b0 T _ZNSt6__ndk111timed_mutex8try_lockEv
00000000000e0684 T _ZNSt6__ndk111timed_mutexC1Ev
00000000000e0684 T _ZNSt6__ndk111timed_mutexC2Ev
00000000000e06a0 T _ZNSt6__ndk111timed_mutexD1Ev
00000000000e06a0 T _ZNSt6__ndk111timed_mutexD2Ev
0000000000104080 T _ZNSt6__ndk112__do_nothingEPv
00000000000d0a40 T _ZNSt6__ndk112__get_sp_mutEPKv
00000000000cffbc T _ZNSt6__ndk112__next_primeEm
0000000000147878 B _ZNSt6__ndk112__rs_default4__c_E
00000000000d18e0 T _ZNSt6__ndk112__rs_defaultC1ERKS0_
00000000000d18ac T _ZNSt6__ndk112__rs_defaultC1Ev
00000000000d18e0 T _ZNSt6__ndk112__rs_defaultC2ERKS0_
00000000000d18ac T _ZNSt6__ndk112__rs_defaultC2Ev
00000000000d18fc T _ZNSt6__ndk112__rs_defaultD1Ev
00000000000d18fc T _ZNSt6__ndk112__rs_defaultD2Ev
00000000000d193c T _ZNSt6__ndk112__rs_defaultclEv
00000000000d0790 T _ZNSt6__ndk112bad_weak_ptrD0Ev
00000000000d0788 T _ZNSt6__ndk112bad_weak_ptrD1Ev
00000000000d0788 T _ZNSt6__ndk112bad_weak_ptrD2Ev
00000000000d55bc W _ZNSt6__ndk112basic_stringIcNS_11char_traitsIcEENS_9allocatorIcEEE21__grow_by_and_replaceEmmmmmmPKc
00000000000d70bc W _ZNSt6__ndk112basic_stringIcNS_11char_traitsIcEENS_9allocatorIcEEE2atEm
00000000000765e0 V _ZNSt6__ndk112basic_stringIcNS_11char_traitsIcEENS_9allocatorIcEEE4nposE
00000000000d6da0 W _ZNSt6__ndk112basic_stringIcNS_11char_traitsIcEENS_9allocatorIcEEE5eraseEmm
00000000000d5c60 W _ZNSt6__ndk112basic_stringIcNS_11char_traitsIcEENS_9allocatorIcEEE6__initEPKcm
00000000000d57c0 W _ZNSt6__ndk112basic_stringIcNS_11char_traitsIcEENS_9allocatorIcEEE6__initEPKcmm
00000000000d66ac W _ZNSt6__ndk112basic_stringIcNS_11char_traitsIcEENS_9allocatorIcEEE6__initEmc
00000000000d74e4 W _ZNSt6__ndk112basic_stringIcNS_11char_traitsIcEENS_9allocatorIcEEE6appendEPKc
00000000000d632c W _ZNSt6__ndk112basic_stringIcNS_11char_traitsIcEENS_9allocatorIcEEE6appendEPKcm
00000000000d6ec8 W _ZNSt6__ndk112basic_stringIcNS_11char_traitsIcEENS_9allocatorIcEEE6appendERKS5_mm
00000000000d6a88 W _ZNSt6__ndk112basic_stringIcNS_11char_traitsIcEENS_9allocatorIcEEE6appendEmc
00000000000d7100 W _ZNSt6__ndk112basic_stringIcNS_11char_traitsIcEENS_9allocatorIcEEE6assignEPKc
00000000000d61c0 W _ZNSt6__ndk112basic_stringIcNS_11char_traitsIcEENS_9allocatorIcEEE6assignEPKcm
00000000000d64b4 W _ZNSt6__ndk112basic_stringIcNS_11char_traitsIcEENS_9allocatorIcEEE6assignERKS5_mm
00000000000d6c64 W _ZNSt6__ndk112basic_stringIcNS_11char_traitsIcEENS_9allocatorIcEEE6assignEmc
00000000000d7570 W _ZNSt6__ndk112basic_stringIcNS_11char_traitsIcEENS_9allocatorIcEEE6insertENS_11__wrap_iterIPKcEEc
00000000000d674c W _ZNSt6__ndk112basic_stringIcNS_11char_traitsIcEENS_9allocatorIcEEE6insertEmPKc
00000000000d5d44 W _ZNSt6__ndk112basic_stringIcNS_11char_traitsIcEENS_9allocatorIcEEE6insertEmPKcm
00000000000d7770 W _ZNSt6__ndk112basic_stringIcNS_11char_traitsIcEENS_9allocatorIcEEE6insertEmRKS5_mm
00000000000d5a6c W _ZNSt6__ndk112basic_stringIcNS_11char_traitsIcEENS_9allocatorIcEEE6insertEmmc
00000000000d7724 W _ZNSt6__ndk112basic_stringIcNS_11char_traitsIcEENS_9allocatorIcEEE6resizeEmc
00000000000d587c W _ZNSt6__ndk112basic_stringIcNS_11char_traitsIcEENS_9allocatorIcEEE7replaceEmmPKc
00000000000d52e4 W _ZNSt6__ndk112basic_stringIcNS_11char_traitsIcEENS_9allocatorIcEEE7replaceEmmPKcm
00000000000d7520 W _ZNSt6__ndk112basic_stringIcNS_11char_traitsIcEENS_9allocatorIcEEE7replaceEmmRKS5_mm
00000000000d5fb4 W _ZNSt6__ndk112basic_stringIcNS_11char_traitsIcEENS_9allocatorIcEEE7replaceEmmmc
00000000000d61c8 W _ZNSt6__ndk112basic_stringIcNS_11char_traitsIcEENS_9allocatorIcEEE7reserveEm
00000000000d6834 W _ZNSt6__ndk112basic_stringIcNS_11char_traitsIcEENS_9allocatorIcEEE9__grow_byEmmmmmm
00000000000d6958 W _ZNSt6__ndk112basic_stringIcNS_11char_traitsIcEENS_9allocatorIcEEE9push_backEc
00000000000d5850 W _ZNSt6__ndk112basic_stringIcNS_11char_traitsIcEENS_9allocatorIcEEEC1ERKS5_
00000000000d58d0 W _ZNSt6__ndk112basic_stringIcNS_11char_traitsIcEENS_9allocatorIcEEEC1ERKS5_RKS4_
00000000000d6574 W _ZNSt6__ndk112basic_stringIcNS_11char_traitsIcEENS_9allocatorIcEEEC1ERKS5_mmRKS4_
00000000000d5850 W _ZNSt6__ndk112basic_stringIcNS_11char_traitsIcEENS_9allocatorIcEEEC2ERKS5_
00000000000d58d0 W _ZNSt6__ndk112basic_stringIcNS_11char_traitsIcEENS_9allocatorIcEEEC2ERKS5_RKS4_
00000000000d6574 W _ZNSt6__ndk112basic_stringIcNS_11char_traitsIcEENS_9allocatorIcEEEC2ERKS5_mmRKS4_
00000000000d59b4 W _ZNSt6__ndk112basic_stringIcNS_11char_traitsIcEENS_9allocatorIcEEED1Ev
00000000000d59b4 W _ZNSt6__ndk112basic_stringIcNS_11char_traitsIcEENS_9allocatorIcEEED2Ev
00000000000d72c4 W _ZNSt6__ndk112basic_stringIcNS_11char_traitsIcEENS_9allocatorIcEEEaSERKS5_
00000000000d5c24 W _ZNSt6__ndk112basic_stringIcNS_11char_traitsIcEENS_9allocatorIcEEEaSEc
00000000000d79b0 W _ZNSt6__ndk112basic_stringIwNS_11char_traitsIwEENS_9allocatorIwEEE21__grow_by_and_replaceEmmmmmmPKw
00000000000d9828 W _ZNSt6__ndk112basic_stringIwNS_11char_traitsIwEENS_9allocatorIwEEE2atEm
00000000000765e8 V _ZNSt6__ndk112basic_stringIwNS_11char_traitsIwEENS_9allocatorIwEEE4nposE
00000000000d93bc W _ZNSt6__ndk112basic_stringIwNS_11char_traitsIwEENS_9allocatorIwEEE5eraseEmm
00000000000d8210 W _ZNSt6__ndk112basic_stringIwNS_11char_traitsIwEENS_9allocatorIwEEE6__initEPKwm
00000000000d7be4 W _ZNSt6__ndk112basic_stringIwNS_11char_traitsIwEENS_9allocatorIwEEE6__initEPKwmm
00000000000d8bf4 W _ZNSt6__ndk112basic_stringIwNS_11char_traitsIwEENS_9allocatorIwEEE6__initEmw
00000000000d9c2c W _ZNSt6__ndk112basic_stringIwNS_11char_traitsIwEENS_9allocatorIwEEE6appendEPKw
00000000000d88e4 W _ZNSt6__ndk112basic_stringIwNS_11char_traitsIwEENS_9allocatorIwEEE6appendEPKwm
00000000000d94ec W _ZNSt6__ndk112basic_stringIwNS_11char_traitsIwEENS_9allocatorIwEEE6appendERKS5_mm
00000000000d902c W _ZNSt6__ndk112basic_stringIwNS_11char_traitsIwEENS_9allocatorIwEEE6appendEmw
00000000000d9870 W _ZNSt6__ndk112basic_stringIwNS_11char_traitsIwEENS_9allocatorIwEEE6assignEPKw
00000000000d863c W _ZNSt6__ndk112basic_stringIwNS_11char_traitsIwEENS_9allocatorIwEEE6assignEPKwm
00000000000d89d4 W _ZNSt6__ndk112basic_stringIwNS_11char_traitsIwEENS_9allocatorIwEEE6assignERKS5_mm
00000000000d9248 W _ZNSt6__ndk112basic_stringIwNS_11char_traitsIwEENS_9allocatorIwEEE6assignEmw
00000000000d9d64 W _ZNSt6__ndk112basic_stringIwNS_11char_traitsIwEENS_9allocatorIwEEE6insertENS_11__wrap_iterIPKwEEw
00000000000d8ce4 W _ZNSt6__ndk112basic_stringIwNS_11char_traitsIwEENS_9allocatorIwEEE6insertEmPKw
00000000000d8310 W _ZNSt6__ndk112basic_stringIwNS_11char_traitsIwEENS_9allocatorIwEEE6insertEmPKwm
00000000000d9eac W _ZNSt6__ndk112basic_stringIwNS_11char_traitsIwEENS_9allocatorIwEEE6insertEmRKS5_mm
00000000000d7f58 W _ZNSt6__ndk112basic_stringIwNS_11char_traitsIwEENS_9allocatorIwEEE6insertEmmw
00000000000d9e60 W _ZNSt6__ndk112basic_stringIwNS_11char_traitsIwEENS_9allocatorIwEEE6resizeEmw
00000000000d7d60 W _ZNSt6__ndk112basic_stringIwNS_11char_traitsIwEENS_9allocatorIwEEE7replaceEmmPKw
00000000000d77c0 W _ZNSt6__ndk112basic_stringIwNS_11char_traitsIwEENS_9allocatorIwEEE7replaceEmmPKwm
00000000000d9d14 W _ZNSt6__ndk112basic_stringIwNS_11char_traitsIwEENS_9allocatorIwEEE7replaceEmmRKS5_mm
00000000000d84bc W _ZNSt6__ndk112basic_stringIwNS_11char_traitsIwEENS_9allocatorIwEEE7replaceEmmmw
00000000000d8720 W _ZNSt6__ndk112basic_stringIwNS_11char_traitsIwEENS_9allocatorIwEEE7reserveEm
00000000000d8ddc W _ZNSt6__ndk112basic_stringIwNS_11char_traitsIwEENS_9allocatorIwEEE9__grow_byEmmmmmm
00000000000d8f04 W _ZNSt6__ndk112basic_stringIwNS_11char_traitsIwEENS_9allocatorIwEEE9push_backEw
00000000000d7ca4 W _ZNSt6__ndk112basic_stringIwNS_11char_traitsIwEENS_9allocatorIwEEEC1ERKS5_
00000000000d7db4 W _ZNSt6__ndk112basic_stringIwNS_11char_traitsIwEENS_9allocatorIwEEEC1ERKS5_RKS4_
00000000000d8a9c W _ZNSt6__ndk112basic_stringIwNS_11char_traitsIwEENS_9allocatorIwEEEC1ERKS5_mmRKS4_
00000000000d7ca4 W _ZNSt6__ndk112basic_stringIwNS_11char_traitsIwEENS_9allocatorIwEEEC2ERKS5_
00000000000d7db4 W _ZNSt6__ndk112basic_stringIwNS_11char_traitsIwEENS_9allocatorIwEEEC2ERKS5_RKS4_
00000000000d8a9c W _ZNSt6__ndk112basic_stringIwNS_11char_traitsIwEENS_9allocatorIwEEEC2ERKS5_mmRKS4_
00000000000d7e90 W _ZNSt6__ndk112basic_stringIwNS_11char_traitsIwEENS_9allocatorIwEEED1Ev
00000000000d7e90 W _ZNSt6__ndk112basic_stringIwNS_11char_traitsIwEENS_9allocatorIwEEED2Ev
00000000000d9a5c W _ZNSt6__ndk112basic_stringIwNS_11char_traitsIwEENS_9allocatorIwEEEaSERKS5_
00000000000d81dc W _ZNSt6__ndk112basic_stringIwNS_11char_traitsIwEENS_9allocatorIwEEEaSEw
00000000001147bc T _ZNSt6__ndk112ctype_bynameIcEC1EPKcm
00000000001148e4 T _ZNSt6__ndk112ctype_bynameIcEC1ERKNS_12basic_stringIcNS_11char_traitsIcEENS_9allocatorIcEEEEm
00000000001147bc T _ZNSt6__ndk112ctype_bynameIcEC2EPKcm
00000000001148e4 T _ZNSt6__ndk112ctype_bynameIcEC2ERKNS_12basic_stringIcNS_11char_traitsIcEENS_9allocatorIcEEEEm
00000000001149c8 T _ZNSt6__ndk112ctype_bynameIcED0Ev
000000000011e7f0 T _ZNSt6__ndk112ctype_bynameIcED1Ev
000000000011e7f0 T _ZNSt6__ndk112ctype_bynameIcED2Ev
0000000000114d84 T _ZNSt6__ndk112ctype_bynameIwEC1EPKcm
0000000000114e9c T _ZNSt6__ndk112ctype_bynameIwEC1ERKNS_12basic_stringIcNS_11char_traitsIcEENS_9allocatorIcEEEEm
0000000000114d84 T _ZNSt6__ndk112ctype_bynameIwEC2EPKcm
0000000000114e9c T _ZNSt6__ndk112ctype_bynameIwEC2ERKNS_12basic_stringIcNS_11char_traitsIcEENS_9allocatorIcEEEEm
0000000000114f70 T _ZNSt6__ndk112ctype_bynameIwED0Ev
000000000011f29c T _ZNSt6__ndk112ctype_bynameIwED1Ev
000000000011f29c T _ZNSt6__ndk112ctype_bynameIwED2Ev
00000000000df758 T _ZNSt6__ndk112future_errorC1ENS_10error_codeE
00000000000df758 T _ZNSt6__ndk112future_errorC2ENS_10error_codeE
00000000000df7ec T _ZNSt6__ndk112future_errorD0Ev
00000000000df7e4 T _ZNSt6__ndk112future_errorD1Ev
00000000000df7e4 T _ZNSt6__ndk112future_errorD2Ev
000000000005891b R _ZNSt6__ndk112placeholders2_1E
000000000005891c R _ZNSt6__ndk112placeholders2_2E
000000000005891d R _ZNSt6__ndk112placeholders2_3E
000000000005891e R _ZNSt6__ndk112placeholders2_4E
000000000005891f R _ZNSt6__ndk112placeholders2_5E
0000000000058920 R _ZNSt6__ndk112placeholders2_6E
0000000000058921 R _ZNSt6__ndk112placeholders2_7E
0000000000058922 R _ZNSt6__ndk112placeholders2_8E
0000000000058923 R _ZNSt6__ndk112placeholders2_9E
0000000000058924 R _ZNSt6__ndk112placeholders3_10E
0000000000125860 T _ZNSt6__ndk112strstreambuf3strEv
00000000001257dc T _ZNSt6__ndk112strstreambuf4swapERS0_
0000000000125370 T _ZNSt6__ndk112strstreambuf6__initEPclS1_
0000000000125838 T _ZNSt6__ndk112strstreambuf6freezeEb
0000000000125aa4 T _ZNSt6__ndk112strstreambuf7seekoffExNS_8ios_base7seekdirEj
0000000000125be8 T _ZNSt6__ndk112strstreambuf7seekposENS_4fposI9mbstate_tEEj
0000000000125890 T _ZNSt6__ndk112strstreambuf8overflowEi
0000000000125a08 T _ZNSt6__ndk112strstreambuf9pbackfailEi
0000000000125a6c T _ZNSt6__ndk112strstreambuf9underflowEv
0000000000125314 T _ZNSt6__ndk112strstreambufC1EPFPvmEPFvS1_E
0000000000125594 T _ZNSt6__ndk112strstreambufC1EPKal
0000000000125478 T _ZNSt6__ndk112strstreambufC1EPKcl
00000000001256b0 T _ZNSt6__ndk112strstreambufC1EPKhl
00000000001254fc T _ZNSt6__ndk112strstreambufC1EPalS1_
00000000001253e0 T _ZNSt6__ndk112strstreambufC1EPclS1_
0000000000125618 T _ZNSt6__ndk112strstreambufC1EPhlS1_
00000000001252c8 T _ZNSt6__ndk112strstreambufC1El
0000000000125314 T _ZNSt6__ndk112strstreambufC2EPFPvmEPFvS1_E
0000000000125594 T _ZNSt6__ndk112strstreambufC2EPKal
0000000000125478 T _ZNSt6__ndk112strstreambufC2EPKcl
00000000001256b0 T _ZNSt6__ndk112strstreambufC2EPKhl
00000000001254fc T _ZNSt6__ndk112strstreambufC2EPalS1_
00000000001253e0 T _ZNSt6__ndk112strstreambufC2EPclS1_
0000000000125618 T _ZNSt6__ndk112strstreambufC2EPhlS1_
00000000001252c8 T _ZNSt6__ndk112strstreambufC2El
00000000001257b0 T _ZNSt6__ndk112strstreambufD0Ev
0000000000125734 T _ZNSt6__ndk112strstreambufD1Ev
0000000000125734 T _ZNSt6__ndk112strstreambufD2Ev
00000000000de268 T _ZNSt6__ndk112system_errorC1ENS_10error_codeE
00000000000de118 T _ZNSt6__ndk112system_errorC1ENS_10error_codeEPKc
00000000000ddf2c T _ZNSt6__ndk112system_errorC1ENS_10error_codeERKNS_12basic_stringIcNS_11char_traitsIcEENS_9allocatorIcEEEE
00000000000de588 T _ZNSt6__ndk112system_errorC1EiRKNS_14error_categoryE
00000000000de424 T _ZNSt6__ndk112system_errorC1EiRKNS_14error_categoryEPKc
00000000000de318 T _ZNSt6__ndk112system_errorC1EiRKNS_14error_categoryERKNS_12basic_stringIcNS_11char_traitsIcEENS_9allocatorIcEEEE
00000000000de268 T _ZNSt6__ndk112system_errorC2ENS_10error_codeE
00000000000de118 T _ZNSt6__ndk112system_errorC2ENS_10error_codeEPKc
00000000000ddf2c T _ZNSt6__ndk112system_errorC2ENS_10error_codeERKNS_12basic_stringIcNS_11char_traitsIcEENS_9allocatorIcEEEE
00000000000de588 T _ZNSt6__ndk112system_errorC2EiRKNS_14error_categoryE
00000000000de424 T _ZNSt6__ndk112system_errorC2EiRKNS_14error_categoryEPKc
00000000000de318 T _ZNSt6__ndk112system_errorC2EiRKNS_14error_categoryERKNS_12basic_stringIcNS_11char_traitsIcEENS_9allocatorIcEEEE
00000000000de644 T _ZNSt6__ndk112system_errorD0Ev
00000000000de63c T _ZNSt6__ndk112system_errorD1Ev
00000000000de63c T _ZNSt6__ndk112system_errorD2Ev
00000000000ee9f4 W _ZNSt6__ndk113basic_filebufIcNS_11char_traitsIcEEE11__read_modeEv
00000000000eed00 W _ZNSt6__ndk113basic_filebufIcNS_11char_traitsIcEEE12__write_modeEv
00000000000edba0 W _ZNSt6__ndk113basic_filebufIcNS_11char_traitsIcEEE4openEPKcj
00000000000ee300 W _ZNSt6__ndk113basic_filebufIcNS_11char_traitsIcEEE4swapERS3_
00000000000ef004 W _ZNSt6__ndk113basic_filebufIcNS_11char_traitsIcEEE4syncEv
00000000000ee248 W _ZNSt6__ndk113basic_filebufIcNS_11char_traitsIcEEE5closeEv
00000000000ef200 W _ZNSt6__ndk113basic_filebufIcNS_11char_traitsIcEEE5imbueERKNS_6localeE
00000000000eed6c W _ZNSt6__ndk113basic_filebufIcNS_11char_traitsIcEEE6setbufEPcl
00000000000eee9c W _ZNSt6__ndk113basic_filebufIcNS_11char_traitsIcEEE7seekoffExNS_8ios_base7seekdirEj
00000000000eef78 W _ZNSt6__ndk113basic_filebufIcNS_11char_traitsIcEEE7seekposENS_4fposI9mbstate_tEEj
00000000000eeaec W _ZNSt6__ndk113basic_filebufIcNS_11char_traitsIcEEE8overflowEi
00000000000eea88 W _ZNSt6__ndk113basic_filebufIcNS_11char_traitsIcEEE9pbackfailEi
00000000000ee75c W _ZNSt6__ndk113basic_filebufIcNS_11char_traitsIcEEE9underflowEv
00000000000edfe4 W _ZNSt6__ndk113basic_filebufIcNS_11char_traitsIcEEEC1EOS3_
00000000000edeac W _ZNSt6__ndk113basic_filebufIcNS_11char_traitsIcEEEC1Ev
00000000000edfe4 W _ZNSt6__ndk113basic_filebufIcNS_11char_traitsIcEEEC2EOS3_
00000000000edeac W _ZNSt6__ndk113basic_filebufIcNS_11char_traitsIcEEEC2Ev
00000000000ee2d4 W _ZNSt6__ndk113basic_filebufIcNS_11char_traitsIcEEED0Ev
00000000000ee174 W _ZNSt6__ndk113basic_filebufIcNS_11char_traitsIcEEED1Ev
00000000000ee174 W _ZNSt6__ndk113basic_filebufIcNS_11char_traitsIcEEED2Ev
00000000000e4568 W _ZNSt6__ndk113basic_istreamIcNS_11char_traitsIcEEE3getEPcl
00000000000e460c W _ZNSt6__ndk113basic_istreamIcNS_11char_traitsIcEEE3getEPclc
00000000000e47e0 W _ZNSt6__ndk113basic_istreamIcNS_11char_traitsIcEEE3getERNS_15basic_streambufIcS2_EE
00000000000e4874 W _ZNSt6__ndk113basic_istreamIcNS_11char_traitsIcEEE3getERNS_15basic_streambufIcS2_EEc
00000000000e452c W _ZNSt6__ndk113basic_istreamIcNS_11char_traitsIcEEE3getERc
00000000000e4400 W _ZNSt6__ndk113basic_istreamIcNS_11char_traitsIcEEE3getEv
00000000000e4e94 W _ZNSt6__ndk113basic_istreamIcNS_11char_traitsIcEEE4peekEv
00000000000e4fa8 W _ZNSt6__ndk113basic_istreamIcNS_11char_traitsIcEEE4readEPcl
00000000000e2e38 W _ZNSt6__ndk113basic_istreamIcNS_11char_traitsIcEEE4swapERS3_
00000000000e544c W _ZNSt6__ndk113basic_istreamIcNS_11char_traitsIcEEE4syncEv
00000000000e5630 W _ZNSt6__ndk113basic_istreamIcNS_11char_traitsIcEEE5seekgENS_4fposI9mbstate_tEE
00000000000e5740 W _ZNSt6__ndk113basic_istreamIcNS_11char_traitsIcEEE5seekgExNS_8ios_base7seekdirE
00000000000e5534 W _ZNSt6__ndk113basic_istreamIcNS_11char_traitsIcEEE5tellgEv
00000000000e5324 W _ZNSt6__ndk113basic_istreamIcNS_11char_traitsIcEEE5ungetEv
00000000000e4ccc W _ZNSt6__ndk113basic_istreamIcNS_11char_traitsIcEEE6ignoreEli
00000000000e2ea4 W _ZNSt6__ndk113basic_istreamIcNS_11char_traitsIcEEE6sentryC1ERS3_b
00000000000e2ea4 W _ZNSt6__ndk113basic_istreamIcNS_11char_traitsIcEEE6sentryC2ERS3_b
00000000000e49e4 W _ZNSt6__ndk113basic_istreamIcNS_11char_traitsIcEEE7getlineEPcl
00000000000e4a88 W _ZNSt6__ndk113basic_istreamIcNS_11char_traitsIcEEE7getlineEPclc
00000000000e51f0 W _ZNSt6__ndk113basic_istreamIcNS_11char_traitsIcEEE7putbackEc
00000000000e50a0 W _ZNSt6__ndk113basic_istreamIcNS_11char_traitsIcEEE8readsomeEPcl
00000000000e2d3c W _ZNSt6__ndk113basic_istreamIcNS_11char_traitsIcEEEC1EPNS_15basic_streambufIcS2_EE
00000000000e2ce0 W _ZNSt6__ndk113basic_istreamIcNS_11char_traitsIcEEEC2EPNS_15basic_streambufIcS2_EE
00000000000e2dd0 W _ZNSt6__ndk113basic_istreamIcNS_11char_traitsIcEEED0Ev
00000000000e2dac W _ZNSt6__ndk113basic_istreamIcNS_11char_traitsIcEEED1Ev
00000000000e2da4 W _ZNSt6__ndk113basic_istreamIcNS_11char_traitsIcEEED2Ev
00000000000e31b8 W _ZNSt6__ndk113basic_istreamIcNS_11char_traitsIcEEErsEPFRNS_8ios_baseES5_E
00000000000e3180 W _ZNSt6__ndk113basic_istreamIcNS_11char_traitsIcEEErsEPFRNS_9basic_iosIcS2_EES6_E
00000000000e3174 W _ZNSt6__ndk113basic_istreamIcNS_11char_traitsIcEEErsEPFRS3_S4_E
00000000000e31f0 W _ZNSt6__ndk113basic_istreamIcNS_11char_traitsIcEEErsEPNS_15basic_streambufIcS2_EE
00000000000e42c8 W _ZNSt6__ndk113basic_istreamIcNS_11char_traitsIcEEErsERPv
00000000000e33a4 W _ZNSt6__ndk113basic_istreamIcNS_11char_traitsIcEEErsERb
00000000000e4058 W _ZNSt6__ndk113basic_istreamIcNS_11char_traitsIcEEErsERd
00000000000e4190 W _ZNSt6__ndk113basic_istreamIcNS_11char_traitsIcEEErsERe
00000000000e3f20 W _ZNSt6__ndk113basic_istreamIcNS_11char_traitsIcEEErsERf
00000000000e378c W _ZNSt6__ndk113basic_istreamIcNS_11char_traitsIcEEErsERi
00000000000e3908 W _ZNSt6__ndk113basic_istreamIcNS_11char_traitsIcEEErsERj
00000000000e3a40 W _ZNSt6__ndk113basic_istreamIcNS_11char_traitsIcEEErsERl
00000000000e3b78 W _ZNSt6__ndk113basic_istreamIcNS_11char_traitsIcEEErsERm
00000000000e34dc W _ZNSt6__ndk113basic_istreamIcNS_11char_traitsIcEEErsERs
00000000000e3654 W _ZNSt6__ndk113basic_istreamIcNS_11char_traitsIcEEErsERt
00000000000e3cb0 W _ZNSt6__ndk113basic_istreamIcNS_11char_traitsIcEEErsERx
00000000000e3de8 W _ZNSt6__ndk113basic_istreamIcNS_11char_traitsIcEEErsERy
00000000000e992c W _ZNSt6__ndk113basic_istreamIwNS_11char_traitsIwEEE3getEPwl
00000000000e99d0 W _ZNSt6__ndk113basic_istreamIwNS_11char_traitsIwEEE3getEPwlw
00000000000e9ba0 W _ZNSt6__ndk113basic_istreamIwNS_11char_traitsIwEEE3getERNS_15basic_streambufIwS2_EE
00000000000e9c34 W _ZNSt6__ndk113basic_istreamIwNS_11char_traitsIwEEE3getERNS_15basic_streambufIwS2_EEw
00000000000e98f0 W _ZNSt6__ndk113basic_istreamIwNS_11char_traitsIwEEE3getERw
00000000000e97c4 W _ZNSt6__ndk113basic_istreamIwNS_11char_traitsIwEEE3getEv
00000000000ea22c W _ZNSt6__ndk113basic_istreamIwNS_11char_traitsIwEEE4peekEv
00000000000ea340 W _ZNSt6__ndk113basic_istreamIwNS_11char_traitsIwEEE4readEPwl
00000000000e81d0 W _ZNSt6__ndk113basic_istreamIwNS_11char_traitsIwEEE4swapERS3_
00000000000ea800 W _ZNSt6__ndk113basic_istreamIwNS_11char_traitsIwEEE4syncEv
00000000000ea9e4 W _ZNSt6__ndk113basic_istreamIwNS_11char_traitsIwEEE5seekgENS_4fposI9mbstate_tEE
00000000000eaaf4 W _ZNSt6__ndk113basic_istreamIwNS_11char_traitsIwEEE5seekgExNS_8ios_base7seekdirE
00000000000ea8e8 W _ZNSt6__ndk113basic_istreamIwNS_11char_traitsIwEEE5tellgEv
00000000000ea6cc W _ZNSt6__ndk113basic_istreamIwNS_11char_traitsIwEEE5ungetEv
00000000000ea078 W _ZNSt6__ndk113basic_istreamIwNS_11char_traitsIwEEE6ignoreElj
00000000000e823c W _ZNSt6__ndk113basic_istreamIwNS_11char_traitsIwEEE6sentryC1ERS3_b
00000000000e823c W _ZNSt6__ndk113basic_istreamIwNS_11char_traitsIwEEE6sentryC2ERS3_b
00000000000e9d98 W _ZNSt6__ndk113basic_istreamIwNS_11char_traitsIwEEE7getlineEPwl
00000000000e9e3c W _ZNSt6__ndk113basic_istreamIwNS_11char_traitsIwEEE7getlineEPwlw
00000000000ea58c W _ZNSt6__ndk113basic_istreamIwNS_11char_traitsIwEEE7putbackEw
00000000000ea438 W _ZNSt6__ndk113basic_istreamIwNS_11char_traitsIwEEE8readsomeEPwl
00000000000e80d4 W _ZNSt6__ndk113basic_istreamIwNS_11char_traitsIwEEEC1EPNS_15basic_streambufIwS2_EE
00000000000e8078 W _ZNSt6__ndk113basic_istreamIwNS_11char_traitsIwEEEC2EPNS_15basic_streambufIwS2_EE
00000000000e8168 W _ZNSt6__ndk113basic_istreamIwNS_11char_traitsIwEEED0Ev
00000000000e8144 W _ZNSt6__ndk113basic_istreamIwNS_11char_traitsIwEEED1Ev
00000000000e813c W _ZNSt6__ndk113basic_istreamIwNS_11char_traitsIwEEED2Ev
00000000000e8580 W _ZNSt6__ndk113basic_istreamIwNS_11char_traitsIwEEErsEPFRNS_8ios_baseES5_E
00000000000e8548 W _ZNSt6__ndk113basic_istreamIwNS_11char_traitsIwEEErsEPFRNS_9basic_iosIwS2_EES6_E
00000000000e853c W _ZNSt6__ndk113basic_istreamIwNS_11char_traitsIwEEErsEPFRS3_S4_E
00000000000e85b8 W _ZNSt6__ndk113basic_istreamIwNS_11char_traitsIwEEErsEPNS_15basic_streambufIwS2_EE
00000000000e968c W _ZNSt6__ndk113basic_istreamIwNS_11char_traitsIwEEErsERPv
00000000000e8768 W _ZNSt6__ndk113basic_istreamIwNS_11char_traitsIwEEErsERb
00000000000e941c W _ZNSt6__ndk113basic_istreamIwNS_11char_traitsIwEEErsERd
00000000000e9554 W _ZNSt6__ndk113basic_istreamIwNS_11char_traitsIwEEErsERe
00000000000e92e4 W _ZNSt6__ndk113basic_istreamIwNS_11char_traitsIwEEErsERf
00000000000e8b50 W _ZNSt6__ndk113basic_istreamIwNS_11char_traitsIwEEErsERi
00000000000e8ccc W _ZNSt6__ndk113basic_istreamIwNS_11char_traitsIwEEErsERj
00000000000e8e04 W _ZNSt6__ndk113basic_istreamIwNS_11char_traitsIwEEErsERl
00000000000e8f3c W _ZNSt6__ndk113basic_istreamIwNS_11char_traitsIwEEErsERm
00000000000e88a0 W _ZNSt6__ndk113basic_istreamIwNS_11char_traitsIwEEErsERs
00000000000e8a18 W _ZNSt6__ndk113basic_istreamIwNS_11char_traitsIwEEErsERt
00000000000e9074 W _ZNSt6__ndk113basic_istreamIwNS_11char_traitsIwEEErsERx
00000000000e91ac W _ZNSt6__ndk113basic_istreamIwNS_11char_traitsIwEEErsERy
00000000000e7254 W _ZNSt6__ndk113basic_ostreamIcNS_11char_traitsIcEEE3putEc
00000000000e59a4 W _ZNSt6__ndk113basic_ostreamIcNS_11char_traitsIcEEE4swapERS3_
00000000000e307c W _ZNSt6__ndk113basic_ostreamIcNS_11char_traitsIcEEE5flushEv
00000000000e74ac W _ZNSt6__ndk113basic_ostreamIcNS_11char_traitsIcEEE5seekpENS_4fposI9mbstate_tEE
00000000000e7580 W _ZNSt6__ndk113basic_ostreamIcNS_11char_traitsIcEEE5seekpExNS_8ios_base7seekdirE
00000000000e744c W _ZNSt6__ndk113basic_ostreamIcNS_11char_traitsIcEEE5tellpEv
00000000000e7360 W _ZNSt6__ndk113basic_ostreamIcNS_11char_traitsIcEEE5writeEPKcl
00000000000e5a08 W _ZNSt6__ndk113basic_ostreamIcNS_11char_traitsIcEEE6sentryC1ERS3_
00000000000e5a08 W _ZNSt6__ndk113basic_ostreamIcNS_11char_traitsIcEEE6sentryC2ERS3_
00000000000e5a6c W _ZNSt6__ndk113basic_ostreamIcNS_11char_traitsIcEEE6sentryD1Ev
00000000000e5a6c W _ZNSt6__ndk113basic_ostreamIcNS_11char_traitsIcEEE6sentryD2Ev
00000000000e58a8 W _ZNSt6__ndk113basic_ostreamIcNS_11char_traitsIcEEEC1EPNS_15basic_streambufIcS2_EE
00000000000e5850 W _ZNSt6__ndk113basic_ostreamIcNS_11char_traitsIcEEEC2EPNS_15basic_streambufIcS2_EE
00000000000e593c W _ZNSt6__ndk113basic_ostreamIcNS_11char_traitsIcEEED0Ev
00000000000e5918 W _ZNSt6__ndk113basic_ostreamIcNS_11char_traitsIcEEED1Ev
00000000000e5910 W _ZNSt6__ndk113basic_ostreamIcNS_11char_traitsIcEEED2Ev
00000000000e5b58 W _ZNSt6__ndk113basic_ostreamIcNS_11char_traitsIcEEElsEPFRNS_8ios_baseES5_E
00000000000e5b20 W _ZNSt6__ndk113basic_ostreamIcNS_11char_traitsIcEEElsEPFRNS_9basic_iosIcS2_EES6_E
00000000000e5b14 W _ZNSt6__ndk113basic_ostreamIcNS_11char_traitsIcEEElsEPFRS3_S4_E
00000000000e6eb0 W _ZNSt6__ndk113basic_ostreamIcNS_11char_traitsIcEEElsEPKv
00000000000e7040 W _ZNSt6__ndk113basic_ostreamIcNS_11char_traitsIcEEElsEPNS_15basic_streambufIcS2_EE
00000000000e5b90 W _ZNSt6__ndk113basic_ostreamIcNS_11char_traitsIcEEElsEb
00000000000e6b88 W _ZNSt6__ndk113basic_ostreamIcNS_11char_traitsIcEEElsEd
00000000000e6d20 W _ZNSt6__ndk113basic_ostreamIcNS_11char_traitsIcEEElsEe
00000000000e69f0 W _ZNSt6__ndk113basic_ostreamIcNS_11char_traitsIcEEElsEf
00000000000e6068 W _ZNSt6__ndk113basic_ostreamIcNS_11char_traitsIcEEElsEi
00000000000e6220 W _ZNSt6__ndk113basic_ostreamIcNS_11char_traitsIcEEElsEj
00000000000e63b0 W _ZNSt6__ndk113basic_ostreamIcNS_11char_traitsIcEEElsEl
00000000000e6540 W _ZNSt6__ndk113basic_ostreamIcNS_11char_traitsIcEEElsEm
00000000000e5d20 W _ZNSt6__ndk113basic_ostreamIcNS_11char_traitsIcEEElsEs
00000000000e5ed8 W _ZNSt6__ndk113basic_ostreamIcNS_11char_traitsIcEEElsEt
00000000000e66d0 W _ZNSt6__ndk113basic_ostreamIcNS_11char_traitsIcEEElsEx
00000000000e6860 W _ZNSt6__ndk113basic_ostreamIcNS_11char_traitsIcEEElsEy
00000000000ec610 W _ZNSt6__ndk113basic_ostreamIwNS_11char_traitsIwEEE3putEw
00000000000ead58 W _ZNSt6__ndk113basic_ostreamIwNS_11char_traitsIwEEE4swapERS3_
00000000000e8444 W _ZNSt6__ndk113basic_ostreamIwNS_11char_traitsIwEEE5flushEv
00000000000ec870 W _ZNSt6__ndk113basic_ostreamIwNS_11char_traitsIwEEE5seekpENS_4fposI9mbstate_tEE
00000000000ec944 W _ZNSt6__ndk113basic_ostreamIwNS_11char_traitsIwEEE5seekpExNS_8ios_base7seekdirE
00000000000ec810 W _ZNSt6__ndk113basic_ostreamIwNS_11char_traitsIwEEE5tellpEv
00000000000ec724 W _ZNSt6__ndk113basic_ostreamIwNS_11char_traitsIwEEE5writeEPKwl
00000000000eadbc W _ZNSt6__ndk113basic_ostreamIwNS_11char_traitsIwEEE6sentryC1ERS3_
00000000000eadbc W _ZNSt6__ndk113basic_ostreamIwNS_11char_traitsIwEEE6sentryC2ERS3_
00000000000eae20 W _ZNSt6__ndk113basic_ostreamIwNS_11char_traitsIwEEE6sentryD1Ev
00000000000eae20 W _ZNSt6__ndk113basic_ostreamIwNS_11char_traitsIwEEE6sentryD2Ev
00000000000eac5c W _ZNSt6__ndk113basic_ostreamIwNS_11char_traitsIwEEEC1EPNS_15basic_streambufIwS2_EE
00000000000eac04 W _ZNSt6__ndk113basic_ostreamIwNS_11char_traitsIwEEEC2EPNS_15basic_streambufIwS2_EE
00000000000eacf0 W _ZNSt6__ndk113basic_ostreamIwNS_11char_traitsIwEEED0Ev
00000000000eaccc W _ZNSt6__ndk113basic_ostreamIwNS_11char_traitsIwEEED1Ev
00000000000eacc4 W _ZNSt6__ndk113basic_ostreamIwNS_11char_traitsIwEEED2Ev
00000000000eaf0c W _ZNSt6__ndk113basic_ostreamIwNS_11char_traitsIwEEElsEPFRNS_8ios_baseES5_E
00000000000eaed4 W _ZNSt6__ndk113basic_ostreamIwNS_11char_traitsIwEEElsEPFRNS_9basic_iosIwS2_EES6_E
00000000000eaec8 W _ZNSt6__ndk113basic_ostreamIwNS_11char_traitsIwEEElsEPFRS3_S4_E
00000000000ec264 W _ZNSt6__ndk113basic_ostreamIwNS_11char_traitsIwEEElsEPKv
00000000000ec3f4 W _ZNSt6__ndk113basic_ostreamIwNS_11char_traitsIwEEElsEPNS_15basic_streambufIwS2_EE
00000000000eaf44 W _ZNSt6__ndk113basic_ostreamIwNS_11char_traitsIwEEElsEb
00000000000ebf3c W _ZNSt6__ndk113basic_ostreamIwNS_11char_traitsIwEEElsEd
00000000000ec0d4 W _ZNSt6__ndk113basic_ostreamIwNS_11char_traitsIwEEElsEe
00000000000ebda4 W _ZNSt6__ndk113basic_ostreamIwNS_11char_traitsIwEEElsEf
00000000000eb41c W _ZNSt6__ndk113basic_ostreamIwNS_11char_traitsIwEEElsEi
00000000000eb5d4 W _ZNSt6__ndk113basic_ostreamIwNS_11char_traitsIwEEElsEj
00000000000eb764 W _ZNSt6__ndk113basic_ostreamIwNS_11char_traitsIwEEElsEl
00000000000eb8f4 W _ZNSt6__ndk113basic_ostreamIwNS_11char_traitsIwEEElsEm
00000000000eb0d4 W _ZNSt6__ndk113basic_ostreamIwNS_11char_traitsIwEEElsEs
00000000000eb28c W _ZNSt6__ndk113basic_ostreamIwNS_11char_traitsIwEEElsEt
00000000000eba84 W _ZNSt6__ndk113basic_ostreamIwNS_11char_traitsIwEEElsEx
00000000000ebc14 W _ZNSt6__ndk113basic_ostreamIwNS_11char_traitsIwEEElsEy
00000000000e1688 T _ZNSt6__ndk113random_deviceC1ERKNS_12basic_stringIcNS_11char_traitsIcEENS_9allocatorIcEEEE
00000000000e1688 T _ZNSt6__ndk113random_deviceC2ERKNS_12basic_stringIcNS_11char_traitsIcEENS_9allocatorIcEEEE
00000000000e1730 T _ZNSt6__ndk113random_deviceD1Ev
00000000000e1730 T _ZNSt6__ndk113random_deviceD2Ev
00000000000e1754 T _ZNSt6__ndk113random_deviceclEv
00000000000e02ec T _ZNSt6__ndk113shared_futureIvED1Ev
00000000000e02ec T _ZNSt6__ndk113shared_futureIvED2Ev
00000000000e0340 T _ZNSt6__ndk113shared_futureIvEaSERKS1_
000000000011a46c T _ZNSt6__ndk114__num_get_base10__get_baseERNS_8ios_baseE
0000000000077178 R _ZNSt6__ndk114__num_get_base5__srcE
000000000011a4b0 T _ZNSt6__ndk114__num_put_base12__format_intEPcPKcbj
000000000011a554 T _ZNSt6__ndk114__num_put_base14__format_floatEPcPKcj
00000000000fc290 T _ZNSt6__ndk114__num_put_base18__identify_paddingEPcS1_RKNS_8ios_baseE
00000000000d07e4 T _ZNSt6__ndk114__shared_count12__add_sharedEv
00000000000d0808 T _ZNSt6__ndk114__shared_count16__release_sharedEv
00000000000d07d4 T _ZNSt6__ndk114__shared_countD0Ev
00000000000d07cc T _ZNSt6__ndk114__shared_countD1Ev
00000000000d07cc T _ZNSt6__ndk114__shared_countD2Ev
00000000000edae0 W _ZNSt6__ndk114basic_ifstreamIcNS_11char_traitsIcEEE4openEPKcj
00000000000edc54 W _ZNSt6__ndk114basic_ifstreamIcNS_11char_traitsIcEEE4openERKNS_12basic_stringIcS2_NS_9allocatorIcEEEEj
00000000000e7848 W _ZNSt6__ndk114basic_iostreamIcNS_11char_traitsIcEEE4swapERS3_
00000000000e76f4 W _ZNSt6__ndk114basic_iostreamIcNS_11char_traitsIcEEEC1EPNS_15basic_streambufIcS2_EE
00000000000e7654 W _ZNSt6__ndk114basic_iostreamIcNS_11char_traitsIcEEEC2EPNS_15basic_streambufIcS2_EE
00000000000e77b0 W _ZNSt6__ndk114basic_iostreamIcNS_11char_traitsIcEEED0Ev
00000000000e7780 W _ZNSt6__ndk114basic_iostreamIcNS_11char_traitsIcEEED1Ev
00000000000e7778 W _ZNSt6__ndk114basic_iostreamIcNS_11char_traitsIcEEED2Ev
00000000000edd20 W _ZNSt6__ndk114basic_ofstreamIcNS_11char_traitsIcEEE4openEPKcj
00000000000edde0 W _ZNSt6__ndk114basic_ofstreamIcNS_11char_traitsIcEEE4openERKNS_12basic_stringIcS2_NS_9allocatorIcEEEEj
0000000000109d50 W _ZNSt6__ndk114codecvt_bynameIDiDu9mbstate_tED0Ev
0000000000109d48 W _ZNSt6__ndk114codecvt_bynameIDiDu9mbstate_tED1Ev
0000000000109d48 W _ZNSt6__ndk114codecvt_bynameIDiDu9mbstate_tED2Ev
0000000000109ce8 W _ZNSt6__ndk114codecvt_bynameIDic9mbstate_tED0Ev
0000000000109ce0 W _ZNSt6__ndk114codecvt_bynameIDic9mbstate_tED1Ev
0000000000109ce0 W _ZNSt6__ndk114codecvt_bynameIDic9mbstate_tED2Ev
0000000000109d1c W _ZNSt6__ndk114codecvt_bynameIDsDu9mbstate_tED0Ev
0000000000109d14 W _ZNSt6__ndk114codecvt_bynameIDsDu9mbstate_tED1Ev
0000000000109d14 W _ZNSt6__ndk114codecvt_bynameIDsDu9mbstate_tED2Ev
0000000000109cb4 W _ZNSt6__ndk114codecvt_bynameIDsc9mbstate_tED0Ev
0000000000109cac W _ZNSt6__ndk114codecvt_bynameIDsc9mbstate_tED1Ev
0000000000109cac W _ZNSt6__ndk114codecvt_bynameIDsc9mbstate_tED2Ev
0000000000109c4c W _ZNSt6__ndk114codecvt_bynameIcc9mbstate_tED0Ev
0000000000109c44 W _ZNSt6__ndk114codecvt_bynameIcc9mbstate_tED1Ev
0000000000109c44 W _ZNSt6__ndk114codecvt_bynameIcc9mbstate_tED2Ev
0000000000109c80 W _ZNSt6__ndk114codecvt_bynameIwc9mbstate_tED0Ev
0000000000109c78 W _ZNSt6__ndk114codecvt_bynameIwc9mbstate_tED1Ev
0000000000109c78 W _ZNSt6__ndk114codecvt_bynameIwc9mbstate_tED2Ev
0000000000112e2c T _ZNSt6__ndk114collate_bynameIcEC1EPKcm
0000000000112fa8 T _ZNSt6__ndk114collate_bynameIcEC1ERKNS_12basic_stringIcNS_11char_traitsIcEENS_9allocatorIcEEEEm
0000000000112e2c T _ZNSt6__ndk114collate_bynameIcEC2EPKcm
0000000000112fa8 T _ZNSt6__ndk114collate_bynameIcEC2ERKNS_12basic_stringIcNS_11char_traitsIcEENS_9allocatorIcEEEEm
00000000001130c0 T _ZNSt6__ndk114collate_bynameIcED0Ev
000000000011307c T _ZNSt6__ndk114collate_bynameIcED1Ev
000000000011307c T _ZNSt6__ndk114collate_bynameIcED2Ev
0000000000113480 T _ZNSt6__ndk114collate_bynameIwEC1EPKcm
0000000000113598 T _ZNSt6__ndk114collate_bynameIwEC1ERKNS_12basic_stringIcNS_11char_traitsIcEENS_9allocatorIcEEEEm
0000000000113480 T _ZNSt6__ndk114collate_bynameIwEC2EPKcm
0000000000113598 T _ZNSt6__ndk114collate_bynameIwEC2ERKNS_12basic_stringIcNS_11char_traitsIcEENS_9allocatorIcEEEEm
00000000001136b0 T _ZNSt6__ndk114collate_bynameIwED0Ev
000000000011366c T _ZNSt6__ndk114collate_bynameIwED1Ev
000000000011366c T _ZNSt6__ndk114collate_bynameIwED2Ev
00000000000ccb08 T _ZNSt6__ndk114error_categoryC2Ev
00000000000ccb28 T _ZNSt6__ndk114error_categoryD0Ev
00000000000ccb20 T _ZNSt6__ndk114error_categoryD1Ev
00000000000ccb20 T _ZNSt6__ndk114error_categoryD2Ev
000000000012512c T _ZNSt6__ndk115__get_classnameEPKcb
00000000000e1388 T _ZNSt6__ndk115__thread_struct25notify_all_at_thread_exitEPNS_18condition_variableEPNS_5mutexE
00000000000e14a0 T _ZNSt6__ndk115__thread_struct27__make_ready_at_thread_exitEPNS_17__assoc_sub_stateE
00000000000e1308 T _ZNSt6__ndk115__thread_structC1Ev
00000000000e1308 T _ZNSt6__ndk115__thread_structC2Ev
00000000000e1344 T _ZNSt6__ndk115__thread_structD1Ev
00000000000e1344 T _ZNSt6__ndk115__thread_structD2Ev
00000000000e26a4 W _ZNSt6__ndk115basic_streambufIcNS_11char_traitsIcEEE10pubseekoffExNS_8ios_base7seekdirEj
00000000000e26b4 W _ZNSt6__ndk115basic_streambufIcNS_11char_traitsIcEEE10pubseekposENS_4fposI9mbstate_tEEj
00000000000e2a4c W _ZNSt6__ndk115basic_streambufIcNS_11char_traitsIcEEE4setgEPcS4_S4_
00000000000e2a70 W _ZNSt6__ndk115basic_streambufIcNS_11char_traitsIcEEE4setpEPcS4_
00000000000e297c W _ZNSt6__ndk115basic_streambufIcNS_11char_traitsIcEEE4swapERS3_
00000000000e2ab0 W _ZNSt6__ndk115basic_streambufIcNS_11char_traitsIcEEE4syncEv
00000000000e2a38 W _ZNSt6__ndk115basic_streambufIcNS_11char_traitsIcEEE5gbumpEi
00000000000e2a80 W _ZNSt6__ndk115basic_streambufIcNS_11char_traitsIcEEE5imbueERKNS_6localeE
00000000000e2a5c W _ZNSt6__ndk115basic_streambufIcNS_11char_traitsIcEEE5pbumpEi
00000000000e27a8 W _ZNSt6__ndk115basic_streambufIcNS_11char_traitsIcEEE5sgetcEv
00000000000e27cc W _ZNSt6__ndk115basic_streambufIcNS_11char_traitsIcEEE5sgetnEPcl
00000000000e2844 W _ZNSt6__ndk115basic_streambufIcNS_11char_traitsIcEEE5sputcEc
00000000000e2880 W _ZNSt6__ndk115basic_streambufIcNS_11char_traitsIcEEE5sputnEPKcl
00000000000e2bb0 W _ZNSt6__ndk115basic_streambufIcNS_11char_traitsIcEEE5uflowEv
00000000000e277c W _ZNSt6__ndk115basic_streambufIcNS_11char_traitsIcEEE6sbumpcEv
00000000000e2a88 W _ZNSt6__ndk115basic_streambufIcNS_11char_traitsIcEEE6setbufEPcl
00000000000e26f8 W _ZNSt6__ndk115basic_streambufIcNS_11char_traitsIcEEE6snextcEv
00000000000e2ac8 W _ZNSt6__ndk115basic_streambufIcNS_11char_traitsIcEEE6xsgetnEPcl
00000000000e2c04 W _ZNSt6__ndk115basic_streambufIcNS_11char_traitsIcEEE6xsputnEPKcl
00000000000e26c4 W _ZNSt6__ndk115basic_streambufIcNS_11char_traitsIcEEE7pubsyncEv
00000000000e2a90 W _ZNSt6__ndk115basic_streambufIcNS_11char_traitsIcEEE7seekoffExNS_8ios_base7seekdirEj
00000000000e2aa0 W _ZNSt6__ndk115basic_streambufIcNS_11char_traitsIcEEE7seekposENS_4fposI9mbstate_tEEj
00000000000e2814 W _ZNSt6__ndk115basic_streambufIcNS_11char_traitsIcEEE7sungetcEv
00000000000e26d4 W _ZNSt6__ndk115basic_streambufIcNS_11char_traitsIcEEE8in_availEv
00000000000e2cd4 W _ZNSt6__ndk115basic_streambufIcNS_11char_traitsIcEEE8overflowEi
00000000000e2630 W _ZNSt6__ndk115basic_streambufIcNS_11char_traitsIcEEE8pubimbueERKNS_6localeE
00000000000e2bf8 W _ZNSt6__ndk115basic_streambufIcNS_11char_traitsIcEEE9pbackfailEi
00000000000e2694 W _ZNSt6__ndk115basic_streambufIcNS_11char_traitsIcEEE9pubsetbufEPcl
00000000000e2abc W _ZNSt6__ndk115basic_streambufIcNS_11char_traitsIcEEE9showmanycEv
00000000000e27dc W _ZNSt6__ndk115basic_streambufIcNS_11char_traitsIcEEE9sputbackcEc
00000000000e2ba4 W _ZNSt6__ndk115basic_streambufIcNS_11char_traitsIcEEE9underflowEv
00000000000e28d4 W _ZNSt6__ndk115basic_streambufIcNS_11char_traitsIcEEEC1ERKS3_
00000000000e2890 W _ZNSt6__ndk115basic_streambufIcNS_11char_traitsIcEEEC1Ev
00000000000e28d4 W _ZNSt6__ndk115basic_streambufIcNS_11char_traitsIcEEEC2ERKS3_
00000000000e2890 W _ZNSt6__ndk115basic_streambufIcNS_11char_traitsIcEEEC2Ev
00000000000e2604 W _ZNSt6__ndk115basic_streambufIcNS_11char_traitsIcEEED0Ev
00000000000e25ec W _ZNSt6__ndk115basic_streambufIcNS_11char_traitsIcEEED1Ev
00000000000e25ec W _ZNSt6__ndk115basic_streambufIcNS_11char_traitsIcEEED2Ev
00000000000e292c W _ZNSt6__ndk115basic_streambufIcNS_11char_traitsIcEEEaSERKS3_
00000000000e7a1c W _ZNSt6__ndk115basic_streambufIwNS_11char_traitsIwEEE10pubseekoffExNS_8ios_base7seekdirEj
00000000000e7a2c W _ZNSt6__ndk115basic_streambufIwNS_11char_traitsIwEEE10pubseekposENS_4fposI9mbstate_tEEj
00000000000e7ddc W _ZNSt6__ndk115basic_streambufIwNS_11char_traitsIwEEE4setgEPwS4_S4_
00000000000e7e00 W _ZNSt6__ndk115basic_streambufIwNS_11char_traitsIwEEE4setpEPwS4_
00000000000e7d0c W _ZNSt6__ndk115basic_streambufIwNS_11char_traitsIwEEE4swapERS3_
00000000000e7e40 W _ZNSt6__ndk115basic_streambufIwNS_11char_traitsIwEEE4syncEv
00000000000e7dc8 W _ZNSt6__ndk115basic_streambufIwNS_11char_traitsIwEEE5gbumpEi
00000000000e7e10 W _ZNSt6__ndk115basic_streambufIwNS_11char_traitsIwEEE5imbueERKNS_6localeE
00000000000e7dec W _ZNSt6__ndk115basic_streambufIwNS_11char_traitsIwEEE5pbumpEi
00000000000e7b3c W _ZNSt6__ndk115basic_streambufIwNS_11char_traitsIwEEE5sgetcEv
00000000000e7b60 W _ZNSt6__ndk115basic_streambufIwNS_11char_traitsIwEEE5sgetnEPwl
00000000000e7bdc W _ZNSt6__ndk115basic_streambufIwNS_11char_traitsIwEEE5sputcEw
00000000000e7c10 W _ZNSt6__ndk115basic_streambufIwNS_11char_traitsIwEEE5sputnEPKwl
00000000000e7f44 W _ZNSt6__ndk115basic_streambufIwNS_11char_traitsIwEEE5uflowEv
00000000000e7b0c W _ZNSt6__ndk115basic_streambufIwNS_11char_traitsIwEEE6sbumpcEv
00000000000e7e18 W _ZNSt6__ndk115basic_streambufIwNS_11char_traitsIwEEE6setbufEPwl
00000000000e7a74 W _ZNSt6__ndk115basic_streambufIwNS_11char_traitsIwEEE6snextcEv
00000000000e7e58 W _ZNSt6__ndk115basic_streambufIwNS_11char_traitsIwEEE6xsgetnEPwl
00000000000e7f94 W _ZNSt6__ndk115basic_streambufIwNS_11char_traitsIwEEE6xsputnEPKwl
00000000000e7a3c W _ZNSt6__ndk115basic_streambufIwNS_11char_traitsIwEEE7pubsyncEv
00000000000e7e20 W _ZNSt6__ndk115basic_streambufIwNS_11char_traitsIwEEE7seekoffExNS_8ios_base7seekdirEj
00000000000e7e30 W _ZNSt6__ndk115basic_streambufIwNS_11char_traitsIwEEE7seekposENS_4fposI9mbstate_tEEj
00000000000e7ba8 W _ZNSt6__ndk115basic_streambufIwNS_11char_traitsIwEEE7sungetcEv
00000000000e7a4c W _ZNSt6__ndk115basic_streambufIwNS_11char_traitsIwEEE8in_availEv
00000000000e806c W _ZNSt6__ndk115basic_streambufIwNS_11char_traitsIwEEE8overflowEj
00000000000e79a8 W _ZNSt6__ndk115basic_streambufIwNS_11char_traitsIwEEE8pubimbueERKNS_6localeE
00000000000e7f88 W _ZNSt6__ndk115basic_streambufIwNS_11char_traitsIwEEE9pbackfailEj
00000000000e7a0c W _ZNSt6__ndk115basic_streambufIwNS_11char_traitsIwEEE9pubsetbufEPwl
00000000000e7e4c W _ZNSt6__ndk115basic_streambufIwNS_11char_traitsIwEEE9showmanycEv
00000000000e7b70 W _ZNSt6__ndk115basic_streambufIwNS_11char_traitsIwEEE9sputbackcEw
00000000000e7f38 W _ZNSt6__ndk115basic_streambufIwNS_11char_traitsIwEEE9underflowEv
00000000000e7c64 W _ZNSt6__ndk115basic_streambufIwNS_11char_traitsIwEEEC1ERKS3_
00000000000e7c20 W _ZNSt6__ndk115basic_streambufIwNS_11char_traitsIwEEEC1Ev
00000000000e7c64 W _ZNSt6__ndk115basic_streambufIwNS_11char_traitsIwEEEC2ERKS3_
00000000000e7c20 W _ZNSt6__ndk115basic_streambufIwNS_11char_traitsIwEEEC2Ev
00000000000e797c W _ZNSt6__ndk115basic_streambufIwNS_11char_traitsIwEEED0Ev
00000000000e7964 W _ZNSt6__ndk115basic_streambufIwNS_11char_traitsIwEEED1Ev
00000000000e7964 W _ZNSt6__ndk115basic_streambufIwNS_11char_traitsIwEEED2Ev
00000000000e7cbc W _ZNSt6__ndk115basic_streambufIwNS_11char_traitsIwEEEaSERKS3_
00000000000ed390 W _ZNSt6__ndk115basic_stringbufIcNS_11char_traitsIcEENS_9allocatorIcEEE3strERKNS_12basic_stringIcS2_S4_EE
00000000000ecea4 W _ZNSt6__ndk115basic_stringbufIcNS_11char_traitsIcEENS_9allocatorIcEEE4swapERS5_
00000000000ed81c W _ZNSt6__ndk115basic_stringbufIcNS_11char_traitsIcEENS_9allocatorIcEEE7seekoffExNS_8ios_base7seekdirEj
00000000000ed650 W _ZNSt6__ndk115basic_stringbufIcNS_11char_traitsIcEENS_9allocatorIcEEE8overflowEi
00000000000ed5dc W _ZNSt6__ndk115basic_stringbufIcNS_11char_traitsIcEENS_9allocatorIcEEE9pbackfailEi
00000000000ed588 W _ZNSt6__ndk115basic_stringbufIcNS_11char_traitsIcEENS_9allocatorIcEEE9underflowEv
00000000000eca18 W _ZNSt6__ndk115basic_stringbufIcNS_11char_traitsIcEENS_9allocatorIcEEEC1EOS5_
00000000000eca18 W _ZNSt6__ndk115basic_stringbufIcNS_11char_traitsIcEENS_9allocatorIcEEEC2EOS5_
00000000000ecca0 W _ZNSt6__ndk115basic_stringbufIcNS_11char_traitsIcEENS_9allocatorIcEEEaSEOS5_
00000000000df6f8 T _ZNSt6__ndk115future_categoryEv
0000000000119dac T _ZNSt6__ndk115numpunct_bynameIcE6__initEPKc
0000000000119d4c T _ZNSt6__ndk115numpunct_bynameIcEC1EPKcm
0000000000119f4c T _ZNSt6__ndk115numpunct_bynameIcEC1ERKNS_12basic_stringIcNS_11char_traitsIcEENS_9allocatorIcEEEEm
0000000000119d4c T _ZNSt6__ndk115numpunct_bynameIcEC2EPKcm
0000000000119f4c T _ZNSt6__ndk115numpunct_bynameIcEC2ERKNS_12basic_stringIcNS_11char_traitsIcEENS_9allocatorIcEEEEm
0000000000119fbc T _ZNSt6__ndk115numpunct_bynameIcED0Ev
0000000000119a48 T _ZNSt6__ndk115numpunct_bynameIcED1Ev
0000000000119a48 T _ZNSt6__ndk115numpunct_bynameIcED2Ev
000000000011a158 T _ZNSt6__ndk115numpunct_bynameIwE6__initEPKc
000000000011a0f4 T _ZNSt6__ndk115numpunct_bynameIwEC1EPKcm
000000000011a2f8 T _ZNSt6__ndk115numpunct_bynameIwEC1ERKNS_12basic_stringIcNS_11char_traitsIcEENS_9allocatorIcEEEEm
000000000011a0f4 T _ZNSt6__ndk115numpunct_bynameIwEC2EPKcm
000000000011a2f8 T _ZNSt6__ndk115numpunct_bynameIwEC2ERKNS_12basic_stringIcNS_11char_traitsIcEENS_9allocatorIcEEEEm
000000000011a36c T _ZNSt6__ndk115numpunct_bynameIwED0Ev
0000000000119ac4 T _ZNSt6__ndk115numpunct_bynameIwED1Ev
0000000000119ac4 T _ZNSt6__ndk115numpunct_bynameIwED2Ev
00000000000e0610 T _ZNSt6__ndk115recursive_mutex4lockEv
00000000000e063c T _ZNSt6__ndk115recursive_mutex6unlockEv
00000000000e065c T _ZNSt6__ndk115recursive_mutex8try_lockEv
00000000000e0528 T _ZNSt6__ndk115recursive_mutexC1Ev
00000000000e0528 T _ZNSt6__ndk115recursive_mutexC2Ev
00000000000e05f0 T _ZNSt6__ndk115recursive_mutexD1Ev
00000000000e05f0 T _ZNSt6__ndk115recursive_mutexD2Ev
00000000000dde94 T _ZNSt6__ndk115system_categoryEv
0000000000105bec T _ZNSt6__ndk116__check_groupingERKNS_12basic_stringIcNS_11char_traitsIcEENS_9allocatorIcEEEEPjS8_Rj
000000000011993c T _ZNSt6__ndk116__narrow_to_utf8ILm16EED0Ev
000000000012268c T _ZNSt6__ndk116__narrow_to_utf8ILm16EED1Ev
000000000012268c T _ZNSt6__ndk116__narrow_to_utf8ILm16EED2Ev
0000000000119968 T _ZNSt6__ndk116__narrow_to_utf8ILm32EED0Ev
000000000012268c T _ZNSt6__ndk116__narrow_to_utf8ILm32EED1Ev
000000000012268c T _ZNSt6__ndk116__narrow_to_utf8ILm32EED2Ev
00000000000ddccc T _ZNSt6__ndk116generic_categoryEv
00000000000dfc4c T _ZNSt6__ndk117__assoc_sub_state10__sub_waitERNS_11unique_lockINS_5mutexEEE
00000000000dfb20 T _ZNSt6__ndk117__assoc_sub_state12__make_readyEv
00000000000df9d8 T _ZNSt6__ndk117__assoc_sub_state13set_exceptionESt13exception_ptr
00000000000df818 T _ZNSt6__ndk117__assoc_sub_state16__on_zero_sharedEv
00000000000df944 T _ZNSt6__ndk117__assoc_sub_state24set_value_at_thread_exitEv
00000000000dfa7c T _ZNSt6__ndk117__assoc_sub_state28set_exception_at_thread_exitESt13exception_ptr
00000000000dfb64 T _ZNSt6__ndk117__assoc_sub_state4copyEv
00000000000dfcdc T _ZNSt6__ndk117__assoc_sub_state4waitEv
00000000000dfd80 T _ZNSt6__ndk117__assoc_sub_state9__executeEv
00000000000df828 T _ZNSt6__ndk117__assoc_sub_state9set_valueEv
0000000000119994 T _ZNSt6__ndk117__widen_from_utf8ILm16EED0Ev
000000000012268c T _ZNSt6__ndk117__widen_from_utf8ILm16EED1Ev
000000000012268c T _ZNSt6__ndk117__widen_from_utf8ILm16EED2Ev
00000000001199c0 T _ZNSt6__ndk117__widen_from_utf8ILm32EED0Ev
000000000012268c T _ZNSt6__ndk117__widen_from_utf8ILm32EED1Ev
000000000012268c T _ZNSt6__ndk117__widen_from_utf8ILm32EED2Ev
00000000000cff90 T _ZNSt6__ndk117bad_function_callD0Ev
00000000000cff88 T _ZNSt6__ndk117bad_function_callD1Ev
00000000000cff88 T _ZNSt6__ndk117bad_function_callD2Ev
00000000000d0768 T _ZNSt6__ndk117declare_reachableEPv
00000000000e18c4 T _ZNSt6__ndk117iostream_categoryEv
000000000011ff68 T _ZNSt6__ndk117moneypunct_bynameIcLb0EE4initEPKc
0000000000120790 T _ZNSt6__ndk117moneypunct_bynameIcLb1EE4initEPKc
0000000000120a84 T _ZNSt6__ndk117moneypunct_bynameIwLb0EE4initEPKc
0000000000121414 T _ZNSt6__ndk117moneypunct_bynameIwLb1EE4initEPKc
0000000000124f1c T _ZNSt6__ndk118__get_ostream_fileERNS_13basic_ostreamIcNS_11char_traitsIcEEEE
000000000011d9a8 T _ZNSt6__ndk118__time_get_storageIcE4initERKNS_5ctypeIcEE
000000000011c604 T _ZNSt6__ndk118__time_get_storageIcE9__analyzeEcRKNS_5ctypeIcEE
000000000011e2f0 T _ZNSt6__ndk118__time_get_storageIcEC1EPKc
000000000011e858 T _ZNSt6__ndk118__time_get_storageIcEC1ERKNS_12basic_stringIcNS_11char_traitsIcEENS_9allocatorIcEEEE
000000000011e2f0 T _ZNSt6__ndk118__time_get_storageIcEC2EPKc
000000000011e858 T _ZNSt6__ndk118__time_get_storageIcEC2ERKNS_12basic_stringIcNS_11char_traitsIcEENS_9allocatorIcEEEE
000000000011dde8 T _ZNSt6__ndk118__time_get_storageIwE4initERKNS_5ctypeIwEE
000000000011cf3c T _ZNSt6__ndk118__time_get_storageIwE9__analyzeEcRKNS_5ctypeIwEE
000000000011edc0 T _ZNSt6__ndk118__time_get_storageIwEC1EPKc
000000000011f2e0 T _ZNSt6__ndk118__time_get_storageIwEC1ERKNS_12basic_stringIcNS_11char_traitsIcEENS_9allocatorIcEEEE
000000000011edc0 T _ZNSt6__ndk118__time_get_storageIwEC2EPKc
000000000011f2e0 T _ZNSt6__ndk118__time_get_storageIwEC2ERKNS_12basic_stringIcNS_11char_traitsIcEENS_9allocatorIcEEEE
00000000000ed938 W _ZNSt6__ndk118basic_stringstreamIcNS_11char_traitsIcEENS_9allocatorIcEEEaSEOS5_
00000000000df380 T _ZNSt6__ndk118condition_variable10notify_allEv
00000000000df360 T _ZNSt6__ndk118condition_variable10notify_oneEv
00000000000df3ec T _ZNSt6__ndk118condition_variable15__do_timed_waitERNS_11unique_lockINS_5mutexEEENS_6chrono10time_pointINS5_12system_clockENS5_8durationIxNS_5ratioILl1ELl1000000000EEEEEEE
00000000000df3a0 T _ZNSt6__ndk118condition_variable4waitERNS_11unique_lockINS_5mutexEEE
00000000000df340 T _ZNSt6__ndk118condition_variableD1Ev
00000000000df340 T _ZNSt6__ndk118condition_variableD2Ev
00000000000e0ea0 T _ZNSt6__ndk118shared_timed_mutex11lock_sharedEv
00000000000e0f84 T _ZNSt6__ndk118shared_timed_mutex13unlock_sharedEv
00000000000e0f2c T _ZNSt6__ndk118shared_timed_mutex15try_lock_sharedEv
00000000000e0d90 T _ZNSt6__ndk118shared_timed_mutex4lockEv
00000000000e0e68 T _ZNSt6__ndk118shared_timed_mutex6unlockEv
00000000000e0e1c T _ZNSt6__ndk118shared_timed_mutex8try_lockEv
00000000000e0d88 T _ZNSt6__ndk118shared_timed_mutexC1Ev
00000000000e0d88 T _ZNSt6__ndk118shared_timed_mutexC2Ev
00000000000e0c08 T _ZNSt6__ndk119__shared_mutex_base11lock_sharedEv
00000000000e0cf8 T _ZNSt6__ndk119__shared_mutex_base13unlock_sharedEv
00000000000e0ca0 T _ZNSt6__ndk119__shared_mutex_base15try_lock_sharedEv
00000000000e0af8 T _ZNSt6__ndk119__shared_mutex_base4lockEv
00000000000e0bd0 T _ZNSt6__ndk119__shared_mutex_base6unlockEv
00000000000e0b84 T _ZNSt6__ndk119__shared_mutex_base8try_lockEv
00000000000e0ad8 T _ZNSt6__ndk119__shared_mutex_baseC1Ev
00000000000e0ad8 T _ZNSt6__ndk119__shared_mutex_baseC2Ev
00000000000d0894 T _ZNSt6__ndk119__shared_weak_count10__add_weakEv
00000000000d0870 T _ZNSt6__ndk119__shared_weak_count12__add_sharedEv
00000000000d0934 T _ZNSt6__ndk119__shared_weak_count14__release_weakEv
00000000000d08b8 T _ZNSt6__ndk119__shared_weak_count16__release_sharedEv
00000000000d098c T _ZNSt6__ndk119__shared_weak_count4lockEv
00000000000d07dc T _ZNSt6__ndk119__shared_weak_countD0Ev
00000000000d07cc T _ZNSt6__ndk119__shared_weak_countD1Ev
00000000000d07cc T _ZNSt6__ndk119__shared_weak_countD2Ev
00000000000e1174 T _ZNSt6__ndk119__thread_local_dataEv
00000000000eda54 W _ZNSt6__ndk119basic_istringstreamIcNS_11char_traitsIcEENS_9allocatorIcEEEaSEOS5_
00000000000ed9c4 W _ZNSt6__ndk119basic_ostringstreamIcNS_11char_traitsIcEENS_9allocatorIcEEEaSEOS5_
00000000000d0770 T _ZNSt6__ndk119declare_no_pointersEPcm
0000000000125064 T _ZNSt6__ndk120__get_collation_nameEPKc
00000000000deff4 T _ZNSt6__ndk120__libcpp_atomic_waitEPVKNS_17__cxx_atomic_implIiNS_22__cxx_atomic_base_implIiEEEEi
00000000000dee38 T _ZNSt6__ndk120__libcpp_atomic_waitEPVKvi
00000000000de670 T _ZNSt6__ndk120__throw_system_errorEiPKc
00000000000d5290 T _ZNSt6__ndk121__throw_runtime_errorEPKc
00000000000d0780 T _ZNSt6__ndk121__undeclare_reachableEPv
00000000000e08e4 T _ZNSt6__ndk121recursive_timed_mutex4lockEv
00000000000e0a5c T _ZNSt6__ndk121recursive_timed_mutex6unlockEv
00000000000e09c0 T _ZNSt6__ndk121recursive_timed_mutex8try_lockEv
00000000000e0874 T _ZNSt6__ndk121recursive_timed_mutexC1Ev
00000000000e0874 T _ZNSt6__ndk121recursive_timed_mutexC2Ev
00000000000e0890 T _ZNSt6__ndk121recursive_timed_mutexD1Ev
00000000000e0890 T _ZNSt6__ndk121recursive_timed_mutexD2Ev
00000000000d0778 T _ZNSt6__ndk121undeclare_no_pointersEPcm
00000000000deb9c W _ZNSt6__ndk122__libcpp_verbose_abortEPKcz
00000000000def68 T _ZNSt6__ndk123__cxx_atomic_notify_allEPVKNS_17__cxx_atomic_implIiNS_22__cxx_atomic_base_implIiEEEE
00000000000ded28 T _ZNSt6__ndk123__cxx_atomic_notify_allEPVKv
00000000000deee8 T _ZNSt6__ndk123__cxx_atomic_notify_oneEPVKNS_17__cxx_atomic_implIiNS_22__cxx_atomic_base_implIiEEEE
00000000000dec78 T _ZNSt6__ndk123__cxx_atomic_notify_oneEPVKv
00000000000defe8 T _ZNSt6__ndk123__libcpp_atomic_monitorEPVKNS_17__cxx_atomic_implIiNS_22__cxx_atomic_base_implIiEEEE
00000000000dedd8 T _ZNSt6__ndk123__libcpp_atomic_monitorEPVKv
00000000000df48c T _ZNSt6__ndk125notify_all_at_thread_exitERNS_18condition_variableENS_11unique_lockINS_5mutexEEE
00000000000df14c T _ZNSt6__ndk131__arrive_barrier_algorithm_baseEPNS_24__barrier_algorithm_baseEh
00000000000df2f4 T _ZNSt6__ndk132__destroy_barrier_algorithm_baseEPNS_24__barrier_algorithm_baseE
00000000000df0b0 T _ZNSt6__ndk134__construct_barrier_algorithm_baseERl
000000000014ccc0 B _ZNSt6__ndk13cinE
00000000000d0ae4 T _ZNSt6__ndk13pmr15memory_resourceD0Ev
00000000000d17c4 T _ZNSt6__ndk13pmr15memory_resourceD1Ev
00000000000d17c4 T _ZNSt6__ndk13pmr15memory_resourceD2Ev
00000000000d0aec T _ZNSt6__ndk13pmr19new_delete_resourceEv
00000000000d0b0c T _ZNSt6__ndk13pmr20get_default_resourceEv
00000000000d0afc T _ZNSt6__ndk13pmr20null_memory_resourceEv
00000000000d0b20 T _ZNSt6__ndk13pmr20set_default_resourceEPNS0_15memory_resourceE
00000000000d12ac T _ZNSt6__ndk13pmr25monotonic_buffer_resource11do_allocateEmm
00000000000d1260 T _ZNSt6__ndk13pmr25monotonic_buffer_resource14__chunk_footer25__try_allocate_from_chunkEmm
00000000000d1210 T _ZNSt6__ndk13pmr25monotonic_buffer_resource20__initial_descriptor25__try_allocate_from_chunkEmm
00000000000d0ee0 T _ZNSt6__ndk13pmr28unsynchronized_pool_resource11do_allocateEmm
00000000000d0bb8 T _ZNSt6__ndk13pmr28unsynchronized_pool_resource12__adhoc_pool13__do_allocateEPNS0_15memory_resourceEmm
00000000000d0b50 T _ZNSt6__ndk13pmr28unsynchronized_pool_resource12__adhoc_pool13__release_ptrEPNS0_15memory_resourceE
00000000000d0c30 T _ZNSt6__ndk13pmr28unsynchronized_pool_resource12__adhoc_pool15__do_deallocateEPNS0_15memory_resourceEPvmm
00000000000d110c T _ZNSt6__ndk13pmr28unsynchronized_pool_resource13do_deallocateEPvmm
00000000000d0ddc T _ZNSt6__ndk13pmr28unsynchronized_pool_resource7releaseEv
00000000000d0d28 T _ZNSt6__ndk13pmr28unsynchronized_pool_resourceC1ERKNS0_12pool_optionsEPNS0_15memory_resourceE
00000000000d0d28 T _ZNSt6__ndk13pmr28unsynchronized_pool_resourceC2ERKNS0_12pool_optionsEPNS0_15memory_resourceE
0000000000129558 T _ZNSt6__ndk14__fs10filesystem10__absoluteERKNS1_4pathEPNS_10error_codeE
00000000000ced54 T _ZNSt6__ndk14__fs10filesystem10hash_valueERKNS1_4pathE
000000000012972c T _ZNSt6__ndk14__fs10filesystem11__canonicalERKNS1_4pathEPNS_10error_codeE
000000000012a19c T _ZNSt6__ndk14__fs10filesystem11__copy_fileERKNS1_4pathES4_NS1_12copy_optionsEPNS_10error_codeE
000000000012b6b8 T _ZNSt6__ndk14__fs10filesystem11__file_sizeERKNS1_4pathEPNS_10error_codeE
000000000012b4d4 T _ZNSt6__ndk14__fs10filesystem12__equivalentERKNS1_4pathES4_PNS_10error_codeE
000000000012c024 T _ZNSt6__ndk14__fs10filesystem12__remove_allERKNS1_4pathEPNS_10error_codeE
000000000012b914 T _ZNSt6__ndk14__fs10filesystem13__fs_is_emptyERKNS1_4pathEPNS_10error_codeE
000000000012be48 T _ZNSt6__ndk14__fs10filesystem13__permissionsERKNS1_4pathENS1_5permsENS1_12perm_optionsEPNS_10error_codeE
000000000012c4ac T _ZNSt6__ndk14__fs10filesystem13__resize_fileERKNS1_4pathEmPNS_10error_codeE
0000000000129fa0 T _ZNSt6__ndk14__fs10filesystem14__copy_symlinkERKNS1_4pathES4_PNS_10error_codeE
000000000012b284 T _ZNSt6__ndk14__fs10filesystem14__current_pathEPNS_10error_codeE
000000000012b438 T _ZNSt6__ndk14__fs10filesystem14__current_pathERKNS1_4pathEPNS_10error_codeE
000000000012ac30 T _ZNSt6__ndk14__fs10filesystem14__read_symlinkERKNS1_4pathEPNS_10error_codeE
0000000000126338 T _ZNSt6__ndk14__fs10filesystem15directory_entry12__do_refreshEv
00000000000ccd60 T _ZNSt6__ndk14__fs10filesystem16_FilesystemClock3nowEv
0000000000059c03 V _ZNSt6__ndk14__fs10filesystem16_FilesystemClock9is_steadyE
000000000012a024 T _ZNSt6__ndk14__fs10filesystem16__create_symlinkERKNS1_4pathES4_PNS_10error_codeE
000000000012c6d0 T _ZNSt6__ndk14__fs10filesystem16__symlink_statusERKNS1_4pathEPNS_10error_codeE
00000000000cce70 T _ZNSt6__ndk14__fs10filesystem16filesystem_error13__create_whatEi
00000000000cce44 T _ZNSt6__ndk14__fs10filesystem16filesystem_errorD0Ev
00000000000ccdc8 T _ZNSt6__ndk14__fs10filesystem16filesystem_errorD1Ev
00000000000ccdc8 T _ZNSt6__ndk14__fs10filesystem16filesystem_errorD2Ev
000000000012b878 T _ZNSt6__ndk14__fs10filesystem17__hard_link_countERKNS1_4pathEPNS_10error_codeE
000000000012bc88 T _ZNSt6__ndk14__fs10filesystem17__last_write_timeERKNS1_4pathENS_6chrono10time_pointINS1_16_FilesystemClockENS5_8durationInNS_5ratioILl1ELl1000000000EEEEEEEPNS_10error_codeE
000000000012ba98 T _ZNSt6__ndk14__fs10filesystem17__last_write_timeERKNS1_4pathEPNS_10error_codeE
000000000012aff8 T _ZNSt6__ndk14__fs10filesystem18__create_directoryERKNS1_4pathEPNS_10error_codeE
000000000012a64c T _ZNSt6__ndk14__fs10filesystem18__create_directoryERKNS1_4pathES4_PNS_10error_codeE
000000000012a0e0 T _ZNSt6__ndk14__fs10filesystem18__create_hard_linkERKNS1_4pathES4_PNS_10error_codeE
000000000012c98c T _ZNSt6__ndk14__fs10filesystem18__weakly_canonicalERKNS1_4pathEPNS_10error_codeE
000000000012766c T _ZNSt6__ndk14__fs10filesystem18directory_iterator11__incrementEPNS_10error_codeE
0000000000127390 T _ZNSt6__ndk14__fs10filesystem18directory_iteratorC1ERKNS1_4pathEPNS_10error_codeENS1_17directory_optionsE
0000000000127390 T _ZNSt6__ndk14__fs10filesystem18directory_iteratorC2ERKNS1_4pathEPNS_10error_codeENS1_17directory_optionsE
000000000012ad48 T _ZNSt6__ndk14__fs10filesystem20__create_directoriesERKNS1_4pathEPNS_10error_codeE
000000000012c6fc T _ZNSt6__ndk14__fs10filesystem21__temp_directory_pathEPNS_10error_codeE
000000000012b1c8 T _ZNSt6__ndk14__fs10filesystem26__create_directory_symlinkERKNS1_4pathES4_PNS_10error_codeE
00000000001281f0 T _ZNSt6__ndk14__fs10filesystem28recursive_directory_iterator11__incrementEPNS_10error_codeE
0000000000128278 T _ZNSt6__ndk14__fs10filesystem28recursive_directory_iterator15__try_recursionEPNS_10error_codeE
0000000000127e90 T _ZNSt6__ndk14__fs10filesystem28recursive_directory_iterator5__popEPNS_10error_codeE
0000000000127f34 T _ZNSt6__ndk14__fs10filesystem28recursive_directory_iterator9__advanceEPNS_10error_codeE
00000000001279f8 T _ZNSt6__ndk14__fs10filesystem28recursive_directory_iteratorC1ERKNS1_4pathENS1_17directory_optionsEPNS_10error_codeE
00000000001279f8 T _ZNSt6__ndk14__fs10filesystem28recursive_directory_iteratorC2ERKNS1_4pathENS1_17directory_optionsEPNS_10error_codeE
00000000000cd468 T _ZNSt6__ndk14__fs10filesystem4path17replace_extensionERKS2_
0000000000059c33 V _ZNSt6__ndk14__fs10filesystem4path19preferred_separatorE
00000000000cf168 T _ZNSt6__ndk14__fs10filesystem4path8iterator11__decrementEv
00000000000cf00c T _ZNSt6__ndk14__fs10filesystem4path8iterator11__incrementEv
00000000001299b8 T _ZNSt6__ndk14__fs10filesystem6__copyERKNS1_4pathES4_NS1_12copy_optionsEPNS_10error_codeE
000000000012c55c T _ZNSt6__ndk14__fs10filesystem7__spaceERKNS1_4pathEPNS_10error_codeE
000000000012bf88 T _ZNSt6__ndk14__fs10filesystem8__removeERKNS1_4pathEPNS_10error_codeE
000000000012c3f0 T _ZNSt6__ndk14__fs10filesystem8__renameERKNS1_4pathES4_PNS_10error_codeE
000000000012c6a4 T _ZNSt6__ndk14__fs10filesystem8__statusERKNS1_4pathEPNS_10error_codeE
000000000014cf50 B _ZNSt6__ndk14cerrE
000000000014d090 B _ZNSt6__ndk14clogE
000000000014ce10 B _ZNSt6__ndk14coutE
00000000000da708 T _ZNSt6__ndk14stodERKNS_12basic_stringIcNS_11char_traitsIcEENS_9allocatorIcEEEEPm
00000000000db100 T _ZNSt6__ndk14stodERKNS_12basic_stringIwNS_11char_traitsIwEENS_9allocatorIwEEEEPm
00000000000da5c0 T _ZNSt6__ndk14stofERKNS_12basic_stringIcNS_11char_traitsIcEENS_9allocatorIcEEEEPm
00000000000daf9c T _ZNSt6__ndk14stofERKNS_12basic_stringIwNS_11char_traitsIwEENS_9allocatorIwEEEEPm
00000000000da02c T _ZNSt6__ndk14stoiERKNS_12basic_stringIcNS_11char_traitsIcEENS_9allocatorIcEEEEPmi
00000000000da9b4 T _ZNSt6__ndk14stoiERKNS_12basic_stringIwNS_11char_traitsIwEENS_9allocatorIwEEEEPmi
00000000000da100 T _ZNSt6__ndk14stolERKNS_12basic_stringIcNS_11char_traitsIcEENS_9allocatorIcEEEEPmi
00000000000daa88 T _ZNSt6__ndk14stolERKNS_12basic_stringIwNS_11char_traitsIwEENS_9allocatorIwEEEEPmi
000000000014cd68 B _ZNSt6__ndk14wcinE
00000000000d0a94 T _ZNSt6__ndk15alignEmmRPvRm
00000000000772c8 R _ZNSt6__ndk15ctypeIcE10table_sizeE
0000000000113b40 T _ZNSt6__ndk15ctypeIcE13classic_tableEv
000000000014d6f8 B _ZNSt6__ndk15ctypeIcE2idE
000000000011421c T _ZNSt6__ndk15ctypeIcEC1EPKmbm
000000000011421c T _ZNSt6__ndk15ctypeIcEC2EPKmbm
00000000001142a8 T _ZNSt6__ndk15ctypeIcED0Ev
0000000000114254 T _ZNSt6__ndk15ctypeIcED1Ev
0000000000114254 T _ZNSt6__ndk15ctypeIcED2Ev
000000000014d6e8 B _ZNSt6__ndk15ctypeIwE2idE
0000000000113ae8 T _ZNSt6__ndk15ctypeIwED0Ev
000000000012268c T _ZNSt6__ndk15ctypeIwED1Ev
000000000012268c T _ZNSt6__ndk15ctypeIwED2Ev
00000000000e04b4 T _ZNSt6__ndk15mutex4lockEv
00000000000e0508 T _ZNSt6__ndk15mutex6unlockEv
00000000000e04e0 T _ZNSt6__ndk15mutex8try_lockEv
00000000000e0494 T _ZNSt6__ndk15mutexD1Ev
00000000000e0494 T _ZNSt6__ndk15mutexD2Ev
00000000000da850 T _ZNSt6__ndk15stoldERKNS_12basic_stringIcNS_11char_traitsIcEENS_9allocatorIcEEEEPm
00000000000db264 T _ZNSt6__ndk15stoldERKNS_12basic_stringIwNS_11char_traitsIwEENS_9allocatorIwEEEEPm
00000000000da2e4 T _ZNSt6__ndk15stollERKNS_12basic_stringIcNS_11char_traitsIcEENS_9allocatorIcEEEEPmi
00000000000dac88 T _ZNSt6__ndk15stollERKNS_12basic_stringIwNS_11char_traitsIwEENS_9allocatorIwEEEEPmi
00000000000da178 T _ZNSt6__ndk15stoulERKNS_12basic_stringIcNS_11char_traitsIcEENS_9allocatorIcEEEEPmi
00000000000dab00 T _ZNSt6__ndk15stoulERKNS_12basic_stringIwNS_11char_traitsIwEENS_9allocatorIwEEEEPmi
000000000014cff0 B _ZNSt6__ndk15wcerrE
000000000014d130 B _ZNSt6__ndk15wclogE
000000000014ceb0 B _ZNSt6__ndk15wcoutE
00000000000f5a98 T _ZNSt6__ndk16__clocEv
00000000000caaa4 T _ZNSt6__ndk16__itoa8__u32toaEjPc
00000000000cae70 T _ZNSt6__ndk16__itoa8__u64toaEmPc
00000000000bcf64 W _ZNSt6__ndk16__sortIRNS_6__lessIaaEEPaEEvT0_S5_T_
00000000000bc070 W _ZNSt6__ndk16__sortIRNS_6__lessIccEEPcEEvT0_S5_T_
00000000000c2188 W _ZNSt6__ndk16__sortIRNS_6__lessIddEEPdEEvT0_S5_T_
00000000000c28f4 W _ZNSt6__ndk16__sortIRNS_6__lessIeeEEPeEEvT0_S5_T_
00000000000c1a1c W _ZNSt6__ndk16__sortIRNS_6__lessIffEEPfEEvT0_S5_T_
00000000000bd6ec W _ZNSt6__ndk16__sortIRNS_6__lessIhhEEPhEEvT0_S5_T_
00000000000bed94 W _ZNSt6__ndk16__sortIRNS_6__lessIiiEEPiEEvT0_S5_T_
00000000000bf500 W _ZNSt6__ndk16__sortIRNS_6__lessIjjEEPjEEvT0_S5_T_
00000000000bfc6c W _ZNSt6__ndk16__sortIRNS_6__lessIllEEPlEEvT0_S5_T_
00000000000c03d8 W _ZNSt6__ndk16__sortIRNS_6__lessImmEEPmEEvT0_S5_T_
00000000000bde74 W _ZNSt6__ndk16__sortIRNS_6__lessIssEEPsEEvT0_S5_T_
00000000000be604 W _ZNSt6__ndk16__sortIRNS_6__lessIttEEPtEEvT0_S5_T_
00000000000bc7f8 W _ZNSt6__ndk16__sortIRNS_6__lessIwwEEPwEEvT0_S5_T_
00000000000c0b44 W _ZNSt6__ndk16__sortIRNS_6__lessIxxEEPxEEvT0_S5_T_
00000000000c12b0 W _ZNSt6__ndk16__sortIRNS_6__lessIyyEEPyEEvT0_S5_T_
00000000000ccab0 T _ZNSt6__ndk16chrono12steady_clock3nowEv
0000000000059bd1 V _ZNSt6__ndk16chrono12steady_clock9is_steadyE
00000000000cca9c T _ZNSt6__ndk16chrono12system_clock11from_time_tEl
00000000000cc9fc T _ZNSt6__ndk16chrono12system_clock3nowEv
0000000000059bd0 V _ZNSt6__ndk16chrono12system_clock9is_steadyE
00000000000cca74 T _ZNSt6__ndk16chrono12system_clock9to_time_tERKNS0_10time_pointIS1_NS0_8durationIxNS_5ratioILl1ELl1000000EEEEEEE
00000000000dfe54 T _ZNSt6__ndk16futureIvE3getEv
00000000000dfd94 T _ZNSt6__ndk16futureIvEC1EPNS_17__assoc_sub_stateE
00000000000dfd94 T _ZNSt6__ndk16futureIvEC2EPNS_17__assoc_sub_stateE
00000000000dfe00 T _ZNSt6__ndk16futureIvED1Ev
00000000000dfe00 T _ZNSt6__ndk16futureIvED2Ev
00000000000de900 T _ZNSt6__ndk16gslice6__initEm
000000000011288c T _ZNSt6__ndk16locale14__install_ctorERKS0_PNS0_5facetEl
0000000000112bf0 T _ZNSt6__ndk16locale2id5__getEv
000000000014d6e0 B _ZNSt6__ndk16locale2id9__next_idE
0000000000077264 R _ZNSt6__ndk16locale3allE
0000000000077248 R _ZNSt6__ndk16locale4noneE
000000000007725c R _ZNSt6__ndk16locale4timeE
0000000000077250 R _ZNSt6__ndk16locale5ctypeE
0000000000112e1c T _ZNSt6__ndk16locale5facet16__on_zero_sharedEv
0000000000112df0 T _ZNSt6__ndk16locale5facetD0Ev
000000000012268c T _ZNSt6__ndk16locale5facetD1Ev
000000000012268c T _ZNSt6__ndk16locale5facetD2Ev
0000000000112924 T _ZNSt6__ndk16locale6globalERKS0_
000000000010cf38 T _ZNSt6__ndk16locale7classicEv
000000000007724c R _ZNSt6__ndk16locale7collateE
0000000000077258 R _ZNSt6__ndk16locale7numericE
0000000000112218 T _ZNSt6__ndk16locale8__globalEv
0000000000077260 R _ZNSt6__ndk16locale8messagesE
0000000000077254 R _ZNSt6__ndk16locale8monetaryE
0000000000112480 T _ZNSt6__ndk16localeC1EPKc
00000000001125b4 T _ZNSt6__ndk16localeC1ERKNS_12basic_stringIcNS_11char_traitsIcEENS_9allocatorIcEEEE
0000000000112358 T _ZNSt6__ndk16localeC1ERKS0_
0000000000112620 T _ZNSt6__ndk16localeC1ERKS0_PKci
000000000011276c T _ZNSt6__ndk16localeC1ERKS0_RKNS_12basic_stringIcNS_11char_traitsIcEENS_9allocatorIcEEEEi
00000000001127e4 T _ZNSt6__ndk16localeC1ERKS0_S2_i
00000000001122b0 T _ZNSt6__ndk16localeC1Ev
0000000000112480 T _ZNSt6__ndk16localeC2EPKc
00000000001125b4 T _ZNSt6__ndk16localeC2ERKNS_12basic_stringIcNS_11char_traitsIcEENS_9allocatorIcEEEE
0000000000112358 T _ZNSt6__ndk16localeC2ERKS0_
0000000000112620 T _ZNSt6__ndk16localeC2ERKS0_PKci
000000000011276c T _ZNSt6__ndk16localeC2ERKS0_RKNS_12basic_stringIcNS_11char_traitsIcEENS_9allocatorIcEEEEi
00000000001127e4 T _ZNSt6__ndk16localeC2ERKS0_S2_i
00000000001122b0 T _ZNSt6__ndk16localeC2Ev
0000000000112398 T _ZNSt6__ndk16localeD1Ev
0000000000112398 T _ZNSt6__ndk16localeD2Ev
00000000001123f8 T _ZNSt6__ndk16localeaSERKS0_
00000000000da450 T _ZNSt6__ndk16stoullERKNS_12basic_stringIcNS_11char_traitsIcEENS_9allocatorIcEEEEPmi
00000000000dae10 T _ZNSt6__ndk16stoullERKNS_12basic_stringIwNS_11char_traitsIwEENS_9allocatorIwEEEEPmi
00000000000e10c8 T _ZNSt6__ndk16thread20hardware_concurrencyEv
00000000000e1034 T _ZNSt6__ndk16thread4joinEv
00000000000e1080 T _ZNSt6__ndk16thread6detachEv
00000000000e1014 T _ZNSt6__ndk16threadD1Ev
00000000000e1014 T _ZNSt6__ndk16threadD2Ev
000000000014d758 B _ZNSt6__ndk17codecvtIDiDu9mbstate_tE2idE
00000000001175d4 T _ZNSt6__ndk17codecvtIDiDu9mbstate_tED0Ev
000000000012268c T _ZNSt6__ndk17codecvtIDiDu9mbstate_tED1Ev
000000000012268c T _ZNSt6__ndk17codecvtIDiDu9mbstate_tED2Ev
000000000014d748 B _ZNSt6__ndk17codecvtIDic9mbstate_tE2idE
0000000000116db8 T _ZNSt6__ndk17codecvtIDic9mbstate_tED0Ev
000000000012268c T _ZNSt6__ndk17codecvtIDic9mbstate_tED1Ev
000000000012268c T _ZNSt6__ndk17codecvtIDic9mbstate_tED2Ev
000000000014d738 B _ZNSt6__ndk17codecvtIDsDu9mbstate_tE2idE
0000000000116c6c T _ZNSt6__ndk17codecvtIDsDu9mbstate_tED0Ev
000000000012268c T _ZNSt6__ndk17codecvtIDsDu9mbstate_tED1Ev
000000000012268c T _ZNSt6__ndk17codecvtIDsDu9mbstate_tED2Ev
000000000014d728 B _ZNSt6__ndk17codecvtIDsc9mbstate_tE2idE
0000000000116428 T _ZNSt6__ndk17codecvtIDsc9mbstate_tED0Ev
000000000012268c T _ZNSt6__ndk17codecvtIDsc9mbstate_tED1Ev
000000000012268c T _ZNSt6__ndk17codecvtIDsc9mbstate_tED2Ev
000000000014d708 B _ZNSt6__ndk17codecvtIcc9mbstate_tE2idE
000000000011583c T _ZNSt6__ndk17codecvtIcc9mbstate_tED0Ev
000000000012268c T _ZNSt6__ndk17codecvtIcc9mbstate_tED1Ev
000000000012268c T _ZNSt6__ndk17codecvtIcc9mbstate_tED2Ev
000000000014d718 B _ZNSt6__ndk17codecvtIwc9mbstate_tE2idE
0000000000115988 T _ZNSt6__ndk17codecvtIwc9mbstate_tEC1EPKcm
00000000001158d8 T _ZNSt6__ndk17codecvtIwc9mbstate_tEC1Em
0000000000115988 T _ZNSt6__ndk17codecvtIwc9mbstate_tEC2EPKcm
00000000001158d8 T _ZNSt6__ndk17codecvtIwc9mbstate_tEC2Em
0000000000115aa0 T _ZNSt6__ndk17codecvtIwc9mbstate_tED0Ev
00000000001219d8 T _ZNSt6__ndk17codecvtIwc9mbstate_tED1Ev
00000000001219d8 T _ZNSt6__ndk17codecvtIwc9mbstate_tED2Ev
000000000014d468 V _ZNSt6__ndk17collateIcE2idE
00000000000f126c W _ZNSt6__ndk17collateIcED0Ev
00000000000f1264 W _ZNSt6__ndk17collateIcED1Ev
00000000000f1264 W _ZNSt6__ndk17collateIcED2Ev
000000000014d478 V _ZNSt6__ndk17collateIwE2idE
00000000000f13e4 W _ZNSt6__ndk17collateIwED0Ev
00000000000f13dc W _ZNSt6__ndk17collateIwED1Ev
00000000000f13dc W _ZNSt6__ndk17collateIwED2Ev
000000000014d488 V _ZNSt6__ndk17num_getIcNS_19istreambuf_iteratorIcNS_11char_traitsIcEEEEE2idE
000000000014d498 V _ZNSt6__ndk17num_getIwNS_19istreambuf_iteratorIwNS_11char_traitsIwEEEEE2idE
000000000014d4a8 V _ZNSt6__ndk17num_putIcNS_19ostreambuf_iteratorIcNS_11char_traitsIcEEEEE2idE
000000000014d4b8 V _ZNSt6__ndk17num_putIwNS_19ostreambuf_iteratorIwNS_11char_traitsIwEEEEE2idE
00000000000e0140 T _ZNSt6__ndk17promiseIvE10get_futureEv
00000000000e0208 T _ZNSt6__ndk17promiseIvE13set_exceptionESt13exception_ptr
00000000000e0268 T _ZNSt6__ndk17promiseIvE24set_value_at_thread_exitEv
00000000000e028c T _ZNSt6__ndk17promiseIvE28set_exception_at_thread_exitESt13exception_ptr
00000000000e0168 T _ZNSt6__ndk17promiseIvE9set_valueEv
00000000000dfee0 T _ZNSt6__ndk17promiseIvEC1Ev
00000000000dfee0 T _ZNSt6__ndk17promiseIvEC2Ev
00000000000dff34 T _ZNSt6__ndk17promiseIvED1Ev
00000000000dff34 T _ZNSt6__ndk17promiseIvED2Ev
00000000000d1a98 T _ZNSt6__ndk18__rs_getEv
00000000000d09f8 T _ZNSt6__ndk18__sp_mut4lockEv
00000000000d0a1c T _ZNSt6__ndk18__sp_mut6unlockEv
0000000000076b1c R _ZNSt6__ndk18ios_base10floatfieldE
0000000000076af8 R _ZNSt6__ndk18ios_base10scientificE
0000000000076b14 R _ZNSt6__ndk18ios_base11adjustfieldE
00000000000e24f8 T _ZNSt6__ndk18ios_base15sync_with_stdioEb
00000000000e19d8 T _ZNSt6__ndk18ios_base16__call_callbacksENS0_5eventE
00000000000e1d54 T _ZNSt6__ndk18ios_base17register_callbackEPFvNS0_5eventERS0_iEi
0000000000076b3c R _ZNSt6__ndk18ios_base2inE
00000000000e24a0 T _ZNSt6__ndk18ios_base33__set_badbit_and_consider_rethrowEv
00000000000e24cc T _ZNSt6__ndk18ios_base34__set_failbit_and_consider_rethrowEv
0000000000076b30 R _ZNSt6__ndk18ios_base3appE
0000000000076b34 R _ZNSt6__ndk18ios_base3ateE
0000000000076adc R _ZNSt6__ndk18ios_base3decE
0000000000076ae4 R _ZNSt6__ndk18ios_base3hexE
0000000000076af0 R _ZNSt6__ndk18ios_base3octE
0000000000076b40 R _ZNSt6__ndk18ios_base3outE
00000000000f0424 T _ZNSt6__ndk18ios_base4InitC1Ev
00000000000f0424 T _ZNSt6__ndk18ios_base4InitC2Ev
00000000000f04b4 T _ZNSt6__ndk18ios_base4InitD1Ev
00000000000f04b4 T _ZNSt6__ndk18ios_base4InitD2Ev
00000000000e1fcc T _ZNSt6__ndk18ios_base4initEPv
0000000000076aec R _ZNSt6__ndk18ios_base4leftE
00000000000e22e8 T _ZNSt6__ndk18ios_base4moveERS0_
00000000000e2384 T _ZNSt6__ndk18ios_base4swapERS0_
00000000000e1eec T _ZNSt6__ndk18ios_base5clearEj
0000000000076ae0 R _ZNSt6__ndk18ios_base5fixedE
00000000000e1a3c T _ZNSt6__ndk18ios_base5imbueERKNS_6localeE
00000000000e1b04 T _ZNSt6__ndk18ios_base5iwordEi
00000000000e1c2c T _ZNSt6__ndk18ios_base5pwordEi
0000000000076af4 R _ZNSt6__ndk18ios_base5rightE
0000000000076b44 R _ZNSt6__ndk18ios_base5truncE
0000000000076b20 R _ZNSt6__ndk18ios_base6badbitE
0000000000076b38 R _ZNSt6__ndk18ios_base6binaryE
0000000000076b24 R _ZNSt6__ndk18ios_base6eofbitE
0000000000076b08 R _ZNSt6__ndk18ios_base6skipwsE
00000000000e1adc T _ZNSt6__ndk18ios_base6xallocEv
00000000000e2018 T _ZNSt6__ndk18ios_base7copyfmtERKS0_
0000000000076b28 R _ZNSt6__ndk18ios_base7failbitE
00000000000e1964 T _ZNSt6__ndk18ios_base7failureC1EPKcRKNS_10error_codeE
00000000000e1924 T _ZNSt6__ndk18ios_base7failureC1ERKNS_12basic_stringIcNS_11char_traitsIcEENS_9allocatorIcEEEERKNS_10error_codeE
00000000000e1964 T _ZNSt6__ndk18ios_base7failureC2EPKcRKNS_10error_codeE
00000000000e1924 T _ZNSt6__ndk18ios_base7failureC2ERKNS_12basic_stringIcNS_11char_traitsIcEENS_9allocatorIcEEEERKNS_10error_codeE
00000000000e19ac T _ZNSt6__ndk18ios_base7failureD0Ev
00000000000e19a4 T _ZNSt6__ndk18ios_base7failureD1Ev
00000000000e19a4 T _ZNSt6__ndk18ios_base7failureD2Ev
0000000000076b2c R _ZNSt6__ndk18ios_base7goodbitE
0000000000076b04 R _ZNSt6__ndk18ios_base7showposE
0000000000076b0c R _ZNSt6__ndk18ios_base7unitbufE
0000000000076ae8 R _ZNSt6__ndk18ios_base8internalE
0000000000076afc R _ZNSt6__ndk18ios_base8showbaseE
000000000014cca8 B _ZNSt6__ndk18ios_base9__xindex_E
0000000000076b18 R _ZNSt6__ndk18ios_base9basefieldE
0000000000076ad8 R _ZNSt6__ndk18ios_base9boolalphaE
0000000000076b00 R _ZNSt6__ndk18ios_base9showpointE
0000000000076b10 R _ZNSt6__ndk18ios_base9uppercaseE
00000000000e1ec0 T _ZNSt6__ndk18ios_baseD0Ev
00000000000e1e34 T _ZNSt6__ndk18ios_baseD1Ev
00000000000e1e34 T _ZNSt6__ndk18ios_baseD2Ev
000000000014d588 V _ZNSt6__ndk18messagesIcE2idE
000000000014d598 V _ZNSt6__ndk18messagesIwE2idE
000000000014d768 B _ZNSt6__ndk18numpunctIcE2idE
00000000001199ec T _ZNSt6__ndk18numpunctIcEC1Em
00000000001199ec T _ZNSt6__ndk18numpunctIcEC2Em
0000000000119a98 T _ZNSt6__ndk18numpunctIcED0Ev
0000000000119a48 T _ZNSt6__ndk18numpunctIcED1Ev
0000000000119a48 T _ZNSt6__ndk18numpunctIcED2Ev
000000000014d778 B _ZNSt6__ndk18numpunctIwE2idE
0000000000119a18 T _ZNSt6__ndk18numpunctIwEC1Em
0000000000119a18 T _ZNSt6__ndk18numpunctIwEC2Em
0000000000119b14 T _ZNSt6__ndk18numpunctIwED0Ev
0000000000119ac4 T _ZNSt6__ndk18numpunctIwED1Ev
0000000000119ac4 T _ZNSt6__ndk18numpunctIwED2Ev
000000000014d4c8 V _ZNSt6__ndk18time_getIcNS_19istreambuf_iteratorIcNS_11char_traitsIcEEEEE2idE
000000000014d4d8 V _ZNSt6__ndk18time_getIwNS_19istreambuf_iteratorIwNS_11char_traitsIwEEEEE2idE
000000000014d4e8 V _ZNSt6__ndk18time_putIcNS_19ostreambuf_iteratorIcNS_11char_traitsIcEEEEE2idE
000000000014d4f8 V _ZNSt6__ndk18time_putIwNS_19ostreambuf_iteratorIwNS_11char_traitsIwEEEEE2idE
00000000000cb0f8 T _ZNSt6__ndk18to_charsEPcS0_d
00000000000cb4f0 T _ZNSt6__ndk18to_charsEPcS0_dNS_12chars_formatE
00000000000cb9ac T _ZNSt6__ndk18to_charsEPcS0_dNS_12chars_formatEi
00000000000cb244 T _ZNSt6__ndk18to_charsEPcS0_e
00000000000cb654 T _ZNSt6__ndk18to_charsEPcS0_eNS_12chars_formatE
00000000000cbb98 T _ZNSt6__ndk18to_charsEPcS0_eNS_12chars_formatEi
00000000000cafb0 T _ZNSt6__ndk18to_charsEPcS0_f
00000000000cb390 T _ZNSt6__ndk18to_charsEPcS0_fNS_12chars_formatE
00000000000cb7bc T _ZNSt6__ndk18to_charsEPcS0_fNS_12chars_formatEi
00000000000de82c W _ZNSt6__ndk18valarrayImE6resizeEmm
00000000000de760 W _ZNSt6__ndk18valarrayImEC1Em
00000000000de760 W _ZNSt6__ndk18valarrayImEC2Em
00000000000de7c8 W _ZNSt6__ndk18valarrayImED1Ev
00000000000de7c8 W _ZNSt6__ndk18valarrayImED2Ev
00000000000f5824 W _ZNSt6__ndk19__num_getIcE17__stage2_int_loopEciPcRS2_RjcRKNS_12basic_stringIcNS_11char_traitsIcEENS_9allocatorIcEEEEPjRSD_S2_
00000000000fa3a8 W _ZNSt6__ndk19__num_getIcE17__stage2_int_prepERNS_8ios_baseEPcRc
00000000000fa12c W _ZNSt6__ndk19__num_getIcE19__stage2_float_loopEcRbRcPcRS4_ccRKNS_12basic_stringIcNS_11char_traitsIcEENS_9allocatorIcEEEEPjRSE_RjS4_
00000000000f9f84 W _ZNSt6__ndk19__num_getIcE19__stage2_float_prepERNS_8ios_baseEPcRcS5_
00000000000f9d64 W _ZNSt6__ndk19__num_getIwE17__stage2_int_loopEwiPcRS2_RjwRKNS_12basic_stringIcNS_11char_traitsIcEENS_9allocatorIcEEEEPjRSD_Pw
00000000000fa948 W _ZNSt6__ndk19__num_getIwE17__stage2_int_prepERNS_8ios_baseEPwRw
00000000000fa6e0 W _ZNSt6__ndk19__num_getIwE19__stage2_float_loopEwRbRcPcRS4_wwRKNS_12basic_stringIcNS_11char_traitsIcEENS_9allocatorIcEEEEPjRSE_RjPw
00000000000fa538 W _ZNSt6__ndk19__num_getIwE19__stage2_float_prepERNS_8ios_baseEPwRwS5_
00000000000fdd60 W _ZNSt6__ndk19__num_putIcE21__widen_and_group_intEPcS2_S2_S2_RS2_S3_RKNS_6localeE
00000000000fe154 W _ZNSt6__ndk19__num_putIcE23__widen_and_group_floatEPcS2_S2_S2_RS2_S3_RKNS_6localeE
00000000000fe788 W _ZNSt6__ndk19__num_putIwE21__widen_and_group_intEPcS2_S2_PwRS3_S4_RKNS_6localeE
00000000000feb98 W _ZNSt6__ndk19__num_putIwE23__widen_and_group_floatEPcS2_S2_PwRS3_S4_RKNS_6localeE
00000000000e2570 W _ZNSt6__ndk19basic_iosIcNS_11char_traitsIcEEE7copyfmtERKS3_
00000000000e2544 W _ZNSt6__ndk19basic_iosIcNS_11char_traitsIcEEED0Ev
00000000000e253c W _ZNSt6__ndk19basic_iosIcNS_11char_traitsIcEEED1Ev
00000000000e253c W _ZNSt6__ndk19basic_iosIcNS_11char_traitsIcEEED2Ev
00000000000e78e8 W _ZNSt6__ndk19basic_iosIwNS_11char_traitsIwEEE7copyfmtERKS3_
00000000000e78bc W _ZNSt6__ndk19basic_iosIwNS_11char_traitsIwEEED0Ev
00000000000e78b4 W _ZNSt6__ndk19basic_iosIwNS_11char_traitsIwEEED1Ev
00000000000e78b4 W _ZNSt6__ndk19basic_iosIwNS_11char_traitsIwEEED2Ev
000000000014d548 V _ZNSt6__ndk19money_getIcNS_19istreambuf_iteratorIcNS_11char_traitsIcEEEEE2idE
0000000000104088 W _ZNSt6__ndk19money_getIcNS_19istreambuf_iteratorIcNS_11char_traitsIcEEEEE8__do_getERS4_S4_bRKNS_6localeEjRjRbRKNS_5ctypeIcEERNS_10unique_ptrIcPFvPvEEERPcSM_
000000000014d558 V _ZNSt6__ndk19money_getIwNS_19istreambuf_iteratorIwNS_11char_traitsIwEEEEE2idE
000000000010602c W _ZNSt6__ndk19money_getIwNS_19istreambuf_iteratorIwNS_11char_traitsIwEEEEE8__do_getERS4_S4_bRKNS_6localeEjRjRbRKNS_5ctypeIwEERNS_10unique_ptrIwPFvPvEEERPwSM_
000000000014d568 V _ZNSt6__ndk19money_putIcNS_19ostreambuf_iteratorIcNS_11char_traitsIcEEEEE2idE
000000000014d578 V _ZNSt6__ndk19money_putIwNS_19ostreambuf_iteratorIwNS_11char_traitsIwEEEEE2idE
00000000001261e4 T _ZNSt6__ndk19strstreamD0Ev
00000000001260a8 T _ZNSt6__ndk19strstreamD1Ev
0000000000126054 T _ZNSt6__ndk19strstreamD2Ev
00000000000dcd30 T _ZNSt6__ndk19to_stringEd
00000000000dcee8 T _ZNSt6__ndk19to_stringEe
00000000000dcb74 T _ZNSt6__ndk19to_stringEf
00000000000db3dc T _ZNSt6__ndk19to_stringEi
00000000000db954 T _ZNSt6__ndk19to_stringEj
00000000000db50c T _ZNSt6__ndk19to_stringEl
00000000000dba10 T _ZNSt6__ndk19to_stringEm
00000000000db730 T _ZNSt6__ndk19to_stringEx
00000000000dbbd4 T _ZNSt6__ndk19to_stringEy
00000000000d9efc W _ZNSt6__ndk1plIcNS_11char_traitsIcEENS_9allocatorIcEEEENS_12basic_stringIT_T0_T1_EEPKS6_RKS9_
00000000000a0058 T _ZNSt8bad_castC1Ev
00000000000a0058 T _ZNSt8bad_castC2Ev
00000000000a0078 T _ZNSt8bad_castD0Ev
00000000000a0070 T _ZNSt8bad_castD1Ev
00000000000a0070 T _ZNSt8bad_castD2Ev
000000000009fd00 T _ZNSt9bad_allocC1Ev
000000000009fd00 T _ZNSt9bad_allocC2Ev
000000000009fd18 T _ZNSt9bad_allocD0Ev
000000000009fc80 T _ZNSt9bad_allocD1Ev
000000000009fc80 T _ZNSt9bad_allocD2Ev
000000000009fc88 T _ZNSt9exceptionD0Ev
000000000009fc80 T _ZNSt9exceptionD1Ev
000000000009fc80 T _ZNSt9exceptionD2Ev
00000000000a002c T _ZNSt9type_infoD0Ev
00000000000a0024 T _ZNSt9type_infoD1Ev
00000000000a0024 T _ZNSt9type_infoD2Ev
000000000009f338 T _ZSt10unexpectedv
000000000009f354 T _ZSt13get_terminatev
000000000009ef5c T _ZSt13set_terminatePFvvE
000000000009f2c8 T _ZSt14get_unexpectedv
000000000009ef14 T _ZSt14set_unexpectedPFvvE
000000000009f398 T _ZSt15get_new_handlerv
000000000009ef90 T _ZSt15set_new_handlerPFvvE
00000000000d17fc T _ZSt17__throw_bad_allocv
00000000000ccc80 T _ZSt17current_exceptionv
00000000000ccd48 T _ZSt17rethrow_exceptionSt13exception_ptr
00000000000ccba4 T _ZSt18uncaught_exceptionv
00000000000ccbc8 T _ZSt19uncaught_exceptionsv
0000000000059f2f R _ZSt7nothrow
000000000009f2dc T _ZSt9terminatev
0000000000141420 D _ZTCNSt6__ndk110istrstreamE0_NS_13basic_istreamIcNS_11char_traitsIcEEEE
0000000000141488 D _ZTCNSt6__ndk110ostrstreamE0_NS_13basic_ostreamIcNS_11char_traitsIcEEEE
000000000013df08 V _ZTCNSt6__ndk114basic_ifstreamIcNS_11char_traitsIcEEEE0_NS_13basic_istreamIcS2_EE
000000000013d968 V _ZTCNSt6__ndk114basic_iostreamIcNS_11char_traitsIcEEEE0_NS_13basic_istreamIcS2_EE
000000000013d9b8 V _ZTCNSt6__ndk114basic_iostreamIcNS_11char_traitsIcEEEE16_NS_13basic_ostreamIcS2_EE
000000000013dfe0 V _ZTCNSt6__ndk114basic_ofstreamIcNS_11char_traitsIcEEEE0_NS_13basic_ostreamIcS2_EE
000000000013dc30 V _ZTCNSt6__ndk118basic_stringstreamIcNS_11char_traitsIcEENS_9allocatorIcEEEE0_NS_13basic_istreamIcS2_EE
000000000013dbb8 V _ZTCNSt6__ndk118basic_stringstreamIcNS_11char_traitsIcEENS_9allocatorIcEEEE0_NS_14basic_iostreamIcS2_EE
000000000013dc80 V _ZTCNSt6__ndk118basic_stringstreamIcNS_11char_traitsIcEENS_9allocatorIcEEEE16_NS_13basic_ostreamIcS2_EE
000000000013de30 V _ZTCNSt6__ndk119basic_istringstreamIcNS_11char_traitsIcEENS_9allocatorIcEEEE0_NS_13basic_istreamIcS2_EE
000000000013dd58 V _ZTCNSt6__ndk119basic_ostringstreamIcNS_11char_traitsIcEENS_9allocatorIcEEEE0_NS_13basic_ostreamIcS2_EE
0000000000141568 D _ZTCNSt6__ndk19strstreamE0_NS_13basic_istreamIcNS_11char_traitsIcEEEE
00000000001414f0 D _ZTCNSt6__ndk19strstreamE0_NS_14basic_iostreamIcNS_11char_traitsIcEEEE
00000000001415b8 D _ZTCNSt6__ndk19strstreamE16_NS_13basic_ostreamIcNS_11char_traitsIcEEEE
0000000000139d48 D _ZTIDh
0000000000139f78 D _ZTIDi
0000000000139848 D _ZTIDn
0000000000139f28 D _ZTIDs
0000000000139ed8 D _ZTIDu
000000000013a088 D _ZTIN10__cxxabiv116__enum_type_infoE
00000000001396e0 D _ZTIN10__cxxabiv116__shim_type_infoE
000000000013a000 D _ZTIN10__cxxabiv117__array_type_infoE
00000000001396f8 D _ZTIN10__cxxabiv117__class_type_infoE
0000000000139710 D _ZTIN10__cxxabiv117__pbase_type_infoE
0000000000139728 D _ZTIN10__cxxabiv119__pointer_type_infoE
0000000000139740 D _ZTIN10__cxxabiv120__function_type_infoE
000000000013a140 D _ZTIN10__cxxabiv120__si_class_type_infoE
000000000013a1a8 D _ZTIN10__cxxabiv121__vmi_class_type_infoE
00000000001397e0 D _ZTIN10__cxxabiv123__fundamental_type_infoE
0000000000139758 D _ZTIN10__cxxabiv129__pointer_to_member_type_infoE
000000000013cd40 D _ZTINSt12experimental15fundamentals_v112bad_any_castE
000000000013d178 D _ZTINSt12experimental19bad_optional_accessE
000000000013fa50 V _ZTINSt6__ndk110__time_getE
000000000013fc10 V _ZTINSt6__ndk110__time_putE
000000000013e728 V _ZTINSt6__ndk110ctype_baseE
0000000000141470 D _ZTINSt6__ndk110istrstreamE
000000000013fdc0 V _ZTINSt6__ndk110money_baseE
000000000013fdd0 V _ZTINSt6__ndk110moneypunctIcLb0EEE
000000000013fe78 V _ZTINSt6__ndk110moneypunctIcLb1EEE
000000000013ff20 V _ZTINSt6__ndk110moneypunctIwLb0EEE
000000000013ffc8 V _ZTINSt6__ndk110moneypunctIwLb1EEE
00000000001414d8 D _ZTINSt6__ndk110ostrstreamE
0000000000140258 V _ZTINSt6__ndk111__money_getIcEE
00000000001402d8 V _ZTINSt6__ndk111__money_getIwEE
0000000000140358 V _ZTINSt6__ndk111__money_putIcEE
00000000001403d8 V _ZTINSt6__ndk111__money_putIwEE
00000000001411c8 D _ZTINSt6__ndk111regex_errorE
000000000013ce88 D _ZTINSt6__ndk112bad_weak_ptrE
000000000013e7d0 V _ZTINSt6__ndk112codecvt_baseE
000000000013f2e0 D _ZTINSt6__ndk112ctype_bynameIcEE
000000000013f2f8 D _ZTINSt6__ndk112ctype_bynameIwEE
000000000013d358 D _ZTINSt6__ndk112future_errorE
0000000000141408 D _ZTINSt6__ndk112strstreambufE
000000000013d248 D _ZTINSt6__ndk112system_errorE
000000000013e048 V _ZTINSt6__ndk113basic_filebufIcNS_11char_traitsIcEEEE
000000000013d918 V _ZTINSt6__ndk113basic_istreamIcNS_11char_traitsIcEEEE
000000000013da88 V _ZTINSt6__ndk113basic_istreamIwNS_11char_traitsIwEEEE
000000000013d940 V _ZTINSt6__ndk113basic_ostreamIcNS_11char_traitsIcEEEE
000000000013dab0 V _ZTINSt6__ndk113basic_ostreamIwNS_11char_traitsIwEEEE
0000000000140460 V _ZTINSt6__ndk113messages_baseE
000000000013ede0 D _ZTINSt6__ndk114__codecvt_utf8IDiEE
000000000013ed68 D _ZTINSt6__ndk114__codecvt_utf8IDsEE
000000000013ecf0 D _ZTINSt6__ndk114__codecvt_utf8IwEE
000000000013f470 V _ZTINSt6__ndk114__num_get_baseE
000000000013f628 V _ZTINSt6__ndk114__num_put_baseE
000000000013cec8 D _ZTINSt6__ndk114__shared_countE
000000000013df58 V _ZTINSt6__ndk114basic_ifstreamIcNS_11char_traitsIcEEEE
000000000013da08 V _ZTINSt6__ndk114basic_iostreamIcNS_11char_traitsIcEEEE
000000000013e030 V _ZTINSt6__ndk114basic_ofstreamIcNS_11char_traitsIcEEEE
0000000000140888 V _ZTINSt6__ndk114codecvt_bynameIDiDu9mbstate_tEE
0000000000140798 V _ZTINSt6__ndk114codecvt_bynameIDic9mbstate_tEE
0000000000140810 V _ZTINSt6__ndk114codecvt_bynameIDsDu9mbstate_tEE
0000000000140720 V _ZTINSt6__ndk114codecvt_bynameIDsc9mbstate_tEE
0000000000140630 V _ZTINSt6__ndk114codecvt_bynameIcc9mbstate_tEE
00000000001406a8 V _ZTINSt6__ndk114codecvt_bynameIwc9mbstate_tEE
000000000013f260 D _ZTINSt6__ndk114collate_bynameIcEE
000000000013f290 D _ZTINSt6__ndk114collate_bynameIwEE
000000000013cda0 D _ZTINSt6__ndk114error_categoryE
000000000013f038 D _ZTINSt6__ndk115__codecvt_utf16IDiLb0EEE
000000000013f0b0 D _ZTINSt6__ndk115__codecvt_utf16IDiLb1EEE
000000000013ef48 D _ZTINSt6__ndk115__codecvt_utf16IDsLb0EEE
000000000013efc0 D _ZTINSt6__ndk115__codecvt_utf16IDsLb1EEE
000000000013ee58 D _ZTINSt6__ndk115__codecvt_utf16IwLb0EEE
000000000013eed0 D _ZTINSt6__ndk115__codecvt_utf16IwLb1EEE
000000000013d908 V _ZTINSt6__ndk115basic_streambufIcNS_11char_traitsIcEEEE
000000000013da78 V _ZTINSt6__ndk115basic_streambufIwNS_11char_traitsIwEEEE
000000000013dad8 V _ZTINSt6__ndk115basic_stringbufIcNS_11char_traitsIcEENS_9allocatorIcEEEE
0000000000140560 V _ZTINSt6__ndk115messages_bynameIcEE
00000000001405b8 V _ZTINSt6__ndk115messages_bynameIwEE
000000000013f340 D _ZTINSt6__ndk115numpunct_bynameIcEE
000000000013f358 D _ZTINSt6__ndk115numpunct_bynameIwEE
000000000013fa78 V _ZTINSt6__ndk115time_get_bynameIcNS_19istreambuf_iteratorIcNS_11char_traitsIcEEEEEE
000000000013fba8 V _ZTINSt6__ndk115time_get_bynameIwNS_19istreambuf_iteratorIwNS_11char_traitsIwEEEEEE
000000000013fcf0 V _ZTINSt6__ndk115time_put_bynameIcNS_19ostreambuf_iteratorIcNS_11char_traitsIcEEEEEE
000000000013fd38 V _ZTINSt6__ndk115time_put_bynameIwNS_19ostreambuf_iteratorIwNS_11char_traitsIwEEEEEE
000000000013ead8 D _ZTINSt6__ndk116__narrow_to_utf8ILm16EEE
000000000013eb50 D _ZTINSt6__ndk116__narrow_to_utf8ILm32EEE
000000000013d3a0 D _ZTINSt6__ndk117__assoc_sub_stateE
000000000013ebc8 D _ZTINSt6__ndk117__widen_from_utf8ILm16EEE
000000000013ec40 D _ZTINSt6__ndk117__widen_from_utf8ILm32EEE
000000000013ce48 D _ZTINSt6__ndk117bad_function_callE
0000000000140070 V _ZTINSt6__ndk117moneypunct_bynameIcLb0EEE
00000000001400f8 V _ZTINSt6__ndk117moneypunct_bynameIcLb1EEE
0000000000140180 V _ZTINSt6__ndk117moneypunct_bynameIwLb0EEE
0000000000140208 V _ZTINSt6__ndk117moneypunct_bynameIwLb1EEE
000000000013fa60 V _ZTINSt6__ndk118__time_get_storageIcEE
000000000013fb90 V _ZTINSt6__ndk118__time_get_storageIwEE
000000000013dcd0 V _ZTINSt6__ndk118basic_stringstreamIcNS_11char_traitsIcEENS_9allocatorIcEEEE
000000000013cf10 D _ZTINSt6__ndk119__shared_weak_countE
000000000013de80 V _ZTINSt6__ndk119basic_istringstreamIcNS_11char_traitsIcEENS_9allocatorIcEEEE
000000000013dda8 V _ZTINSt6__ndk119basic_ostringstreamIcNS_11char_traitsIcEENS_9allocatorIcEEEE
000000000013f1a0 D _ZTINSt6__ndk120__codecvt_utf8_utf16IDiEE
000000000013f218 D _ZTINSt6__ndk120__codecvt_utf8_utf16IDsEE
000000000013f128 D _ZTINSt6__ndk120__codecvt_utf8_utf16IwEE
000000000013f818 V _ZTINSt6__ndk120__time_get_c_storageIcEE
000000000013f918 V _ZTINSt6__ndk120__time_get_c_storageIwEE
000000000013d018 D _ZTINSt6__ndk13pmr15memory_resourceE
000000000013d028 D _ZTINSt6__ndk13pmr25monotonic_buffer_resourceE
000000000013d0f8 V _ZTINSt6__ndk13pmr26__null_memory_resource_impE
000000000013d0c8 D _ZTINSt6__ndk13pmr26synchronized_pool_resourceE
000000000013d078 D _ZTINSt6__ndk13pmr28unsynchronized_pool_resourceE
000000000013d0e0 V _ZTINSt6__ndk13pmr32__new_delete_memory_resource_impE
000000000013ce08 D _ZTINSt6__ndk14__fs10filesystem16filesystem_errorE
000000000013f2a8 D _ZTINSt6__ndk15ctypeIcEE
000000000013e738 D _ZTINSt6__ndk15ctypeIwEE
000000000013e688 D _ZTINSt6__ndk16locale5facetE
000000000013ea40 D _ZTINSt6__ndk17codecvtIDiDu9mbstate_tEE
000000000013e9a8 D _ZTINSt6__ndk17codecvtIDic9mbstate_tEE
000000000013e910 D _ZTINSt6__ndk17codecvtIDsDu9mbstate_tEE
000000000013e878 D _ZTINSt6__ndk17codecvtIDsc9mbstate_tEE
000000000013e7e0 D _ZTINSt6__ndk17codecvtIcc9mbstate_tEE
000000000013ecb8 D _ZTINSt6__ndk17codecvtIwc9mbstate_tEE
000000000013f248 V _ZTINSt6__ndk17collateIcEE
000000000013f278 V _ZTINSt6__ndk17collateIwEE
000000000013f4a8 V _ZTINSt6__ndk17num_getIcNS_19istreambuf_iteratorIcNS_11char_traitsIcEEEEEE
000000000013f588 V _ZTINSt6__ndk17num_getIwNS_19istreambuf_iteratorIwNS_11char_traitsIwEEEEEE
000000000013f660 V _ZTINSt6__ndk17num_putIcNS_19ostreambuf_iteratorIcNS_11char_traitsIcEEEEEE
000000000013f728 V _ZTINSt6__ndk17num_putIwNS_19ostreambuf_iteratorIwNS_11char_traitsIwEEEEEE
000000000013d470 D _ZTINSt6__ndk18ios_base7failureE
000000000013d460 D _ZTINSt6__ndk18ios_baseE
0000000000140470 V _ZTINSt6__ndk18messagesIcEE
00000000001404e8 V _ZTINSt6__ndk18messagesIwEE
000000000013f310 D _ZTINSt6__ndk18numpunctIcEE
000000000013f328 D _ZTINSt6__ndk18numpunctIwEE
000000000013f828 V _ZTINSt6__ndk18time_getIcNS_19istreambuf_iteratorIcNS_11char_traitsIcEEEEEE
000000000013f928 V _ZTINSt6__ndk18time_getIwNS_19istreambuf_iteratorIwNS_11char_traitsIwEEEEEE
000000000013fc20 V _ZTINSt6__ndk18time_putIcNS_19ostreambuf_iteratorIcNS_11char_traitsIcEEEEEE
000000000013fc88 V _ZTINSt6__ndk18time_putIwNS_19ostreambuf_iteratorIwNS_11char_traitsIwEEEEEE
000000000013f480 V _ZTINSt6__ndk19__num_getIcEE
000000000013f560 V _ZTINSt6__ndk19__num_getIwEE
000000000013f638 V _ZTINSt6__ndk19__num_putIcEE
000000000013f700 V _ZTINSt6__ndk19__num_putIwEE
000000000013d8f0 V _ZTINSt6__ndk19basic_iosIcNS_11char_traitsIcEEEE
000000000013da60 V _ZTINSt6__ndk19basic_iosIwNS_11char_traitsIwEEEE
0000000000140268 V _ZTINSt6__ndk19money_getIcNS_19istreambuf_iteratorIcNS_11char_traitsIcEEEEEE
00000000001402e8 V _ZTINSt6__ndk19money_getIwNS_19istreambuf_iteratorIwNS_11char_traitsIwEEEEEE
0000000000140368 V _ZTINSt6__ndk19money_putIcNS_19ostreambuf_iteratorIcNS_11char_traitsIcEEEEEE
00000000001403e8 V _ZTINSt6__ndk19money_putIwNS_19ostreambuf_iteratorIwNS_11char_traitsIwEEEEEE
0000000000141608 D _ZTINSt6__ndk19strstreamE
000000000013f808 V _ZTINSt6__ndk19time_baseE
0000000000139d58 D _ZTIPDh
0000000000139f88 D _ZTIPDi
0000000000139858 D _ZTIPDn
0000000000139f38 D _ZTIPDs
0000000000139ee8 D _ZTIPDu
0000000000139d78 D _ZTIPKDh
0000000000139fa8 D _ZTIPKDi
0000000000139878 D _ZTIPKDn
0000000000139f58 D _ZTIPKDs
0000000000139f08 D _ZTIPKDu
0000000000139a08 D _ZTIPKa
00000000001398c8 D _ZTIPKb
0000000000139968 D _ZTIPKc
0000000000139e18 D _ZTIPKd
0000000000139e68 D _ZTIPKe
0000000000139dc8 D _ZTIPKf
0000000000139eb8 D _ZTIPKg
00000000001399b8 D _ZTIPKh
0000000000139af8 D _ZTIPKi
0000000000139b48 D _ZTIPKj
0000000000139b98 D _ZTIPKl
0000000000139be8 D _ZTIPKm
0000000000139cd8 D _ZTIPKn
0000000000139d28 D _ZTIPKo
0000000000139a58 D _ZTIPKs
0000000000139aa8 D _ZTIPKt
0000000000139828 D _ZTIPKv
0000000000139918 D _ZTIPKw
0000000000139c38 D _ZTIPKx
0000000000139c88 D _ZTIPKy
00000000001399e8 D _ZTIPa
00000000001398a8 D _ZTIPb
0000000000139948 D _ZTIPc
0000000000139df8 D _ZTIPd
0000000000139e48 D _ZTIPe
0000000000139da8 D _ZTIPf
0000000000139e98 D _ZTIPg
0000000000139998 D _ZTIPh
0000000000139ad8 D _ZTIPi
0000000000139b28 D _ZTIPj
0000000000139b78 D _ZTIPl
0000000000139bc8 D _ZTIPm
0000000000139cb8 D _ZTIPn
0000000000139d08 D _ZTIPo
0000000000139a38 D _ZTIPs
0000000000139a88 D _ZTIPt
0000000000139808 D _ZTIPv
00000000001398f8 D _ZTIPw
0000000000139c18 D _ZTIPx
0000000000139c68 D _ZTIPy
00000000001396c8 D _ZTISt10bad_typeid
0000000000139468 D _ZTISt11logic_error
0000000000139598 D _ZTISt11range_error
000000000013cd00 D _ZTISt12bad_any_cast
0000000000139480 D _ZTISt12domain_error
0000000000139500 D _ZTISt12length_error
0000000000139540 D _ZTISt12out_of_range
00000000001393a8 D _ZTISt13bad_exception
0000000000139580 D _ZTISt13runtime_error
00000000001395d8 D _ZTISt14overflow_error
0000000000139618 D _ZTISt15underflow_error
00000000001394c0 D _ZTISt16invalid_argument
000000000013cdd0 D _ZTISt16nested_exception
000000000013d2d0 D _ZTISt18bad_variant_access
000000000013d138 D _ZTISt19bad_optional_access
00000000001393d8 D _ZTISt20bad_array_new_length
00000000001396b0 D _ZTISt8bad_cast
00000000001393c0 D _ZTISt9bad_alloc
0000000000139370 D _ZTISt9exception
00000000001396a0 D _ZTISt9type_info
00000000001399d8 D _ZTIa
0000000000139898 D _ZTIb
0000000000139938 D _ZTIc
0000000000139de8 D _ZTId
0000000000139e38 D _ZTIe
0000000000139d98 D _ZTIf
0000000000139e88 D _ZTIg
0000000000139988 D _ZTIh
0000000000139ac8 D _ZTIi
0000000000139b18 D _ZTIj
0000000000139b68 D _ZTIl
0000000000139bb8 D _ZTIm
0000000000139ca8 D _ZTIn
0000000000139cf8 D _ZTIo
0000000000139a28 D _ZTIs
0000000000139a78 D _ZTIt
00000000001397f8 D _ZTIv
00000000001398e8 D _ZTIw
0000000000139c08 D _ZTIx
0000000000139c58 D _ZTIy
00000000000573cc R _ZTSDh
0000000000057414 R _ZTSDi
0000000000057339 R _ZTSDn
0000000000057408 R _ZTSDs
00000000000573fc R _ZTSDu
0000000000057442 R _ZTSN10__cxxabiv116__enum_type_infoE
0000000000057212 R _ZTSN10__cxxabiv116__shim_type_infoE
0000000000057420 R _ZTSN10__cxxabiv117__array_type_infoE
0000000000057233 R _ZTSN10__cxxabiv117__class_type_infoE
0000000000057255 R _ZTSN10__cxxabiv117__pbase_type_infoE
0000000000057277 R _ZTSN10__cxxabiv119__pointer_type_infoE
000000000005729b R _ZTSN10__cxxabiv120__function_type_infoE
0000000000057463 R _ZTSN10__cxxabiv120__si_class_type_infoE
0000000000057488 R _ZTSN10__cxxabiv121__vmi_class_type_infoE
0000000000057308 R _ZTSN10__cxxabiv123__fundamental_type_infoE
00000000000572c0 R _ZTSN10__cxxabiv129__pointer_to_member_type_infoE
00000000000588e9 R _ZTSNSt12experimental15fundamentals_v112bad_any_castE
0000000000059f48 R _ZTSNSt12experimental19bad_optional_accessE
00000000000782a3 V _ZTSNSt6__ndk110__time_getE
0000000000078376 V _ZTSNSt6__ndk110__time_putE
0000000000077afe V _ZTSNSt6__ndk110ctype_baseE
000000000007897a R _ZTSNSt6__ndk110istrstreamE
0000000000078495 V _ZTSNSt6__ndk110money_baseE
0000000000078476 V _ZTSNSt6__ndk110moneypunctIcLb0EEE
00000000000784ad V _ZTSNSt6__ndk110moneypunctIcLb1EEE
00000000000784cc V _ZTSNSt6__ndk110moneypunctIwLb0EEE
00000000000784eb V _ZTSNSt6__ndk110moneypunctIwLb1EEE
0000000000078992 R _ZTSNSt6__ndk110ostrstreamE
00000000000785eb V _ZTSNSt6__ndk111__money_getIcEE
0000000000078650 V _ZTSNSt6__ndk111__money_getIwEE
00000000000786b5 V _ZTSNSt6__ndk111__money_putIcEE
000000000007871a V _ZTSNSt6__ndk111__money_putIwEE
0000000000078903 R _ZTSNSt6__ndk111regex_errorE
0000000000059dd4 R _ZTSNSt6__ndk112bad_weak_ptrE
0000000000077b38 V _ZTSNSt6__ndk112codecvt_baseE
0000000000077ede R _ZTSNSt6__ndk112ctype_bynameIcEE
0000000000077efb R _ZTSNSt6__ndk112ctype_bynameIwEE
0000000000076a78 R _ZTSNSt6__ndk112future_errorE
0000000000078960 R _ZTSNSt6__ndk112strstreambufE
00000000000769d0 R _ZTSNSt6__ndk112system_errorE
0000000000076f59 V _ZTSNSt6__ndk113basic_filebufIcNS_11char_traitsIcEEEE
0000000000076c78 V _ZTSNSt6__ndk113basic_istreamIcNS_11char_traitsIcEEEE
0000000000076d70 V _ZTSNSt6__ndk113basic_istreamIwNS_11char_traitsIwEEEE
0000000000076caa V _ZTSNSt6__ndk113basic_ostreamIcNS_11char_traitsIcEEEE
0000000000076da2 V _ZTSNSt6__ndk113basic_ostreamIwNS_11char_traitsIwEEEE
000000000007874e V _ZTSNSt6__ndk113messages_baseE
0000000000077cd7 R _ZTSNSt6__ndk114__codecvt_utf8IDiEE
0000000000077cb7 R _ZTSNSt6__ndk114__codecvt_utf8IDsEE
0000000000077c76 R _ZTSNSt6__ndk114__codecvt_utf8IwEE
0000000000077fe8 V _ZTSNSt6__ndk114__num_get_baseE
00000000000780c4 V _ZTSNSt6__ndk114__num_put_baseE
0000000000059dee R _ZTSNSt6__ndk114__shared_countE
0000000000076ef3 V _ZTSNSt6__ndk114basic_ifstreamIcNS_11char_traitsIcEEEE
0000000000076cdc V _ZTSNSt6__ndk114basic_iostreamIcNS_11char_traitsIcEEEE
0000000000076f26 V _ZTSNSt6__ndk114basic_ofstreamIcNS_11char_traitsIcEEEE
0000000000078897 V _ZTSNSt6__ndk114codecvt_bynameIDiDu9mbstate_tEE
0000000000078840 V _ZTSNSt6__ndk114codecvt_bynameIDic9mbstate_tEE
000000000007886b V _ZTSNSt6__ndk114codecvt_bynameIDsDu9mbstate_tEE
0000000000078815 V _ZTSNSt6__ndk114codecvt_bynameIDsc9mbstate_tEE
00000000000787c1 V _ZTSNSt6__ndk114codecvt_bynameIcc9mbstate_tEE
00000000000787eb V _ZTSNSt6__ndk114codecvt_bynameIwc9mbstate_tEE
0000000000077e5d R _ZTSNSt6__ndk114collate_bynameIcEE
0000000000077e93 R _ZTSNSt6__ndk114collate_bynameIwEE
0000000000059bd2 R _ZTSNSt6__ndk114error_categoryE
0000000000077d89 R _ZTSNSt6__ndk115__codecvt_utf16IDiLb0EEE
0000000000077dae R _ZTSNSt6__ndk115__codecvt_utf16IDiLb1EEE
0000000000077d3f R _ZTSNSt6__ndk115__codecvt_utf16IDsLb0EEE
0000000000077d64 R _ZTSNSt6__ndk115__codecvt_utf16IDsLb1EEE
0000000000077cf7 R _ZTSNSt6__ndk115__codecvt_utf16IwLb0EEE
0000000000077d1b R _ZTSNSt6__ndk115__codecvt_utf16IwLb1EEE
0000000000076c44 V _ZTSNSt6__ndk115basic_streambufIcNS_11char_traitsIcEEEE
0000000000076d3c V _ZTSNSt6__ndk115basic_streambufIwNS_11char_traitsIwEEEE
0000000000076dd4 V _ZTSNSt6__ndk115basic_stringbufIcNS_11char_traitsIcEENS_9allocatorIcEEEE
0000000000078781 V _ZTSNSt6__ndk115messages_bynameIcEE
00000000000787a1 V _ZTSNSt6__ndk115messages_bynameIwEE
0000000000077f48 R _ZTSNSt6__ndk115numpunct_bynameIcEE
0000000000077f68 R _ZTSNSt6__ndk115numpunct_bynameIwEE
0000000000078230 V _ZTSNSt6__ndk115time_get_bynameIcNS_19istreambuf_iteratorIcNS_11char_traitsIcEEEEEE
00000000000782bb V _ZTSNSt6__ndk115time_get_bynameIwNS_19istreambuf_iteratorIwNS_11char_traitsIwEEEEEE
00000000000783d6 V _ZTSNSt6__ndk115time_put_bynameIcNS_19ostreambuf_iteratorIcNS_11char_traitsIcEEEEEE
0000000000078426 V _ZTSNSt6__ndk115time_put_bynameIwNS_19ostreambuf_iteratorIwNS_11char_traitsIwEEEEEE
0000000000077be0 R _ZTSNSt6__ndk116__narrow_to_utf8ILm16EEE
0000000000077c05 R _ZTSNSt6__ndk116__narrow_to_utf8ILm32EEE
0000000000076a92 R _ZTSNSt6__ndk117__assoc_sub_stateE
0000000000077c2a R _ZTSNSt6__ndk117__widen_from_utf8ILm16EEE
0000000000077c50 R _ZTSNSt6__ndk117__widen_from_utf8ILm32EEE
0000000000059c34 R _ZTSNSt6__ndk117bad_function_callE
000000000007850a V _ZTSNSt6__ndk117moneypunct_bynameIcLb0EEE
0000000000078530 V _ZTSNSt6__ndk117moneypunct_bynameIcLb1EEE
0000000000078556 V _ZTSNSt6__ndk117moneypunct_bynameIwLb0EEE
000000000007857c V _ZTSNSt6__ndk117moneypunct_bynameIwLb1EEE
0000000000078280 V _ZTSNSt6__ndk118__time_get_storageIcEE
000000000007830b V _ZTSNSt6__ndk118__time_get_storageIwEE
0000000000076e19 V _ZTSNSt6__ndk118basic_stringstreamIcNS_11char_traitsIcEENS_9allocatorIcEEEE
0000000000059e0a R _ZTSNSt6__ndk119__shared_weak_countE
0000000000076eaa V _ZTSNSt6__ndk119basic_istringstreamIcNS_11char_traitsIcEENS_9allocatorIcEEEE
0000000000076e61 V _ZTSNSt6__ndk119basic_ostringstreamIcNS_11char_traitsIcEENS_9allocatorIcEEEE
0000000000077df8 R _ZTSNSt6__ndk120__codecvt_utf8_utf16IDiEE
0000000000077e1e R _ZTSNSt6__ndk120__codecvt_utf8_utf16IDsEE
0000000000077dd3 R _ZTSNSt6__ndk120__codecvt_utf8_utf16IwEE
000000000007819e V _ZTSNSt6__ndk120__time_get_c_storageIcEE
000000000007820b V _ZTSNSt6__ndk120__time_get_c_storageIwEE
0000000000059e56 R _ZTSNSt6__ndk13pmr15memory_resourceE
0000000000059e2b R _ZTSNSt6__ndk13pmr25monotonic_buffer_resourceE
0000000000059f03 V _ZTSNSt6__ndk13pmr26__null_memory_resource_impE
0000000000059ea5 R _ZTSNSt6__ndk13pmr26synchronized_pool_resourceE
0000000000059e77 R _ZTSNSt6__ndk13pmr28unsynchronized_pool_resourceE
0000000000059ed1 V _ZTSNSt6__ndk13pmr32__new_delete_memory_resource_impE
0000000000059c04 R _ZTSNSt6__ndk14__fs10filesystem16filesystem_errorE
0000000000077ec9 R _ZTSNSt6__ndk15ctypeIcEE
0000000000077ae9 R _ZTSNSt6__ndk15ctypeIwEE
0000000000077ad0 R _ZTSNSt6__ndk16locale5facetE
0000000000077bbc R _ZTSNSt6__ndk17codecvtIDiDu9mbstate_tEE
0000000000077b99 R _ZTSNSt6__ndk17codecvtIDic9mbstate_tEE
0000000000077b75 R _ZTSNSt6__ndk17codecvtIDsDu9mbstate_tEE
0000000000077b52 R _ZTSNSt6__ndk17codecvtIDsc9mbstate_tEE
0000000000077b16 R _ZTSNSt6__ndk17codecvtIcc9mbstate_tEE
0000000000077c95 R _ZTSNSt6__ndk17codecvtIwc9mbstate_tEE
0000000000077e7c V _ZTSNSt6__ndk17collateIcEE
0000000000077eb2 V _ZTSNSt6__ndk17collateIwEE
0000000000077f88 V _ZTSNSt6__ndk17num_getIcNS_19istreambuf_iteratorIcNS_11char_traitsIcEEEEEE
0000000000078004 V _ZTSNSt6__ndk17num_getIwNS_19istreambuf_iteratorIwNS_11char_traitsIwEEEEEE
0000000000078064 V _ZTSNSt6__ndk17num_putIcNS_19ostreambuf_iteratorIcNS_11char_traitsIcEEEEEE
00000000000780e0 V _ZTSNSt6__ndk17num_putIwNS_19ostreambuf_iteratorIwNS_11char_traitsIwEEEEEE
0000000000076b5d R _ZTSNSt6__ndk18ios_base7failureE
0000000000076b48 R _ZTSNSt6__ndk18ios_baseE
0000000000078736 V _ZTSNSt6__ndk18messagesIcEE
0000000000078769 V _ZTSNSt6__ndk18messagesIwEE
0000000000077f18 R _ZTSNSt6__ndk18numpunctIcEE
0000000000077f30 R _ZTSNSt6__ndk18numpunctIwEE
0000000000078140 V _ZTSNSt6__ndk18time_getIcNS_19istreambuf_iteratorIcNS_11char_traitsIcEEEEEE
00000000000781c3 V _ZTSNSt6__ndk18time_getIwNS_19istreambuf_iteratorIwNS_11char_traitsIwEEEEEE
000000000007832e V _ZTSNSt6__ndk18time_putIcNS_19ostreambuf_iteratorIcNS_11char_traitsIcEEEEEE
000000000007838e V _ZTSNSt6__ndk18time_putIwNS_19ostreambuf_iteratorIwNS_11char_traitsIwEEEEEE
0000000000077fcf V _ZTSNSt6__ndk19__num_getIcEE
000000000007804b V _ZTSNSt6__ndk19__num_getIwEE
00000000000780ab V _ZTSNSt6__ndk19__num_putIcEE
0000000000078127 V _ZTSNSt6__ndk19__num_putIwEE
0000000000076c17 V _ZTSNSt6__ndk19basic_iosIcNS_11char_traitsIcEEEE
