00000000000bb1e8 W _Z3fmtIJNSt6__ndk112basic_stringIcNS0_11char_traitsIcEENS0_9allocatorIcEEEEEES6_DpT_
00000000000be130 W _Z3fmtIJPKcNSt6__ndk112basic_stringIcNS2_11char_traitsIcEENS2_9allocatorIcEEEES1_EES8_DpT_
00000000000b9e70 W _Z3fmtIJPKcS1_EENSt6__ndk112basic_stringIcNS2_11char_traitsIcEENS2_9allocatorIcEEEEDpT_
00000000000ba3e0 W _Z3fmtIJPKcS1_mS1_EENSt6__ndk112basic_stringIcNS2_11char_traitsIcEENS2_9allocatorIcEEEEDpT_
00000000000ba4d0 W _Z3fmtIJPKcS1_mS1_NSt6__ndk112basic_stringIcNS2_11char_traitsIcEENS2_9allocatorIcEEEES1_EES8_DpT_
00000000000ba5ec W _Z3fmtIJPKcS1_mS1_NSt6__ndk112basic_stringIcNS2_11char_traitsIcEENS2_9allocatorIcEEEES1_S8_EES8_DpT_
00000000000be220 W _Z3fmtIJPKclS1_EENSt6__ndk112basic_stringIcNS2_11char_traitsIcEENS2_9allocatorIcEEEEDpT_
00000000000bb524 W _Z4fmt2INSt6__ndk112basic_stringIcNS0_11char_traitsIcEENS0_9allocatorIcEEEEJEEvRNS0_19basic_ostringstreamIcS3_S5_EET_DpT0_
00000000000be56c W _Z4fmt2INSt6__ndk112basic_stringIcNS0_11char_traitsIcEENS0_9allocatorIcEEEEJPKcEEvRNS0_19basic_ostringstreamIcS3_S5_EET_DpT0_
00000000000ca000 W _Z4fmt2INSt6__ndk112basic_stringIcNS0_11char_traitsIcEENS0_9allocatorIcEEEEJPKcS6_EEvRNS0_19basic_ostringstreamIcS3_S5_EET_DpT0_
00000000000be5a4 W _Z4fmt2IPKcJEEvRNSt6__ndk119basic_ostringstreamIcNS2_11char_traitsIcEENS2_9allocatorIcEEEET_DpT0_
00000000000ca0b8 W _Z4fmt2IPKcJNSt6__ndk112basic_stringIcNS2_11char_traitsIcEENS2_9allocatorIcEEEEEEvRNS2_19basic_ostringstreamIcS5_S7_EET_DpT0_
00000000000be464 W _Z4fmt2IPKcJNSt6__ndk112basic_stringIcNS2_11char_traitsIcEENS2_9allocatorIcEEEES1_EEvRNS2_19basic_ostringstreamIcS5_S7_EET_DpT0_
00000000000c9f10 W _Z4fmt2IPKcJNSt6__ndk112basic_stringIcNS2_11char_traitsIcEENS2_9allocatorIcEEEES1_S8_EEvRNS2_19basic_ostringstreamIcS5_S7_EET_DpT0_
00000000000c7864 W _Z4fmt2IPKcJS1_EEvRNSt6__ndk119basic_ostringstreamIcNS2_11char_traitsIcEENS2_9allocatorIcEEEET_DpT0_
00000000000c8114 W _Z4fmt2IPKcJS1_mS1_EEvRNSt6__ndk119basic_ostringstreamIcNS2_11char_traitsIcEENS2_9allocatorIcEEEET_DpT0_
00000000000c9958 W _Z4fmt2IPKcJS1_mS1_NSt6__ndk112basic_stringIcNS2_11char_traitsIcEENS2_9allocatorIcEEEES1_EEvRNS2_19basic_ostringstreamIcS5_S7_EET_DpT0_
00000000000c9be0 W _Z4fmt2IPKcJS1_mS1_NSt6__ndk112basic_stringIcNS2_11char_traitsIcEENS2_9allocatorIcEEEES1_S8_EEvRNS2_19basic_ostringstreamIcS5_S7_EET_DpT0_
00000000000be5dc W _Z4fmt2IPKcJlS1_EEvRNSt6__ndk119basic_ostringstreamIcNS2_11char_traitsIcEENS2_9allocatorIcEEEET_DpT0_
00000000000c8164 W _Z4fmt2IPKcJmS1_EEvRNSt6__ndk119basic_ostringstreamIcNS2_11char_traitsIcEENS2_9allocatorIcEEEET_DpT0_
00000000000c9a40 W _Z4fmt2IPKcJmS1_NSt6__ndk112basic_stringIcNS2_11char_traitsIcEENS2_9allocatorIcEEEES1_EEvRNS2_19basic_ostringstreamIcS5_S7_EET_DpT0_
00000000000c9d00 W _Z4fmt2IPKcJmS1_NSt6__ndk112basic_stringIcNS2_11char_traitsIcEENS2_9allocatorIcEEEES1_S8_EEvRNS2_19basic_ostringstreamIcS5_S7_EET_DpT0_
00000000000be624 W _Z4fmt2IlJPKcEEvRNSt6__ndk119basic_ostringstreamIcNS2_11char_traitsIcEENS2_9allocatorIcEEEET_DpT0_
00000000000c81ac W _Z4fmt2ImJPKcEEvRNSt6__ndk119basic_ostringstreamIcNS2_11char_traitsIcEENS2_9allocatorIcEEEET_DpT0_
00000000000c9b18 W _Z4fmt2ImJPKcNSt6__ndk112basic_stringIcNS2_11char_traitsIcEENS2_9allocatorIcEEEES1_EEvRNS2_19basic_ostringstreamIcS5_S7_EET_DpT0_
00000000000c9e10 W _Z4fmt2ImJPKcNSt6__ndk112basic_stringIcNS2_11char_traitsIcEENS2_9allocatorIcEEEES1_S8_EEvRNS2_19basic_ostringstreamIcS5_S7_EET_DpT0_
00000000000f9fd8 W _ZN4spanI10Elf32_RelaE3endEv
00000000000f9fc0 W _ZN4spanI10Elf32_RelaE5beginEv
00000000000fa000 W _ZN4spanI10Elf32_RelaEC2EPS0_m
000000000011a06c W _ZN4spanI10Elf64_RelaE3endEv
000000000011a054 W _ZN4spanI10Elf64_RelaE5beginEv
000000000011a094 W _ZN4spanI10Elf64_RelaEC2EPS0_m
00000000000ec4f4 W _ZN4spanI12Elf32_VerdefE5beginEv
00000000000ec620 W _ZN4spanI12Elf32_VerdefEC2EPS0_m
0000000000112510 W _ZN4spanI12Elf64_VerdefE5beginEv
000000000011263c W _ZN4spanI12Elf64_VerdefEC2EPS0_m
00000000000ec64c W _ZN4spanI13Elf32_VerneedE5beginEv
00000000000ec798 W _ZN4spanI13Elf32_VerneedEC2EPS0_m
0000000000112668 W _ZN4spanI13Elf64_VerneedE5beginEv
00000000001127b4 W _ZN4spanI13Elf64_VerneedEC2EPS0_m
00000000000ebe78 W _ZN4spanI9Elf32_DynE3endEv
00000000000ebe60 W _ZN4spanI9Elf32_DynE5beginEv
00000000000ec4b4 W _ZN4spanI9Elf32_DynEC2EPS0_m
00000000000f9dc4 W _ZN4spanI9Elf32_RelE3endEv
00000000000f9dac W _ZN4spanI9Elf32_RelE5beginEv
00000000000f9ec4 W _ZN4spanI9Elf32_RelEC2EPS0_m
00000000000f5668 W _ZN4spanI9Elf32_SymE10checkRangeEm
00000000000ebc94 W _ZN4spanI9Elf32_SymE3endEv
00000000000ebc7c W _ZN4spanI9Elf32_SymE5beginEv
00000000000f496c W _ZN4spanI9Elf32_SymEC2EPS0_S2_
00000000000ec380 W _ZN4spanI9Elf32_SymEC2EPS0_m
00000000000f4928 W _ZN4spanI9Elf32_SymEixEm
0000000000111e04 W _ZN4spanI9Elf64_DynE3endEv
0000000000111dec W _ZN4spanI9Elf64_DynE5beginEv
00000000001124d0 W _ZN4spanI9Elf64_DynEC2EPS0_m
0000000000119e58 W _ZN4spanI9Elf64_RelE3endEv
0000000000119e40 W _ZN4spanI9Elf64_RelE5beginEv
0000000000119f5c W _ZN4spanI9Elf64_RelEC2EPS0_m
0000000000116e08 W _ZN4spanI9Elf64_SymE10checkRangeEm
0000000000111c18 W _ZN4spanI9Elf64_SymE3endEv
0000000000111c00 W _ZN4spanI9Elf64_SymE5beginEv
00000000001163d4 W _ZN4spanI9Elf64_SymEC2EPS0_S2_
00000000001123e4 W _ZN4spanI9Elf64_SymEC2EPS0_m
0000000000116388 W _ZN4spanI9Elf64_SymEixEm
00000000000f32e0 W _ZN4spanIcE10checkRangeEm
00000000000f5648 W _ZN4spanIcE3endEv
00000000000f5604 W _ZN4spanIcE5beginEv
00000000000f1860 W _ZN4spanIcEC2EPcm
00000000000f12f8 W _ZN4spanIcEixEm
00000000000fa130 W _ZN4spanIjE10checkRangeEm
00000000000f5538 W _ZN4spanIjE3endEv
00000000000f5520 W _ZN4spanIjE5beginEv
00000000000f561c W _ZN4spanIjEC2EPjm
00000000000f5558 W _ZN4spanIjEixEm
000000000011a1b0 W _ZN4spanImE10checkRangeEm
0000000000116d2c W _ZN4spanImE3endEv
0000000000116d14 W _ZN4spanImE5beginEv
0000000000116ddc W _ZN4spanImEC2EPmm
0000000000116d64 W _ZN4spanImEixEm
00000000000f57fc W _ZN4spanItE10checkRangeEm
00000000000f4b30 W _ZN4spanItE3endEv
00000000000f9098 W _ZN4spanItE5beginEv
00000000000f4b50 W _ZN4spanItEC2EPtS1_
00000000000f57b8 W _ZN4spanItEC2EPtm
00000000000f4aec W _ZN4spanItEixEm
00000000000d41f0 W _ZN7ElfFileI10Elf32_Ehdr10Elf32_Phdr10Elf32_Shdrjj9Elf32_Dyn9Elf32_Symt12Elf32_Verdef13Elf32_Verdaux13Elf32_Verneed13Elf32_Vernaux9Elf32_Rel10Elf32_RelaLj32EE11addDebugTagEv
00000000000d06e0 W _ZN7ElfFileI10Elf32_Ehdr10Elf32_Phdr10Elf32_Shdrjj9Elf32_Dyn9Elf32_Symt12Elf32_Verdef13Elf32_Verdaux13Elf32_Verneed13Elf32_Vernaux9Elf32_Rel10Elf32_RelaLj32EE11modifyOsAbiENSB_9osAbiModeERKNSt6__ndk112basic_stringIcNSD_11char_traitsIcEENSD_9allocatorIcEEEE
00000000000d134c W _ZN7ElfFileI10Elf32_Ehdr10Elf32_Phdr10Elf32_Shdrjj9Elf32_Dyn9Elf32_Symt12Elf32_Verdef13Elf32_Verdaux13Elf32_Verneed13Elf32_Vernaux9Elf32_Rel10Elf32_RelaLj32EE11modifyRPathENSB_7RPathOpERKNSt6__ndk16vectorINSD_12basic_stringIcNSD_11char_traitsIcEENSD_9allocatorIcEEEENSI_ISK_EEEESK_
00000000000e9d80 W _ZN7ElfFileI10Elf32_Ehdr10Elf32_Phdr10Elf32_Shdrjj9Elf32_Dyn9Elf32_Symt12Elf32_Verdef13Elf32_Verdaux13Elf32_Verneed13Elf32_Vernaux9Elf32_Rel10Elf32_RelaLj32EE11removeRPathERS2_
00000000000e9edc W _ZN7ElfFileI10Elf32_Ehdr10Elf32_Phdr10Elf32_Shdrjj9Elf32_Dyn9Elf32_Symt12Elf32_Verdef13Elf32_Verdaux13Elf32_Verneed13Elf32_Vernaux9Elf32_Rel10Elf32_RelaLj32EE11shrinkRPathEPcRNSt6__ndk16vectorINSD_12basic_stringIcNSD_11char_traitsIcEENSD_9allocatorIcEEEENSI_ISK_EEEERKSM_
00000000000d0bd8 W _ZN7ElfFileI10Elf32_Ehdr10Elf32_Phdr10Elf32_Shdrjj9Elf32_Dyn9Elf32_Symt12Elf32_Verdef13Elf32_Verdaux13Elf32_Verneed13Elf32_Vernaux9Elf32_Rel10Elf32_RelaLj32EE12modifySonameENSB_10sonameModeERKNSt6__ndk112basic_stringIcNSD_11char_traitsIcEENSD_9allocatorIcEEEE
00000000000d3e6c W _ZN7ElfFileI10Elf32_Ehdr10Elf32_Phdr10Elf32_Shdrjj9Elf32_Dyn9Elf32_Symt12Elf32_Verdef13Elf32_Verdaux13Elf32_Verneed13Elf32_Vernaux9Elf32_Rel10Elf32_RelaLj32EE12noDefaultLibEv
00000000000d2688 W _ZN7ElfFileI10Elf32_Ehdr10Elf32_Phdr10Elf32_Shdrjj9Elf32_Dyn9Elf32_Symt12Elf32_Verdef13Elf32_Verdaux13Elf32_Verneed13Elf32_Vernaux9Elf32_Rel10Elf32_RelaLj32EE12removeNeededERKNSt6__ndk13setINSC_12basic_stringIcNSC_11char_traitsIcEENSC_9allocatorIcEEEENSC_4lessISJ_EENSH_ISJ_EEEE
00000000000ec0c4 W _ZN7ElfFileI10Elf32_Ehdr10Elf32_Phdr10Elf32_Shdrjj9Elf32_Dyn9Elf32_Symt12Elf32_Verdef13Elf32_Verdaux13Elf32_Verneed13Elf32_Vernaux9Elf32_Rel10Elf32_RelaLj32EE13forAll_ElfVerIZNSB_22forAllStringReferencesIZNSB_11modifyRPathENSB_7RPathOpERKNSt6__ndk16vectorINSF_12basic_stringIcNSF_11char_traitsIcEENSF_9allocatorIcEEEENSK_ISM_EEEESM_EUlT_E_EEvRKS2_OSR_EUlRSR_E1_ZNSD_ISS_EEvSU_SV_EUlSW_E2_EEv4spanIS7_ESV_OT0_
00000000000ebec0 W _ZN7ElfFileI10Elf32_Ehdr10Elf32_Phdr10Elf32_Shdrjj9Elf32_Dyn9Elf32_Symt12Elf32_Verdef13Elf32_Verdaux13Elf32_Verneed13Elf32_Vernaux9Elf32_Rel10Elf32_RelaLj32EE13forAll_ElfVerIZNSB_22forAllStringReferencesIZNSB_11modifyRPathENSB_7RPathOpERKNSt6__ndk16vectorINSF_12basic_stringIcNSF_11char_traitsIcEENSF_9allocatorIcEEEENSK_ISM_EEEESM_EUlT_E_EEvRKS2_OSR_EUlRSR_E_ZNSD_ISS_EEvSU_SV_EUlSW_E0_EEv4spanIS5_ESV_OT0_
00000000000d29ac W _ZN7ElfFileI10Elf32_Ehdr10Elf32_Phdr10Elf32_Shdrjj9Elf32_Dyn9Elf32_Symt12Elf32_Verdef13Elf32_Verdaux13Elf32_Verneed13Elf32_Vernaux9Elf32_Rel10Elf32_RelaLj32EE13replaceNeededERKNSt6__ndk13mapINSC_12basic_stringIcNSC_11char_traitsIcEENSC_9allocatorIcEEEESJ_NSC_4lessISJ_EENSH_INSC_4pairIKSJ_SJ_EEEEEE
00000000000f1118 W _ZN7ElfFileI10Elf32_Ehdr10Elf32_Phdr10Elf32_Shdrjj9Elf32_Dyn9Elf32_Symt12Elf32_Verdef13Elf32_Verdaux13Elf32_Verneed13Elf32_Vernaux9Elf32_Rel10Elf32_RelaLj32EE14getSectionSpanIS4_EE4spanIT_ERKNSt6__ndk112basic_stringIcNSG_11char_traitsIcEENSG_9allocatorIcEEEE
00000000000f1170 W _ZN7ElfFileI10Elf32_Ehdr10Elf32_Phdr10Elf32_Shdrjj9Elf32_Dyn9Elf32_Symt12Elf32_Verdef13Elf32_Verdaux13Elf32_Verneed13Elf32_Vernaux9Elf32_Rel10Elf32_RelaLj32EE14getSectionSpanIcEE4spanIT_ERKNSt6__ndk112basic_stringIcNSG_11char_traitsIcEENSG_9allocatorIcEEEE
00000000000fa3b8 W _ZN7ElfFileI10Elf32_Ehdr10Elf32_Phdr10Elf32_Shdrjj9Elf32_Dyn9Elf32_Symt12Elf32_Verdef13Elf32_Verdaux13Elf32_Verneed13Elf32_Vernaux9Elf32_Rel10Elf32_RelaLj32EE14parseHashTableE4spanIcE
00000000000d6968 W _ZN7ElfFileI10Elf32_Ehdr10Elf32_Phdr10Elf32_Shdrjj9Elf32_Dyn9Elf32_Symt12Elf32_Verdef13Elf32_Verdaux13Elf32_Verneed13Elf32_Vernaux9Elf32_Rel10Elf32_RelaLj32EE14replaceSectionERKNSt6__ndk112basic_stringIcNSC_11char_traitsIcEENSC_9allocatorIcEEEEj
00000000000db180 W _ZN7ElfFileI10Elf32_Ehdr10Elf32_Phdr10Elf32_Shdrjj9Elf32_Dyn9Elf32_Symt12Elf32_Verdef13Elf32_Verdaux13Elf32_Verneed13Elf32_Vernaux9Elf32_Rel10Elf32_RelaLj32EE14rewriteHeadersEj
00000000000d1218 W _ZN7ElfFileI10Elf32_Ehdr10Elf32_Phdr10Elf32_Shdrjj9Elf32_Dyn9Elf32_Symt12Elf32_Verdef13Elf32_Verdaux13Elf32_Verneed13Elf32_Vernaux9Elf32_Rel10Elf32_RelaLj32EE14setInterpreterERKNSt6__ndk112basic_stringIcNSC_11char_traitsIcEENSC_9allocatorIcEEEE
00000000000d1ec0 W _ZN7ElfFileI10Elf32_Ehdr10Elf32_Phdr10Elf32_Shdrjj9Elf32_Dyn9Elf32_Symt12Elf32_Verdef13Elf32_Verdaux13Elf32_Verneed13Elf32_Vernaux9Elf32_Rel10Elf32_RelaLj32EE15modifyExecstackENSB_13ExecstackModeE
00000000000d6e20 W _ZN7ElfFileI10Elf32_Ehdr10Elf32_Phdr10Elf32_Shdrjj9Elf32_Dyn9Elf32_Symt12Elf32_Verdef13Elf32_Verdaux13Elf32_Verneed13Elf32_Vernaux9Elf32_Rel10Elf32_RelaLj32EE15rewriteSectionsEb
00000000000f2330 W _ZN7ElfFileI10Elf32_Ehdr10Elf32_Phdr10Elf32_Shdrjj9Elf32_Dyn9Elf32_Symt12Elf32_Verdef13Elf32_Verdaux13Elf32_Verneed13Elf32_Vernaux9Elf32_Rel10Elf32_RelaLj32EE16rebuildHashTableE4spanIcESC_IS4_E
00000000000f47c4 W _ZN7ElfFileI10Elf32_Ehdr10Elf32_Phdr10Elf32_Shdrjj9Elf32_Dyn9Elf32_Symt12Elf32_Verdef13Elf32_Verdaux13Elf32_Verneed13Elf32_Vernaux9Elf32_Rel10Elf32_RelaLj32EE17parseGnuHashTableE4spanIcE
00000000000ebd8c W _ZN7ElfFileI10Elf32_Ehdr10Elf32_Phdr10Elf32_Shdrjj9Elf32_Dyn9Elf32_Symt12Elf32_Verdef13Elf32_Verdaux13Elf32_Verneed13Elf32_Vernaux9Elf32_Rel10Elf32_RelaLj32EE17tryGetSectionSpanIS3_EE4spanIT_ERKNSt6__ndk112basic_stringIcNSG_11char_traitsIcEENSG_9allocatorIcEEEE
00000000000ebba8 W _ZN7ElfFileI10Elf32_Ehdr10Elf32_Phdr10Elf32_Shdrjj9Elf32_Dyn9Elf32_Symt12Elf32_Verdef13Elf32_Verdaux13Elf32_Verneed13Elf32_Vernaux9Elf32_Rel10Elf32_RelaLj32EE17tryGetSectionSpanIS4_EE4spanIT_ERKNSt6__ndk112basic_stringIcNSG_11char_traitsIcEENSG_9allocatorIcEEEE
00000000000f46c0 W _ZN7ElfFileI10Elf32_Ehdr10Elf32_Phdr10Elf32_Shdrjj9Elf32_Dyn9Elf32_Symt12Elf32_Verdef13Elf32_Verdaux13Elf32_Verneed13Elf32_Vernaux9Elf32_Rel10Elf32_RelaLj32EE17tryGetSectionSpanIcEE4spanIT_ERKNSt6__ndk112basic_stringIcNSG_11char_traitsIcEENSG_9allocatorIcEEEE
00000000000f49e8 W _ZN7ElfFileI10Elf32_Ehdr10Elf32_Phdr10Elf32_Shdrjj9Elf32_Dyn9Elf32_Symt12Elf32_Verdef13Elf32_Verdaux13Elf32_Verneed13Elf32_Vernaux9Elf32_Rel10Elf32_RelaLj32EE17tryGetSectionSpanItEE4spanIT_ERKNSt6__ndk112basic_stringIcNSG_11char_traitsIcEENSG_9allocatorIcEEEE
00000000000d3ab0 W _ZN7ElfFileI10Elf32_Ehdr10Elf32_Phdr10Elf32_Shdrjj9Elf32_Dyn9Elf32_Symt12Elf32_Verdef13Elf32_Verdaux13Elf32_Verneed13Elf32_Vernaux9Elf32_Rel10Elf32_RelaLj32EE19clearSymbolVersionsERKNSt6__ndk13setINSC_12basic_stringIcNSC_11char_traitsIcEENSC_9allocatorIcEEEENSC_4lessISJ_EENSH_ISJ_EEEE
00000000000f1968 W _ZN7ElfFileI10Elf32_Ehdr10Elf32_Phdr10Elf32_Shdrjj9Elf32_Dyn9Elf32_Symt12Elf32_Verdef13Elf32_Verdaux13Elf32_Verneed13Elf32_Vernaux9Elf32_Rel10Elf32_RelaLj32EE19rebuildGnuHashTableE4spanIcESC_IS4_E
00000000000d4518 W _ZN7ElfFileI10Elf32_Ehdr10Elf32_Phdr10Elf32_Shdrjj9Elf32_Dyn9Elf32_Symt12Elf32_Verdef13Elf32_Verdaux13Elf32_Verneed13Elf32_Vernaux9Elf32_Rel10Elf32_RelaLj32EE20renameDynamicSymbolsERKNSt6__ndk113unordered_mapINSC_17basic_string_viewIcNSC_11char_traitsIcEEEENSC_12basic_stringIcSG_NSC_9allocatorIcEEEENSC_4hashISH_EENSC_8equal_toISH_EENSJ_INSC_4pairIKSH_SL_EEEEEE
00000000000da10c W _ZN7ElfFileI10Elf32_Ehdr10Elf32_Phdr10Elf32_Shdrjj9Elf32_Dyn9Elf32_Symt12Elf32_Verdef13Elf32_Verdaux13Elf32_Verneed13Elf32_Vernaux9Elf32_Rel10Elf32_RelaLj32EE21normalizeNoteSegmentsEv
00000000000da6dc W _ZN7ElfFileI10Elf32_Ehdr10Elf32_Phdr10Elf32_Shdrjj9Elf32_Dyn9Elf32_Symt12Elf32_Verdef13Elf32_Verdaux13Elf32_Verneed13Elf32_Vernaux9Elf32_Rel10Elf32_RelaLj32EE21writeReplacedSectionsERjjj
00000000000f5260 W _ZN7ElfFileI10Elf32_Ehdr10Elf32_Phdr10Elf32_Shdrjj9Elf32_Dyn9Elf32_Symt12Elf32_Verdef13Elf32_Verdaux13Elf32_Verneed13Elf32_Vernaux9Elf32_Rel10Elf32_RelaLj32EE22changeRelocTableSymIdsIS9_RZNSB_19rebuildGnuHashTableE4spanIcESD_IS4_EEUlRT_E_EEvRKS2_OT0_
00000000000f53a4 W _ZN7ElfFileI10Elf32_Ehdr10Elf32_Phdr10Elf32_Shdrjj9Elf32_Dyn9Elf32_Symt12Elf32_Verdef13Elf32_Verdaux13Elf32_Verneed13Elf32_Vernaux9Elf32_Rel10Elf32_RelaLj32EE22changeRelocTableSymIdsISA_RZNSB_19rebuildGnuHashTableE4spanIcESD_IS4_EEUlRT_E_EEvRKS2_OT0_
00000000000ea438 W _ZN7ElfFileI10Elf32_Ehdr10Elf32_Phdr10Elf32_Shdrjj9Elf32_Dyn9Elf32_Symt12Elf32_Verdef13Elf32_Verdaux13Elf32_Verneed13Elf32_Vernaux9Elf32_Rel10Elf32_RelaLj32EE22forAllStringReferencesIZNSB_11modifyRPathENSB_7RPathOpERKNSt6__ndk16vectorINSE_12basic_stringIcNSE_11char_traitsIcEENSE_9allocatorIcEEEENSJ_ISL_EEEESL_EUlT_E_EEvRKS2_OSQ_
00000000000d8058 W _ZN7ElfFileI10Elf32_Ehdr10Elf32_Phdr10Elf32_Shdrjj9Elf32_Dyn9Elf32_Symt12Elf32_Verdef13Elf32_Verdaux13Elf32_Verneed13Elf32_Vernaux9Elf32_Rel10Elf32_RelaLj32EE22rewriteSectionsLibraryEv
00000000000d8a08 W _ZN7ElfFileI10Elf32_Ehdr10Elf32_Phdr10Elf32_Shdrjj9Elf32_Dyn9Elf32_Symt12Elf32_Verdef13Elf32_Verdaux13Elf32_Verneed13Elf32_Vernaux9Elf32_Rel10Elf32_RelaLj32EE25rewriteSectionsExecutableEv
00000000000d5a08 W _ZN7ElfFileI10Elf32_Ehdr10Elf32_Phdr10Elf32_Shdrjj9Elf32_Dyn9Elf32_Symt12Elf32_Verdef13Elf32_Verdaux13Elf32_Verneed13Elf32_Vernaux9Elf32_Rel10Elf32_RelaLj32EE3hdrEv
00000000000ec5dc W _ZN7ElfFileI10Elf32_Ehdr10Elf32_Phdr10Elf32_Shdrjj9Elf32_Dyn9Elf32_Symt12Elf32_Verdef13Elf32_Verdaux13Elf32_Verneed13Elf32_Vernaux9Elf32_Rel10Elf32_RelaLj32EE6followIS5_S5_EEPT_PT0_m
00000000000ec520 W _ZN7ElfFileI10Elf32_Ehdr10Elf32_Phdr10Elf32_Shdrjj9Elf32_Dyn9Elf32_Symt12Elf32_Verdef13Elf32_Verdaux13Elf32_Verneed13Elf32_Vernaux9Elf32_Rel10Elf32_RelaLj32EE6followIS6_S5_EEPT_PT0_m
00000000000ec598 W _ZN7ElfFileI10Elf32_Ehdr10Elf32_Phdr10Elf32_Shdrjj9Elf32_Dyn9Elf32_Symt12Elf32_Verdef13Elf32_Verdaux13Elf32_Verneed13Elf32_Vernaux9Elf32_Rel10Elf32_RelaLj32EE6followIS6_S6_EEPT_PT0_m
00000000000ec754 W _ZN7ElfFileI10Elf32_Ehdr10Elf32_Phdr10Elf32_Shdrjj9Elf32_Dyn9Elf32_Symt12Elf32_Verdef13Elf32_Verdaux13Elf32_Verneed13Elf32_Vernaux9Elf32_Rel10Elf32_RelaLj32EE6followIS7_S7_EEPT_PT0_m
00000000000ec698 W _ZN7ElfFileI10Elf32_Ehdr10Elf32_Phdr10Elf32_Shdrjj9Elf32_Dyn9Elf32_Symt12Elf32_Verdef13Elf32_Verdaux13Elf32_Verneed13Elf32_Vernaux9Elf32_Rel10Elf32_RelaLj32EE6followIS8_S7_EEPT_PT0_m
00000000000ec710 W _ZN7ElfFileI10Elf32_Ehdr10Elf32_Phdr10Elf32_Shdrjj9Elf32_Dyn9Elf32_Symt12Elf32_Verdef13Elf32_Verdaux13Elf32_Verneed13Elf32_Vernaux9Elf32_Rel10Elf32_RelaLj32EE6followIS8_S8_EEPT_PT0_m
00000000000d3498 W _ZN7ElfFileI10Elf32_Ehdr10Elf32_Phdr10Elf32_Shdrjj9Elf32_Dyn9Elf32_Symt12Elf32_Verdef13Elf32_Verdaux13Elf32_Verneed13Elf32_Vernaux9Elf32_Rel10Elf32_RelaLj32EE9addNeededERKNSt6__ndk13setINSC_12basic_stringIcNSC_11char_traitsIcEENSC_9allocatorIcEEEENSC_4lessISJ_EENSH_ISJ_EEEE
00000000000e9260 W _ZN7ElfFileI10Elf32_Ehdr10Elf32_Phdr10Elf32_Shdrjj9Elf32_Dyn9Elf32_Symt12Elf32_Verdef13Elf32_Verdaux13Elf32_Verneed13Elf32_Vernaux9Elf32_Rel10Elf32_RelaLj32EE9shiftFileEjmm
00000000000e14b0 W _ZN7ElfFileI10Elf32_Ehdr10Elf32_Phdr10Elf32_Shdrjj9Elf32_Dyn9Elf32_Symt12Elf32_Verdef13Elf32_Verdaux13Elf32_Verneed13Elf32_Vernaux9Elf32_Rel10Elf32_RelaLj32EE9sortPhdrsEv
00000000000e1538 W _ZN7ElfFileI10Elf32_Ehdr10Elf32_Phdr10Elf32_Shdrjj9Elf32_Dyn9Elf32_Symt12Elf32_Verdef13Elf32_Verdaux13Elf32_Verneed13Elf32_Vernaux9Elf32_Rel10Elf32_RelaLj32EE9sortShdrsEv
00000000000ceac0 W _ZN7ElfFileI10Elf32_Ehdr10Elf32_Phdr10Elf32_Shdrjj9Elf32_Dyn9Elf32_Symt12Elf32_Verdef13Elf32_Verdaux13Elf32_Verneed13Elf32_Vernaux9Elf32_Rel10Elf32_RelaLj32EEC2ENSt6__ndk110shared_ptrINSC_6vectorIhNSC_9allocatorIhEEEEEE
00000000000cf43c W _ZN7ElfFileI10Elf32_Ehdr10Elf32_Phdr10Elf32_Shdrjj9Elf32_Dyn9Elf32_Symt12Elf32_Verdef13Elf32_Verdaux13Elf32_Verneed13Elf32_Vernaux9Elf32_Rel10Elf32_RelaLj32EED2Ev
00000000000ffe14 W _ZN7ElfFileI10Elf64_Ehdr10Elf64_Phdr10Elf64_Shdrmm9Elf64_Dyn9Elf64_Symt12Elf64_Verdef13Elf64_Verdaux13Elf64_Verneed13Elf64_Vernaux9Elf64_Rel10Elf64_RelaLj64EE11addDebugTagEv
00000000000fc1ac W _ZN7ElfFileI10Elf64_Ehdr10Elf64_Phdr10Elf64_Shdrmm9Elf64_Dyn9Elf64_Symt12Elf64_Verdef13Elf64_Verdaux13Elf64_Verneed13Elf64_Vernaux9Elf64_Rel10Elf64_RelaLj64EE11modifyOsAbiENSB_9osAbiModeERKNSt6__ndk112basic_stringIcNSD_11char_traitsIcEENSD_9allocatorIcEEEE
00000000000fce48 W _ZN7ElfFileI10Elf64_Ehdr10Elf64_Phdr10Elf64_Shdrmm9Elf64_Dyn9Elf64_Symt12Elf64_Verdef13Elf64_Verdaux13Elf64_Verneed13Elf64_Vernaux9Elf64_Rel10Elf64_RelaLj64EE11modifyRPathENSB_7RPathOpERKNSt6__ndk16vectorINSD_12basic_stringIcNSD_11char_traitsIcEENSD_9allocatorIcEEEENSI_ISK_EEEESK_
0000000000111070 W _ZN7ElfFileI10Elf64_Ehdr10Elf64_Phdr10Elf64_Shdrmm9Elf64_Dyn9Elf64_Symt12Elf64_Verdef13Elf64_Verdaux13Elf64_Verneed13Elf64_Vernaux9Elf64_Rel10Elf64_RelaLj64EE11removeRPathERS2_
00000000001111cc W _ZN7ElfFileI10Elf64_Ehdr10Elf64_Phdr10Elf64_Shdrmm9Elf64_Dyn9Elf64_Symt12Elf64_Verdef13Elf64_Verdaux13Elf64_Verneed13Elf64_Vernaux9Elf64_Rel10Elf64_RelaLj64EE11shrinkRPathEPcRNSt6__ndk16vectorINSD_12basic_stringIcNSD_11char_traitsIcEENSD_9allocatorIcEEEENSI_ISK_EEEERKSM_
00000000000fc6a4 W _ZN7ElfFileI10Elf64_Ehdr10Elf64_Phdr10Elf64_Shdrmm9Elf64_Dyn9Elf64_Symt12Elf64_Verdef13Elf64_Verdaux13Elf64_Verneed13Elf64_Vernaux9Elf64_Rel10Elf64_RelaLj64EE12modifySonameENSB_10sonameModeERKNSt6__ndk112basic_stringIcNSD_11char_traitsIcEENSD_9allocatorIcEEEE
00000000000ffa80 W _ZN7ElfFileI10Elf64_Ehdr10Elf64_Phdr10Elf64_Shdrmm9Elf64_Dyn9Elf64_Symt12Elf64_Verdef13Elf64_Verdaux13Elf64_Verneed13Elf64_Vernaux9Elf64_Rel10Elf64_RelaLj64EE12noDefaultLibEv
00000000000fe210 W _ZN7ElfFileI10Elf64_Ehdr10Elf64_Phdr10Elf64_Shdrmm9Elf64_Dyn9Elf64_Symt12Elf64_Verdef13Elf64_Verdaux13Elf64_Verneed13Elf64_Vernaux9Elf64_Rel10Elf64_RelaLj64EE12removeNeededERKNSt6__ndk13setINSC_12basic_stringIcNSC_11char_traitsIcEENSC_9allocatorIcEEEENSC_4lessISJ_EENSH_ISJ_EEEE
0000000000112124 W _ZN7ElfFileI10Elf64_Ehdr10Elf64_Phdr10Elf64_Shdrmm9Elf64_Dyn9Elf64_Symt12Elf64_Verdef13Elf64_Verdaux13Elf64_Verneed13Elf64_Vernaux9Elf64_Rel10Elf64_RelaLj64EE13forAll_ElfVerIZNSB_22forAllStringReferencesIZNSB_11modifyRPathENSB_7RPathOpERKNSt6__ndk16vectorINSF_12basic_stringIcNSF_11char_traitsIcEENSF_9allocatorIcEEEENSK_ISM_EEEESM_EUlT_E_EEvRKS2_OSR_EUlRSR_E1_ZNSD_ISS_EEvSU_SV_EUlSW_E2_EEv4spanIS7_ESV_OT0_
0000000000111f24 W _ZN7ElfFileI10Elf64_Ehdr10Elf64_Phdr10Elf64_Shdrmm9Elf64_Dyn9Elf64_Symt12Elf64_Verdef13Elf64_Verdaux13Elf64_Verneed13Elf64_Vernaux9Elf64_Rel10Elf64_RelaLj64EE13forAll_ElfVerIZNSB_22forAllStringReferencesIZNSB_11modifyRPathENSB_7RPathOpERKNSt6__ndk16vectorINSF_12basic_stringIcNSF_11char_traitsIcEENSF_9allocatorIcEEEENSK_ISM_EEEESM_EUlT_E_EEvRKS2_OSR_EUlRSR_E_ZNSD_ISS_EEvSU_SV_EUlSW_E0_EEv4spanIS5_ESV_OT0_
00000000000fe544 W _ZN7ElfFileI10Elf64_Ehdr10Elf64_Phdr10Elf64_Shdrmm9Elf64_Dyn9Elf64_Symt12Elf64_Verdef13Elf64_Verdaux13Elf64_Verneed13Elf64_Vernaux9Elf64_Rel10Elf64_RelaLj64EE13replaceNeededERKNSt6__ndk13mapINSC_12basic_stringIcNSC_11char_traitsIcEENSC_9allocatorIcEEEESJ_NSC_4lessISJ_EENSH_INSC_4pairIKSJ_SJ_EEEEEE
00000000001152a8 W _ZN7ElfFileI10Elf64_Ehdr10Elf64_Phdr10Elf64_Shdrmm9Elf64_Dyn9Elf64_Symt12Elf64_Verdef13Elf64_Verdaux13Elf64_Verneed13Elf64_Vernaux9Elf64_Rel10Elf64_RelaLj64EE14getSectionSpanIS4_EE4spanIT_ERKNSt6__ndk112basic_stringIcNSG_11char_traitsIcEENSG_9allocatorIcEEEE
0000000000115300 W _ZN7ElfFileI10Elf64_Ehdr10Elf64_Phdr10Elf64_Shdrmm9Elf64_Dyn9Elf64_Symt12Elf64_Verdef13Elf64_Verdaux13Elf64_Verneed13Elf64_Vernaux9Elf64_Rel10Elf64_RelaLj64EE14getSectionSpanIcEE4spanIT_ERKNSt6__ndk112basic_stringIcNSG_11char_traitsIcEENSG_9allocatorIcEEEE
000000000011a360 W _ZN7ElfFileI10Elf64_Ehdr10Elf64_Phdr10Elf64_Shdrmm9Elf64_Dyn9Elf64_Symt12Elf64_Verdef13Elf64_Verdaux13Elf64_Verneed13Elf64_Vernaux9Elf64_Rel10Elf64_RelaLj64EE14parseHashTableE4spanIcE
0000000000101408 W _ZN7ElfFileI10Elf64_Ehdr10Elf64_Phdr10Elf64_Shdrmm9Elf64_Dyn9Elf64_Symt12Elf64_Verdef13Elf64_Verdaux13Elf64_Verneed13Elf64_Vernaux9Elf64_Rel10Elf64_RelaLj64EE14replaceSectionERKNSt6__ndk112basic_stringIcNSC_11char_traitsIcEENSC_9allocatorIcEEEEj
0000000000104730 W _ZN7ElfFileI10Elf64_Ehdr10Elf64_Phdr10Elf64_Shdrmm9Elf64_Dyn9Elf64_Symt12Elf64_Verdef13Elf64_Verdaux13Elf64_Verneed13Elf64_Vernaux9Elf64_Rel10Elf64_RelaLj64EE14rewriteHeadersEm
00000000000fcd14 W _ZN7ElfFileI10Elf64_Ehdr10Elf64_Phdr10Elf64_Shdrmm9Elf64_Dyn9Elf64_Symt12Elf64_Verdef13Elf64_Verdaux13Elf64_Verneed13Elf64_Vernaux9Elf64_Rel10Elf64_RelaLj64EE14setInterpreterERKNSt6__ndk112basic_stringIcNSC_11char_traitsIcEENSC_9allocatorIcEEEE
00000000000fd9c4 W _ZN7ElfFileI10Elf64_Ehdr10Elf64_Phdr10Elf64_Shdrmm9Elf64_Dyn9Elf64_Symt12Elf64_Verdef13Elf64_Verdaux13Elf64_Verneed13Elf64_Vernaux9Elf64_Rel10Elf64_RelaLj64EE15modifyExecstackENSB_13ExecstackModeE
00000000001016d8 W _ZN7ElfFileI10Elf64_Ehdr10Elf64_Phdr10Elf64_Shdrmm9Elf64_Dyn9Elf64_Symt12Elf64_Verdef13Elf64_Verdaux13Elf64_Verneed13Elf64_Vernaux9Elf64_Rel10Elf64_RelaLj64EE15rewriteSectionsEb
0000000000115d14 W _ZN7ElfFileI10Elf64_Ehdr10Elf64_Phdr10Elf64_Shdrmm9Elf64_Dyn9Elf64_Symt12Elf64_Verdef13Elf64_Verdaux13Elf64_Verneed13Elf64_Vernaux9Elf64_Rel10Elf64_RelaLj64EE16rebuildHashTableE4spanIcESC_IS4_E
000000000011623c W _ZN7ElfFileI10Elf64_Ehdr10Elf64_Phdr10Elf64_Shdrmm9Elf64_Dyn9Elf64_Symt12Elf64_Verdef13Elf64_Verdaux13Elf64_Verneed13Elf64_Vernaux9Elf64_Rel10Elf64_RelaLj64EE17parseGnuHashTableE4spanIcE
0000000000111d18 W _ZN7ElfFileI10Elf64_Ehdr10Elf64_Phdr10Elf64_Shdrmm9Elf64_Dyn9Elf64_Symt12Elf64_Verdef13Elf64_Verdaux13Elf64_Verneed13Elf64_Vernaux9Elf64_Rel10Elf64_RelaLj64EE17tryGetSectionSpanIS3_EE4spanIT_ERKNSt6__ndk112basic_stringIcNSG_11char_traitsIcEENSG_9allocatorIcEEEE
0000000000111b2c W _ZN7ElfFileI10Elf64_Ehdr10Elf64_Phdr10Elf64_Shdrmm9Elf64_Dyn9Elf64_Symt12Elf64_Verdef13Elf64_Verdaux13Elf64_Verneed13Elf64_Vernaux9Elf64_Rel10Elf64_RelaLj64EE17tryGetSectionSpanIS4_EE4spanIT_ERKNSt6__ndk112basic_stringIcNSG_11char_traitsIcEENSG_9allocatorIcEEEE
0000000000116168 W _ZN7ElfFileI10Elf64_Ehdr10Elf64_Phdr10Elf64_Shdrmm9Elf64_Dyn9Elf64_Symt12Elf64_Verdef13Elf64_Verdaux13Elf64_Verneed13Elf64_Vernaux9Elf64_Rel10Elf64_RelaLj64EE17tryGetSectionSpanIcEE4spanIT_ERKNSt6__ndk112basic_stringIcNSG_11char_traitsIcEENSG_9allocatorIcEEEE
0000000000116450 W _ZN7ElfFileI10Elf64_Ehdr10Elf64_Phdr10Elf64_Shdrmm9Elf64_Dyn9Elf64_Symt12Elf64_Verdef13Elf64_Verdaux13Elf64_Verneed13Elf64_Vernaux9Elf64_Rel10Elf64_RelaLj64EE17tryGetSectionSpanItEE4spanIT_ERKNSt6__ndk112basic_stringIcNSG_11char_traitsIcEENSG_9allocatorIcEEEE
00000000000ff694 W _ZN7ElfFileI10Elf64_Ehdr10Elf64_Phdr10Elf64_Shdrmm9Elf64_Dyn9Elf64_Symt12Elf64_Verdef13Elf64_Verdaux13Elf64_Verneed13Elf64_Vernaux9Elf64_Rel10Elf64_RelaLj64EE19clearSymbolVersionsERKNSt6__ndk13setINSC_12basic_stringIcNSC_11char_traitsIcEENSC_9allocatorIcEEEENSC_4lessISJ_EENSH_ISJ_EEEE
0000000000115358 W _ZN7ElfFileI10Elf64_Ehdr10Elf64_Phdr10Elf64_Shdrmm9Elf64_Dyn9Elf64_Symt12Elf64_Verdef13Elf64_Verdaux13Elf64_Verneed13Elf64_Vernaux9Elf64_Rel10Elf64_RelaLj64EE19rebuildGnuHashTableE4spanIcESC_IS4_E
0000000000100154 W _ZN7ElfFileI10Elf64_Ehdr10Elf64_Phdr10Elf64_Shdrmm9Elf64_Dyn9Elf64_Symt12Elf64_Verdef13Elf64_Verdaux13Elf64_Verneed13Elf64_Vernaux9Elf64_Rel10Elf64_RelaLj64EE20renameDynamicSymbolsERKNSt6__ndk113unordered_mapINSC_17basic_string_viewIcNSC_11char_traitsIcEEEENSC_12basic_stringIcSG_NSC_9allocatorIcEEEENSC_4hashISH_EENSC_8equal_toISH_EENSJ_INSC_4pairIKSH_SL_EEEEEE
0000000000103694 W _ZN7ElfFileI10Elf64_Ehdr10Elf64_Phdr10Elf64_Shdrmm9Elf64_Dyn9Elf64_Symt12Elf64_Verdef13Elf64_Verdaux13Elf64_Verneed13Elf64_Vernaux9Elf64_Rel10Elf64_RelaLj64EE21normalizeNoteSegmentsEv
0000000000103c80 W _ZN7ElfFileI10Elf64_Ehdr10Elf64_Phdr10Elf64_Shdrmm9Elf64_Dyn9Elf64_Symt12Elf64_Verdef13Elf64_Verdaux13Elf64_Verneed13Elf64_Vernaux9Elf64_Rel10Elf64_RelaLj64EE21writeReplacedSectionsERmmm
0000000000116a54 W _ZN7ElfFileI10Elf64_Ehdr10Elf64_Phdr10Elf64_Shdrmm9Elf64_Dyn9Elf64_Symt12Elf64_Verdef13Elf64_Verdaux13Elf64_Verneed13Elf64_Vernaux9Elf64_Rel10Elf64_RelaLj64EE22changeRelocTableSymIdsIS9_RZNSB_19rebuildGnuHashTableE4spanIcESD_IS4_EEUlRT_E_EEvRKS2_OT0_
0000000000116b98 W _ZN7ElfFileI10Elf64_Ehdr10Elf64_Phdr10Elf64_Shdrmm9Elf64_Dyn9Elf64_Symt12Elf64_Verdef13Elf64_Verdaux13Elf64_Verneed13Elf64_Vernaux9Elf64_Rel10Elf64_RelaLj64EE22changeRelocTableSymIdsISA_RZNSB_19rebuildGnuHashTableE4spanIcESD_IS4_EEUlRT_E_EEvRKS2_OT0_
00000000001116e0 W _ZN7ElfFileI10Elf64_Ehdr10Elf64_Phdr10Elf64_Shdrmm9Elf64_Dyn9Elf64_Symt12Elf64_Verdef13Elf64_Verdaux13Elf64_Verneed13Elf64_Vernaux9Elf64_Rel10Elf64_RelaLj64EE22forAllStringReferencesIZNSB_11modifyRPathENSB_7RPathOpERKNSt6__ndk16vectorINSE_12basic_stringIcNSE_11char_traitsIcEENSE_9allocatorIcEEEENSJ_ISL_EEEESL_EUlT_E_EEvRKS2_OSQ_
000000000010189c W _ZN7ElfFileI10Elf64_Ehdr10Elf64_Phdr10Elf64_Shdrmm9Elf64_Dyn9Elf64_Symt12Elf64_Verdef13Elf64_Verdaux13Elf64_Verneed13Elf64_Vernaux9Elf64_Rel10Elf64_RelaLj64EE22rewriteSectionsLibraryEv
0000000000102238 W _ZN7ElfFileI10Elf64_Ehdr10Elf64_Phdr10Elf64_Shdrmm9Elf64_Dyn9Elf64_Symt12Elf64_Verdef13Elf64_Verdaux13Elf64_Verneed13Elf64_Vernaux9Elf64_Rel10Elf64_RelaLj64EE25rewriteSectionsExecutableEv
00000000001012bc W _ZN7ElfFileI10Elf64_Ehdr10Elf64_Phdr10Elf64_Shdrmm9Elf64_Dyn9Elf64_Symt12Elf64_Verdef13Elf64_Verdaux13Elf64_Verneed13Elf64_Vernaux9Elf64_Rel10Elf64_RelaLj64EE3hdrEv
00000000001125f8 W _ZN7ElfFileI10Elf64_Ehdr10Elf64_Phdr10Elf64_Shdrmm9Elf64_Dyn9Elf64_Symt12Elf64_Verdef13Elf64_Verdaux13Elf64_Verneed13Elf64_Vernaux9Elf64_Rel10Elf64_RelaLj64EE6followIS5_S5_EEPT_PT0_m
000000000011253c W _ZN7ElfFileI10Elf64_Ehdr10Elf64_Phdr10Elf64_Shdrmm9Elf64_Dyn9Elf64_Symt12Elf64_Verdef13Elf64_Verdaux13Elf64_Verneed13Elf64_Vernaux9Elf64_Rel10Elf64_RelaLj64EE6followIS6_S5_EEPT_PT0_m
00000000001125b4 W _ZN7ElfFileI10Elf64_Ehdr10Elf64_Phdr10Elf64_Shdrmm9Elf64_Dyn9Elf64_Symt12Elf64_Verdef13Elf64_Verdaux13Elf64_Verneed13Elf64_Vernaux9Elf64_Rel10Elf64_RelaLj64EE6followIS6_S6_EEPT_PT0_m
0000000000112770 W _ZN7ElfFileI10Elf64_Ehdr10Elf64_Phdr10Elf64_Shdrmm9Elf64_Dyn9Elf64_Symt12Elf64_Verdef13Elf64_Verdaux13Elf64_Verneed13Elf64_Vernaux9Elf64_Rel10Elf64_RelaLj64EE6followIS7_S7_EEPT_PT0_m
00000000001126b4 W _ZN7ElfFileI10Elf64_Ehdr10Elf64_Phdr10Elf64_Shdrmm9Elf64_Dyn9Elf64_Symt12Elf64_Verdef13Elf64_Verdaux13Elf64_Verneed13Elf64_Vernaux9Elf64_Rel10Elf64_RelaLj64EE6followIS8_S7_EEPT_PT0_m
000000000011272c W _ZN7ElfFileI10Elf64_Ehdr10Elf64_Phdr10Elf64_Shdrmm9Elf64_Dyn9Elf64_Symt12Elf64_Verdef13Elf64_Verdaux13Elf64_Verneed13Elf64_Vernaux9Elf64_Rel10Elf64_RelaLj64EE6followIS8_S8_EEPT_PT0_m
00000000000ff05c W _ZN7ElfFileI10Elf64_Ehdr10Elf64_Phdr10Elf64_Shdrmm9Elf64_Dyn9Elf64_Symt12Elf64_Verdef13Elf64_Verdaux13Elf64_Verneed13Elf64_Vernaux9Elf64_Rel10Elf64_RelaLj64EE9addNeededERKNSt6__ndk13setINSC_12basic_stringIcNSC_11char_traitsIcEENSC_9allocatorIcEEEENSC_4lessISJ_EENSH_ISJ_EEEE
00000000001105e4 W _ZN7ElfFileI10Elf64_Ehdr10Elf64_Phdr10Elf64_Shdrmm9Elf64_Dyn9Elf64_Symt12Elf64_Verdef13Elf64_Verdaux13Elf64_Verneed13Elf64_Vernaux9Elf64_Rel10Elf64_RelaLj64EE9shiftFileEjmm
00000000001086dc W _ZN7ElfFileI10Elf64_Ehdr10Elf64_Phdr10Elf64_Shdrmm9Elf64_Dyn9Elf64_Symt12Elf64_Verdef13Elf64_Verdaux13Elf64_Verneed13Elf64_Vernaux9Elf64_Rel10Elf64_RelaLj64EE9sortPhdrsEv
0000000000108764 W _ZN7ElfFileI10Elf64_Ehdr10Elf64_Phdr10Elf64_Shdrmm9Elf64_Dyn9Elf64_Symt12Elf64_Verdef13Elf64_Verdaux13Elf64_Verneed13Elf64_Vernaux9Elf64_Rel10Elf64_RelaLj64EE9sortShdrsEv
00000000000cfae0 W _ZN7ElfFileI10Elf64_Ehdr10Elf64_Phdr10Elf64_Shdrmm9Elf64_Dyn9Elf64_Symt12Elf64_Verdef13Elf64_Verdaux13Elf64_Verneed13Elf64_Vernaux9Elf64_Rel10Elf64_RelaLj64EEC2ENSt6__ndk110shared_ptrINSC_6vectorIhNSC_9allocatorIhEEEEEE
00000000000d0454 W _ZN7ElfFileI10Elf64_Ehdr10Elf64_Phdr10Elf64_Shdrmm9Elf64_Dyn9Elf64_Symt12Elf64_Verdef13Elf64_Verdaux13Elf64_Verneed13Elf64_Vernaux9Elf64_Rel10Elf64_RelaLj64EED2Ev
00000000000bb084 W _ZN8SysErrorC2ERKNSt6__ndk112basic_stringIcNS0_11char_traitsIcEENS0_9allocatorIcEEEE
00000000000bb410 W _ZN8SysErrorD0Ev
00000000000bb1c4 W _ZN8SysErrorD2Ev
00000000000f4cd8 W _ZNK4spanI9Elf32_SymE4sizeEv
0000000000116630 W _ZNK4spanI9Elf64_SymE4sizeEv
00000000000f144c W _ZNK4spanIcE4sizeEv
00000000000f4794 W _ZNK4spanIcEcvbEv
00000000000f4910 W _ZNK4spanIjE4sizeEv
0000000000116d4c W _ZNK4spanImE4sizeEv
00000000000f57e4 W _ZNK4spanItE4sizeEv
00000000000f4abc W _ZNK4spanItEcvbEv
00000000000d97a0 W _ZNK7ElfFileI10Elf32_Ehdr10Elf32_Phdr10Elf32_Shdrjj9Elf32_Dyn9Elf32_Symt12Elf32_Verdef13Elf32_Verdaux13Elf32_Verneed13Elf32_Vernaux9Elf32_Rel10Elf32_RelaLj32EE11getPageSizeEv
00000000000f9de4 W _ZNK7ElfFileI10Elf32_Ehdr10Elf32_Phdr10Elf32_Shdrjj9Elf32_Dyn9Elf32_Symt12Elf32_Verdef13Elf32_Verdaux13Elf32_Verneed13Elf32_Vernaux9Elf32_Rel10Elf32_RelaLj32EE12rel_getSymIdERKj
00000000000f9e8c W _ZNK7ElfFileI10Elf32_Ehdr10Elf32_Phdr10Elf32_Shdrjj9Elf32_Dyn9Elf32_Symt12Elf32_Verdef13Elf32_Verdaux13Elf32_Verneed13Elf32_Vernaux9Elf32_Rel10Elf32_RelaLj32EE12rel_setSymIdEjj
00000000000d05c4 W _ZNK7ElfFileI10Elf32_Ehdr10Elf32_Phdr10Elf32_Shdrjj9Elf32_Dyn9Elf32_Symt12Elf32_Verdef13Elf32_Verdaux13Elf32_Verneed13Elf32_Vernaux9Elf32_Rel10Elf32_RelaLj32EE14getInterpreterEv
00000000000d54bc W _ZNK7ElfFileI10Elf32_Ehdr10Elf32_Phdr10Elf32_Shdrjj9Elf32_Dyn9Elf32_Symt12Elf32_Verdef13Elf32_Verdaux13Elf32_Verneed13Elf32_Vernaux9Elf32_Rel10Elf32_RelaLj32EE14getSectionNameERKS2_
00000000000ec3f0 W _ZNK7ElfFileI10Elf32_Ehdr10Elf32_Phdr10Elf32_Shdrjj9Elf32_Dyn9Elf32_Symt12Elf32_Verdef13Elf32_Verdaux13Elf32_Verneed13Elf32_Vernaux9Elf32_Rel10Elf32_RelaLj32EE14getSectionSpanIS3_EE4spanIT_ERKS2_
00000000000ec2bc W _ZNK7ElfFileI10Elf32_Ehdr10Elf32_Phdr10Elf32_Shdrjj9Elf32_Dyn9Elf32_Symt12Elf32_Verdef13Elf32_Verdaux13Elf32_Verneed13Elf32_Vernaux9Elf32_Rel10Elf32_RelaLj32EE14getSectionSpanIS4_EE4spanIT_ERKS2_
00000000000ebff4 W _ZNK7ElfFileI10Elf32_Ehdr10Elf32_Phdr10Elf32_Shdrjj9Elf32_Dyn9Elf32_Symt12Elf32_Verdef13Elf32_Verdaux13Elf32_Verneed13Elf32_Vernaux9Elf32_Rel10Elf32_RelaLj32EE14getSectionSpanIS5_EE4spanIT_ERKS2_
00000000000ec1f8 W _ZNK7ElfFileI10Elf32_Ehdr10Elf32_Phdr10Elf32_Shdrjj9Elf32_Dyn9Elf32_Symt12Elf32_Verdef13Elf32_Verdaux13Elf32_Verneed13Elf32_Vernaux9Elf32_Rel10Elf32_RelaLj32EE14getSectionSpanIS7_EE4spanIT_ERKS2_
00000000000f9ce8 W _ZNK7ElfFileI10Elf32_Ehdr10Elf32_Phdr10Elf32_Shdrjj9Elf32_Dyn9Elf32_Symt12Elf32_Verdef13Elf32_Verdaux13Elf32_Verneed13Elf32_Vernaux9Elf32_Rel10Elf32_RelaLj32EE14getSectionSpanIS9_EE4spanIT_ERKS2_
00000000000f9ef0 W _ZNK7ElfFileI10Elf32_Ehdr10Elf32_Phdr10Elf32_Shdrjj9Elf32_Dyn9Elf32_Symt12Elf32_Verdef13Elf32_Verdaux13Elf32_Verneed13Elf32_Vernaux9Elf32_Rel10Elf32_RelaLj32EE14getSectionSpanISA_EE4spanIT_ERKS2_
00000000000f26e0 W _ZNK7ElfFileI10Elf32_Ehdr10Elf32_Phdr10Elf32_Shdrjj9Elf32_Dyn9Elf32_Symt12Elf32_Verdef13Elf32_Verdaux13Elf32_Verneed13Elf32_Vernaux9Elf32_Rel10Elf32_RelaLj32EE14getSectionSpanIcEE4spanIT_ERKS2_
00000000000f56f4 W _ZNK7ElfFileI10Elf32_Ehdr10Elf32_Phdr10Elf32_Shdrjj9Elf32_Dyn9Elf32_Symt12Elf32_Verdef13Elf32_Verdaux13Elf32_Verneed13Elf32_Vernaux9Elf32_Rel10Elf32_RelaLj32EE14getSectionSpanItEE4spanIT_ERKS2_
00000000000d5184 W _ZNK7ElfFileI10Elf32_Ehdr10Elf32_Phdr10Elf32_Shdrjj9Elf32_Dyn9Elf32_Symt12Elf32_Verdef13Elf32_Verdaux13Elf32_Verneed13Elf32_Vernaux9Elf32_Rel10Elf32_RelaLj32EE15getSectionIndexERKNSt6__ndk112basic_stringIcNSC_11char_traitsIcEENSC_9allocatorIcEEEE
00000000000d2474 W _ZNK7ElfFileI10Elf32_Ehdr10Elf32_Phdr10Elf32_Shdrjj9Elf32_Dyn9Elf32_Symt12Elf32_Verdef13Elf32_Verdaux13Elf32_Verneed13Elf32_Vernaux9Elf32_Rel10Elf32_RelaLj32EE15printNeededLibsEv
00000000000d4cec W _ZNK7ElfFileI10Elf32_Ehdr10Elf32_Phdr10Elf32_Shdrjj9Elf32_Dyn9Elf32_Symt12Elf32_Verdef13Elf32_Verdaux13Elf32_Verneed13Elf32_Vernaux9Elf32_Rel10Elf32_RelaLj32EE17findSectionHeaderERKNSt6__ndk112basic_stringIcNSC_11char_traitsIcEENSC_9allocatorIcEEEE
00000000000d9bc4 W _ZNK7ElfFileI10Elf32_Ehdr10Elf32_Phdr10Elf32_Shdrjj9Elf32_Dyn9Elf32_Symt12Elf32_Verdef13Elf32_Verdaux13Elf32_Verneed13Elf32_Vernaux9Elf32_Rel10Elf32_RelaLj32EE19haveReplacedSectionERKNSt6__ndk112basic_stringIcNSC_11char_traitsIcEENSC_9allocatorIcEEEE
00000000000d5014 W _ZNK7ElfFileI10Elf32_Ehdr10Elf32_Phdr10Elf32_Shdrjj9Elf32_Dyn9Elf32_Symt12Elf32_Verdef13Elf32_Verdaux13Elf32_Verneed13Elf32_Vernaux9Elf32_Rel10Elf32_RelaLj32EE20tryFindSectionHeaderERKNSt6__ndk112basic_stringIcNSC_11char_traitsIcEENSC_9allocatorIcEEEE
00000000000d5494 W _ZNK7ElfFileI10Elf32_Ehdr10Elf32_Phdr10Elf32_Shdrjj9Elf32_Dyn9Elf32_Symt12Elf32_Verdef13Elf32_Verdaux13Elf32_Verneed13Elf32_Vernaux9Elf32_Rel10Elf32_RelaLj32EE3hdrEv
00000000000e1ea0 W _ZNK7ElfFileI10Elf32_Ehdr10Elf32_Phdr10Elf32_Shdrjj9Elf32_Dyn9Elf32_Symt12Elf32_Verdef13Elf32_Verdaux13Elf32_Verneed13Elf32_Vernaux9Elf32_Rel10Elf32_RelaLj32EE3rdiIhEET_SD_
00000000000d668c W _ZNK7ElfFileI10Elf32_Ehdr10Elf32_Phdr10Elf32_Shdrjj9Elf32_Dyn9Elf32_Symt12Elf32_Verdef13Elf32_Verdaux13Elf32_Verneed13Elf32_Vernaux9Elf32_Rel10Elf32_RelaLj32EE3rdiIiEET_SD_
00000000000d4e94 W _ZNK7ElfFileI10Elf32_Ehdr10Elf32_Phdr10Elf32_Shdrjj9Elf32_Dyn9Elf32_Symt12Elf32_Verdef13Elf32_Verdaux13Elf32_Verneed13Elf32_Vernaux9Elf32_Rel10Elf32_RelaLj32EE3rdiIjEET_SD_
00000000000d5370 W _ZNK7ElfFileI10Elf32_Ehdr10Elf32_Phdr10Elf32_Shdrjj9Elf32_Dyn9Elf32_Symt12Elf32_Verdef13Elf32_Verdaux13Elf32_Verneed13Elf32_Vernaux9Elf32_Rel10Elf32_RelaLj32EE3rdiItEET_SD_
00000000000d6d74 W _ZNK7ElfFileI10Elf32_Ehdr10Elf32_Phdr10Elf32_Shdrjj9Elf32_Dyn9Elf32_Symt12Elf32_Verdef13Elf32_Verdaux13Elf32_Verneed13Elf32_Vernaux9Elf32_Rel10Elf32_RelaLj32EE3wriIiiEET_RSD_T0_
00000000000da060 W _ZNK7ElfFileI10Elf32_Ehdr10Elf32_Phdr10Elf32_Shdrjj9Elf32_Dyn9Elf32_Symt12Elf32_Verdef13Elf32_Verdaux13Elf32_Verneed13Elf32_Vernaux9Elf32_Rel10Elf32_RelaLj32EE3wriIjiEET_RSD_T0_
00000000000d9d7c W _ZNK7ElfFileI10Elf32_Ehdr10Elf32_Phdr10Elf32_Shdrjj9Elf32_Dyn9Elf32_Symt12Elf32_Verdef13Elf32_Verdaux13Elf32_Verneed13Elf32_Vernaux9Elf32_Rel10Elf32_RelaLj32EE3wriIjjEET_RSD_T0_
00000000000d9e28 W _ZNK7ElfFileI10Elf32_Ehdr10Elf32_Phdr10Elf32_Shdrjj9Elf32_Dyn9Elf32_Symt12Elf32_Verdef13Elf32_Verdaux13Elf32_Verneed13Elf32_Vernaux9Elf32_Rel10Elf32_RelaLj32EE3wriIjlEET_RSD_T0_
00000000000d9c8c W _ZNK7ElfFileI10Elf32_Ehdr10Elf32_Phdr10Elf32_Shdrjj9Elf32_Dyn9Elf32_Symt12Elf32_Verdef13Elf32_Verdaux13Elf32_Verneed13Elf32_Vernaux9Elf32_Rel10Elf32_RelaLj32EE3wriIjmEET_RSD_T0_
00000000000d9f58 W _ZNK7ElfFileI10Elf32_Ehdr10Elf32_Phdr10Elf32_Shdrjj9Elf32_Dyn9Elf32_Symt12Elf32_Verdef13Elf32_Verdaux13Elf32_Verneed13Elf32_Vernaux9Elf32_Rel10Elf32_RelaLj32EE3wriItiEET_RSD_T0_
00000000000e1df4 W _ZNK7ElfFileI10Elf32_Ehdr10Elf32_Phdr10Elf32_Shdrjj9Elf32_Dyn9Elf32_Symt12Elf32_Verdef13Elf32_Verdaux13Elf32_Verneed13Elf32_Vernaux9Elf32_Rel10Elf32_RelaLj32EE3wriItjEET_RSD_T0_
00000000000deb08 W _ZNK7ElfFileI10Elf32_Ehdr10Elf32_Phdr10Elf32_Shdrjj9Elf32_Dyn9Elf32_Symt12Elf32_Verdef13Elf32_Verdaux13Elf32_Verneed13Elf32_Vernaux9Elf32_Rel10Elf32_RelaLj32EE3wriItmEET_RSD_T0_
00000000000e28c0 W _ZNK7ElfFileI10Elf32_Ehdr10Elf32_Phdr10Elf32_Shdrjj9Elf32_Dyn9Elf32_Symt12Elf32_Verdef13Elf32_Verdaux13Elf32_Verneed13Elf32_Vernaux9Elf32_Rel10Elf32_RelaLj32EE8CompPhdrclERKS1_SE_
00000000000e6180 W _ZNK7ElfFileI10Elf32_Ehdr10Elf32_Phdr10Elf32_Shdrjj9Elf32_Dyn9Elf32_Symt12Elf32_Verdef13Elf32_Verdaux13Elf32_Verneed13Elf32_Vernaux9Elf32_Rel10Elf32_RelaLj32EE8CompShdrclERKS2_SE_
00000000000d4a44 W _ZNK7ElfFileI10Elf32_Ehdr10Elf32_Phdr10Elf32_Shdrjj9Elf32_Dyn9Elf32_Symt12Elf32_Verdef13Elf32_Verdaux13Elf32_Verneed13Elf32_Vernaux9Elf32_Rel10Elf32_RelaLj32EE9isChangedEv
0000000000102e20 W _ZNK7ElfFileI10Elf64_Ehdr10Elf64_Phdr10Elf64_Shdrmm9Elf64_Dyn9Elf64_Symt12Elf64_Verdef13Elf64_Verdaux13Elf64_Verneed13Elf64_Vernaux9Elf64_Rel10Elf64_RelaLj64EE11getPageSizeEv
0000000000119e78 W _ZNK7ElfFileI10Elf64_Ehdr10Elf64_Phdr10Elf64_Shdrmm9Elf64_Dyn9Elf64_Symt12Elf64_Verdef13Elf64_Verdaux13Elf64_Verneed13Elf64_Vernaux9Elf64_Rel10Elf64_RelaLj64EE12rel_getSymIdERKm
0000000000119f24 W _ZNK7ElfFileI10Elf64_Ehdr10Elf64_Phdr10Elf64_Shdrmm9Elf64_Dyn9Elf64_Symt12Elf64_Verdef13Elf64_Verdaux13Elf64_Verneed13Elf64_Vernaux9Elf64_Rel10Elf64_RelaLj64EE12rel_setSymIdEmj
00000000000fc088 W _ZNK7ElfFileI10Elf64_Ehdr10Elf64_Phdr10Elf64_Shdrmm9Elf64_Dyn9Elf64_Symt12Elf64_Verdef13Elf64_Verdaux13Elf64_Verneed13Elf64_Vernaux9Elf64_Rel10Elf64_RelaLj64EE14getInterpreterEv
0000000000100dbc W _ZNK7ElfFileI10Elf64_Ehdr10Elf64_Phdr10Elf64_Shdrmm9Elf64_Dyn9Elf64_Symt12Elf64_Verdef13Elf64_Verdaux13Elf64_Verneed13Elf64_Vernaux9Elf64_Rel10Elf64_RelaLj64EE14getSectionNameERKS2_
0000000000112410 W _ZNK7ElfFileI10Elf64_Ehdr10Elf64_Phdr10Elf64_Shdrmm9Elf64_Dyn9Elf64_Symt12Elf64_Verdef13Elf64_Verdaux13Elf64_Verneed13Elf64_Vernaux9Elf64_Rel10Elf64_RelaLj64EE14getSectionSpanIS3_EE4spanIT_ERKS2_
0000000000112318 W _ZNK7ElfFileI10Elf64_Ehdr10Elf64_Phdr10Elf64_Shdrmm9Elf64_Dyn9Elf64_Symt12Elf64_Verdef13Elf64_Verdaux13Elf64_Verneed13Elf64_Vernaux9Elf64_Rel10Elf64_RelaLj64EE14getSectionSpanIS4_EE4spanIT_ERKS2_
0000000000112058 W _ZNK7ElfFileI10Elf64_Ehdr10Elf64_Phdr10Elf64_Shdrmm9Elf64_Dyn9Elf64_Symt12Elf64_Verdef13Elf64_Verdaux13Elf64_Verneed13Elf64_Vernaux9Elf64_Rel10Elf64_RelaLj64EE14getSectionSpanIS5_EE4spanIT_ERKS2_
0000000000112258 W _ZNK7ElfFileI10Elf64_Ehdr10Elf64_Phdr10Elf64_Shdrmm9Elf64_Dyn9Elf64_Symt12Elf64_Verdef13Elf64_Verdaux13Elf64_Verneed13Elf64_Vernaux9Elf64_Rel10Elf64_RelaLj64EE14getSectionSpanIS7_EE4spanIT_ERKS2_
0000000000119d80 W _ZNK7ElfFileI10Elf64_Ehdr10Elf64_Phdr10Elf64_Shdrmm9Elf64_Dyn9Elf64_Symt12Elf64_Verdef13Elf64_Verdaux13Elf64_Verneed13Elf64_Vernaux9Elf64_Rel10Elf64_RelaLj64EE14getSectionSpanIS9_EE4spanIT_ERKS2_
0000000000119f88 W _ZNK7ElfFileI10Elf64_Ehdr10Elf64_Phdr10Elf64_Shdrmm9Elf64_Dyn9Elf64_Symt12Elf64_Verdef13Elf64_Verdaux13Elf64_Verneed13Elf64_Vernaux9Elf64_Rel10Elf64_RelaLj64EE14getSectionSpanISA_EE4spanIT_ERKS2_
00000000001160a0 W _ZNK7ElfFileI10Elf64_Ehdr10Elf64_Phdr10Elf64_Shdrmm9Elf64_Dyn9Elf64_Symt12Elf64_Verdef13Elf64_Verdaux13Elf64_Verneed13Elf64_Vernaux9Elf64_Rel10Elf64_RelaLj64EE14getSectionSpanIcEE4spanIT_ERKS2_
0000000000116e94 W _ZNK7ElfFileI10Elf64_Ehdr10Elf64_Phdr10Elf64_Shdrmm9Elf64_Dyn9Elf64_Symt12Elf64_Verdef13Elf64_Verdaux13Elf64_Verneed13Elf64_Vernaux9Elf64_Rel10Elf64_RelaLj64EE14getSectionSpanItEE4spanIT_ERKS2_
0000000000100a8c W _ZNK7ElfFileI10Elf64_Ehdr10Elf64_Phdr10Elf64_Shdrmm9Elf64_Dyn9Elf64_Symt12Elf64_Verdef13Elf64_Verdaux13Elf64_Verneed13Elf64_Vernaux9Elf64_Rel10Elf64_RelaLj64EE15getSectionIndexERKNSt6__ndk112basic_stringIcNSC_11char_traitsIcEENSC_9allocatorIcEEEE
00000000000fdfec W _ZNK7ElfFileI10Elf64_Ehdr10Elf64_Phdr10Elf64_Shdrmm9Elf64_Dyn9Elf64_Symt12Elf64_Verdef13Elf64_Verdaux13Elf64_Verneed13Elf64_Vernaux9Elf64_Rel10Elf64_RelaLj64EE15printNeededLibsEv
000000000010069c W _ZNK7ElfFileI10Elf64_Ehdr10Elf64_Phdr10Elf64_Shdrmm9Elf64_Dyn9Elf64_Symt12Elf64_Verdef13Elf64_Verdaux13Elf64_Verneed13Elf64_Vernaux9Elf64_Rel10Elf64_RelaLj64EE17findSectionHeaderERKNSt6__ndk112basic_stringIcNSC_11char_traitsIcEENSC_9allocatorIcEEEE
00000000001031c8 W _ZNK7ElfFileI10Elf64_Ehdr10Elf64_Phdr10Elf64_Shdrmm9Elf64_Dyn9Elf64_Symt12Elf64_Verdef13Elf64_Verdaux13Elf64_Verneed13Elf64_Vernaux9Elf64_Rel10Elf64_RelaLj64EE19haveReplacedSectionERKNSt6__ndk112basic_stringIcNSC_11char_traitsIcEENSC_9allocatorIcEEEE
0000000000100968 W _ZNK7ElfFileI10Elf64_Ehdr10Elf64_Phdr10Elf64_Shdrmm9Elf64_Dyn9Elf64_Symt12Elf64_Verdef13Elf64_Verdaux13Elf64_Verneed13Elf64_Vernaux9Elf64_Rel10Elf64_RelaLj64EE20tryFindSectionHeaderERKNSt6__ndk112basic_stringIcNSC_11char_traitsIcEENSC_9allocatorIcEEEE
0000000000100d94 W _ZNK7ElfFileI10Elf64_Ehdr10Elf64_Phdr10Elf64_Shdrmm9Elf64_Dyn9Elf64_Symt12Elf64_Verdef13Elf64_Verdaux13Elf64_Verneed13Elf64_Vernaux9Elf64_Rel10Elf64_RelaLj64EE3hdrEv
0000000000109074 W _ZNK7ElfFileI10Elf64_Ehdr10Elf64_Phdr10Elf64_Shdrmm9Elf64_Dyn9Elf64_Symt12Elf64_Verdef13Elf64_Verdaux13Elf64_Verneed13Elf64_Vernaux9Elf64_Rel10Elf64_RelaLj64EE3rdiIhEET_SD_
0000000000100eb4 W _ZNK7ElfFileI10Elf64_Ehdr10Elf64_Phdr10Elf64_Shdrmm9Elf64_Dyn9Elf64_Symt12Elf64_Verdef13Elf64_Verdaux13Elf64_Verneed13Elf64_Vernaux9Elf64_Rel10Elf64_RelaLj64EE3rdiIjEET_SD_
00000000001012e4 W _ZNK7ElfFileI10Elf64_Ehdr10Elf64_Phdr10Elf64_Shdrmm9Elf64_Dyn9Elf64_Symt12Elf64_Verdef13Elf64_Verdaux13Elf64_Verneed13Elf64_Vernaux9Elf64_Rel10Elf64_RelaLj64EE3rdiIlEET_SD_
0000000000100844 W _ZNK7ElfFileI10Elf64_Ehdr10Elf64_Phdr10Elf64_Shdrmm9Elf64_Dyn9Elf64_Symt12Elf64_Verdef13Elf64_Verdaux13Elf64_Verneed13Elf64_Vernaux9Elf64_Rel10Elf64_RelaLj64EE3rdiImEET_SD_
0000000000100c70 W _ZNK7ElfFileI10Elf64_Ehdr10Elf64_Phdr10Elf64_Shdrmm9Elf64_Dyn9Elf64_Symt12Elf64_Verdef13Elf64_Verdaux13Elf64_Verneed13Elf64_Vernaux9Elf64_Rel10Elf64_RelaLj64EE3rdiItEET_SD_
0000000000103490 W _ZNK7ElfFileI10Elf64_Ehdr10Elf64_Phdr10Elf64_Shdrmm9Elf64_Dyn9Elf64_Symt12Elf64_Verdef13Elf64_Verdaux13Elf64_Verneed13Elf64_Vernaux9Elf64_Rel10Elf64_RelaLj64EE3wriIjiEET_RSD_T0_
000000000010cbe4 W _ZNK7ElfFileI10Elf64_Ehdr10Elf64_Phdr10Elf64_Shdrmm9Elf64_Dyn9Elf64_Symt12Elf64_Verdef13Elf64_Verdaux13Elf64_Verneed13Elf64_Vernaux9Elf64_Rel10Elf64_RelaLj64EE3wriIjjEET_RSD_T0_
0000000000112ae4 W _ZNK7ElfFileI10Elf64_Ehdr10Elf64_Phdr10Elf64_Shdrmm9Elf64_Dyn9Elf64_Symt12Elf64_Verdef13Elf64_Verdaux13Elf64_Verneed13Elf64_Vernaux9Elf64_Rel10Elf64_RelaLj64EE3wriIjmEET_RSD_T0_
000000000010162c W _ZNK7ElfFileI10Elf64_Ehdr10Elf64_Phdr10Elf64_Shdrmm9Elf64_Dyn9Elf64_Symt12Elf64_Verdef13Elf64_Verdaux13Elf64_Verneed13Elf64_Vernaux9Elf64_Rel10Elf64_RelaLj64EE3wriIliEET_RSD_T0_
000000000011280c W _ZNK7ElfFileI10Elf64_Ehdr10Elf64_Phdr10Elf64_Shdrmm9Elf64_Dyn9Elf64_Symt12Elf64_Verdef13Elf64_Verdaux13Elf64_Verneed13Elf64_Vernaux9Elf64_Rel10Elf64_RelaLj64EE3wriImiEET_RSD_T0_
00000000001035e8 W _ZNK7ElfFileI10Elf64_Ehdr10Elf64_Phdr10Elf64_Shdrmm9Elf64_Dyn9Elf64_Symt12Elf64_Verdef13Elf64_Verdaux13Elf64_Verneed13Elf64_Vernaux9Elf64_Rel10Elf64_RelaLj64EE3wriImjEET_RSD_T0_
000000000010353c W _ZNK7ElfFileI10Elf64_Ehdr10Elf64_Phdr10Elf64_Shdrmm9Elf64_Dyn9Elf64_Symt12Elf64_Verdef13Elf64_Verdaux13Elf64_Verneed13Elf64_Vernaux9Elf64_Rel10Elf64_RelaLj64EE3wriImlEET_RSD_T0_
0000000000103204 W _ZNK7ElfFileI10Elf64_Ehdr10Elf64_Phdr10Elf64_Shdrmm9Elf64_Dyn9Elf64_Symt12Elf64_Verdef13Elf64_Verdaux13Elf64_Verneed13Elf64_Vernaux9Elf64_Rel10Elf64_RelaLj64EE3wriImmEET_RSD_T0_
0000000000103380 W _ZNK7ElfFileI10Elf64_Ehdr10Elf64_Phdr10Elf64_Shdrmm9Elf64_Dyn9Elf64_Symt12Elf64_Verdef13Elf64_Verdaux13Elf64_Verneed13Elf64_Vernaux9Elf64_Rel10Elf64_RelaLj64EE3wriItiEET_RSD_T0_
0000000000108fc8 W _ZNK7ElfFileI10Elf64_Ehdr10Elf64_Phdr10Elf64_Shdrmm9Elf64_Dyn9Elf64_Symt12Elf64_Verdef13Elf64_Verdaux13Elf64_Verneed13Elf64_Vernaux9Elf64_Rel10Elf64_RelaLj64EE3wriItjEET_RSD_T0_
0000000000107340 W _ZNK7ElfFileI10Elf64_Ehdr10Elf64_Phdr10Elf64_Shdrmm9Elf64_Dyn9Elf64_Symt12Elf64_Verdef13Elf64_Verdaux13Elf64_Verneed13Elf64_Vernaux9Elf64_Rel10Elf64_RelaLj64EE3wriItmEET_RSD_T0_
0000000000109a18 W _ZNK7ElfFileI10Elf64_Ehdr10Elf64_Phdr10Elf64_Shdrmm9Elf64_Dyn9Elf64_Symt12Elf64_Verdef13Elf64_Verdaux13Elf64_Verneed13Elf64_Vernaux9Elf64_Rel10Elf64_RelaLj64EE8CompPhdrclERKS1_SE_
000000000010d420 W _ZNK7ElfFileI10Elf64_Ehdr10Elf64_Phdr10Elf64_Shdrmm9Elf64_Dyn9Elf64_Symt12Elf64_Verdef13Elf64_Verdaux13Elf64_Verneed13Elf64_Vernaux9Elf64_Rel10Elf64_RelaLj64EE8CompShdrclERKS2_SE_
0000000000100680 W _ZNK7ElfFileI10Elf64_Ehdr10Elf64_Phdr10Elf64_Shdrmm9Elf64_Dyn9Elf64_Symt12Elf64_Verdef13Elf64_Verdaux13Elf64_Verneed13Elf64_Vernaux9Elf64_Rel10Elf64_RelaLj64EE9isChangedEv
0000000000179e9c T _ZNKSt10bad_typeid4whatEv
0000000000179acc T _ZNKSt11logic_error4whatEv
00000000001799c8 T _ZNKSt13bad_exception4whatEv
0000000000179b84 T _ZNKSt13runtime_error4whatEv
000000000012a0b0 T _ZNKSt16nested_exception14rethrow_nestedEv
0000000000179a10 T _ZNKSt20bad_array_new_length4whatEv
0000000000139b28 T _ZNKSt6__ndk110__time_put8__do_putEPcRS1_PK2tmcc
0000000000139fc4 T _ZNKSt6__ndk110__time_put8__do_putEPwRS1_PK2tmcc
0000000000160978 T _ZNKSt6__ndk110error_code7messageEv
000000000013a0e8 W _ZNKSt6__ndk110moneypunctIcLb0EE11do_groupingEv
000000000013a130 W _ZNKSt6__ndk110moneypunctIcLb0EE13do_neg_formatEv
000000000013a124 W _ZNKSt6__ndk110moneypunctIcLb0EE13do_pos_formatEv
000000000013a0f4 W _ZNKSt6__ndk110moneypunctIcLb0EE14do_curr_symbolEv
000000000013a11c W _ZNKSt6__ndk110moneypunctIcLb0EE14do_frac_digitsEv
000000000013a0d8 W _ZNKSt6__ndk110moneypunctIcLb0EE16do_decimal_pointEv
000000000013a10c W _ZNKSt6__ndk110moneypunctIcLb0EE16do_negative_signEv
000000000013a100 W _ZNKSt6__ndk110moneypunctIcLb0EE16do_positive_signEv
000000000013a0e0 W _ZNKSt6__ndk110moneypunctIcLb0EE16do_thousands_sepEv
000000000013a14c W _ZNKSt6__ndk110moneypunctIcLb1EE11do_groupingEv
000000000013a194 W _ZNKSt6__ndk110moneypunctIcLb1EE13do_neg_formatEv
000000000013a188 W _ZNKSt6__ndk110moneypunctIcLb1EE13do_pos_formatEv
000000000013a158 W _ZNKSt6__ndk110moneypunctIcLb1EE14do_curr_symbolEv
000000000013a180 W _ZNKSt6__ndk110moneypunctIcLb1EE14do_frac_digitsEv
000000000013a13c W _ZNKSt6__ndk110moneypunctIcLb1EE16do_decimal_pointEv
000000000013a170 W _ZNKSt6__ndk110moneypunctIcLb1EE16do_negative_signEv
000000000013a164 W _ZNKSt6__ndk110moneypunctIcLb1EE16do_positive_signEv
000000000013a144 W _ZNKSt6__ndk110moneypunctIcLb1EE16do_thousands_sepEv
000000000013a1b0 W _ZNKSt6__ndk110moneypunctIwLb0EE11do_groupingEv
000000000013a224 W _ZNKSt6__ndk110moneypunctIwLb0EE13do_neg_formatEv
000000000013a218 W _ZNKSt6__ndk110moneypunctIwLb0EE13do_pos_formatEv
000000000013a1bc W _ZNKSt6__ndk110moneypunctIwLb0EE14do_curr_symbolEv
000000000013a210 W _ZNKSt6__ndk110moneypunctIwLb0EE14do_frac_digitsEv
000000000013a1a0 W _ZNKSt6__ndk110moneypunctIwLb0EE16do_decimal_pointEv
000000000013a1d4 W _ZNKSt6__ndk110moneypunctIwLb0EE16do_negative_signEv
000000000013a1c8 W _ZNKSt6__ndk110moneypunctIwLb0EE16do_positive_signEv
000000000013a1a8 W _ZNKSt6__ndk110moneypunctIwLb0EE16do_thousands_sepEv
000000000013a240 W _ZNKSt6__ndk110moneypunctIwLb1EE11do_groupingEv
000000000013a2b4 W _ZNKSt6__ndk110moneypunctIwLb1EE13do_neg_formatEv
000000000013a2a8 W _ZNKSt6__ndk110moneypunctIwLb1EE13do_pos_formatEv
000000000013a24c W _ZNKSt6__ndk110moneypunctIwLb1EE14do_curr_symbolEv
000000000013a2a0 W _ZNKSt6__ndk110moneypunctIwLb1EE14do_frac_digitsEv
000000000013a230 W _ZNKSt6__ndk110moneypunctIwLb1EE16do_decimal_pointEv
000000000013a264 W _ZNKSt6__ndk110moneypunctIwLb1EE16do_negative_signEv
000000000013a258 W _ZNKSt6__ndk110moneypunctIwLb1EE16do_positive_signEv
000000000013a238 W _ZNKSt6__ndk110moneypunctIwLb1EE16do_thousands_sepEv
00000000000c81ec W _ZNKSt6__ndk112__hash_tableINS_12basic_stringIcNS_11char_traitsIcEENS_9allocatorIcEEEENS_4hashIS6_EENS_8equal_toIS6_EENS4_IS6_EEE14__count_uniqueIS6_EEmRKT_
00000000000c82ac W _ZNKSt6__ndk112__hash_tableINS_12basic_stringIcNS_11char_traitsIcEENS_9allocatorIcEEEENS_4hashIS6_EENS_8equal_toIS6_EENS4_IS6_EEE4findIS6_EENS_21__hash_const_iteratorIPNS_11__hash_nodeIS6_PvEEEERKT_
00000000000f336c W _ZNKSt6__ndk112__hash_tableINS_17__hash_value_typeINS_17basic_string_viewIcNS_11char_traitsIcEEEENS_12basic_stringIcS4_NS_9allocatorIcEEEEEENS_22__unordered_map_hasherIS5_SA_NS_4hashIS5_EELb1EEENS_21__unordered_map_equalIS5_SA_NS_8equal_toIS5_EELb1EEENS7_ISA_EEE4findIS5_EENS_21__hash_const_iteratorIPNS_11__hash_nodeISA_PvEEEERKT_
0000000000157508 T _ZNKSt6__ndk112bad_weak_ptr4whatEv
0000000000159a08 W _ZNKSt6__ndk112basic_stringIcNS_11char_traitsIcEENS_9allocatorIcEEE12find_last_ofEPKcmm
00000000001591f4 W _ZNKSt6__ndk112basic_stringIcNS_11char_traitsIcEENS_9allocatorIcEEE13find_first_ofEPKcmm
0000000000158c84 W _ZNKSt6__ndk112basic_stringIcNS_11char_traitsIcEENS_9allocatorIcEEE16find_last_not_ofEPKcmm
0000000000158d24 W _ZNKSt6__ndk112basic_stringIcNS_11char_traitsIcEENS_9allocatorIcEEE17find_first_not_ofEPKcmm
0000000000159094 W _ZNKSt6__ndk112basic_stringIcNS_11char_traitsIcEENS_9allocatorIcEEE2atEm
000000000015978c W _ZNKSt6__ndk112basic_stringIcNS_11char_traitsIcEENS_9allocatorIcEEE4copyEPcmm
000000000015a240 W _ZNKSt6__ndk112basic_stringIcNS_11char_traitsIcEENS_9allocatorIcEEE4findEPKcmm
00000000001598d0 W _ZNKSt6__ndk112basic_stringIcNS_11char_traitsIcEENS_9allocatorIcEEE4findEcm
00000000001589bc W _ZNKSt6__ndk112basic_stringIcNS_11char_traitsIcEENS_9allocatorIcEEE5rfindEPKcmm
0000000000159bfc W _ZNKSt6__ndk112basic_stringIcNS_11char_traitsIcEENS_9allocatorIcEEE5rfindEcm
0000000000159f5c W _ZNKSt6__ndk112basic_stringIcNS_11char_traitsIcEENS_9allocatorIcEEE7compareEPKc
000000000015a078 W _ZNKSt6__ndk112basic_stringIcNS_11char_traitsIcEENS_9allocatorIcEEE7compareEmmPKc
0000000000159fe4 W _ZNKSt6__ndk112basic_stringIcNS_11char_traitsIcEENS_9allocatorIcEEE7compareEmmPKcm
000000000015a30c W _ZNKSt6__ndk112basic_stringIcNS_11char_traitsIcEENS_9allocatorIcEEE7compareEmmRKS5_mm
00000000000c2e08 W _ZNKSt6__ndk112basic_stringIcNS_11char_traitsIcEENS_9allocatorIcEEE7compareINS_17basic_string_viewIcS2_EEEENS_9_MetaBaseIXsr33__can_be_converted_to_string_viewIcS2_T_EE5valueEE13_EnableIfImplIiEERKSA_
000000000015bb20 W _ZNKSt6__ndk112basic_stringIwNS_11char_traitsIwEENS_9allocatorIwEEE12find_last_ofEPKwmm
000000000015b334 W _ZNKSt6__ndk112basic_stringIwNS_11char_traitsIwEENS_9allocatorIwEEE13find_first_ofEPKwmm
000000000015ad68 W _ZNKSt6__ndk112basic_stringIwNS_11char_traitsIwEENS_9allocatorIwEEE16find_last_not_ofEPKwmm
000000000015ae10 W _ZNKSt6__ndk112basic_stringIwNS_11char_traitsIwEENS_9allocatorIwEEE17find_first_not_ofEPKwmm
000000000015b1c8 W _ZNKSt6__ndk112basic_stringIwNS_11char_traitsIwEENS_9allocatorIwEEE2atEm
000000000015b868 W _ZNKSt6__ndk112basic_stringIwNS_11char_traitsIwEENS_9allocatorIwEEE4copyEPwmm
000000000015c1a8 W _ZNKSt6__ndk112basic_stringIwNS_11char_traitsIwEENS_9allocatorIwEEE4findEPKwmm
000000000015b9cc W _ZNKSt6__ndk112basic_stringIwNS_11char_traitsIwEENS_9allocatorIwEEE4findEwm
000000000015aabc W _ZNKSt6__ndk112basic_stringIwNS_11char_traitsIwEENS_9allocatorIwEEE5rfindEPKwmm
000000000015bd18 W _ZNKSt6__ndk112basic_stringIwNS_11char_traitsIwEENS_9allocatorIwEEE5rfindEwm
000000000015bf5c W _ZNKSt6__ndk112basic_stringIwNS_11char_traitsIwEENS_9allocatorIwEEE7compareEPKw
000000000015c078 W _ZNKSt6__ndk112basic_stringIwNS_11char_traitsIwEENS_9allocatorIwEEE7compareEmmPKw
000000000015bfe4 W _ZNKSt6__ndk112basic_stringIwNS_11char_traitsIwEENS_9allocatorIwEEE7compareEmmPKwm
000000000015c280 W _ZNKSt6__ndk112basic_stringIwNS_11char_traitsIwEENS_9allocatorIwEEE7compareEmmRKS5_mm
000000000014881c T _ZNKSt6__ndk112ctype_bynameIcE10do_tolowerEPcPKc
00000000001487fc T _ZNKSt6__ndk112ctype_bynameIcE10do_tolowerEc
00000000001487a8 T _ZNKSt6__ndk112ctype_bynameIcE10do_toupperEPcPKc
0000000000148788 T _ZNKSt6__ndk112ctype_bynameIcE10do_toupperEc
0000000000148e08 T _ZNKSt6__ndk112ctype_bynameIwE10do_scan_isEmPKwS3_
00000000001490cc T _ZNKSt6__ndk112ctype_bynameIwE10do_tolowerEPwPKw
00000000001490bc T _ZNKSt6__ndk112ctype_bynameIwE10do_tolowerEw
0000000000149068 T _ZNKSt6__ndk112ctype_bynameIwE10do_toupperEPwPKw
0000000000149058 T _ZNKSt6__ndk112ctype_bynameIwE10do_toupperEw
0000000000148f30 T _ZNKSt6__ndk112ctype_bynameIwE11do_scan_notEmPKwS3_
0000000000148c74 T _ZNKSt6__ndk112ctype_bynameIwE5do_isEPKwS3_Pm
0000000000148b04 T _ZNKSt6__ndk112ctype_bynameIwE5do_isEmw
0000000000149184 T _ZNKSt6__ndk112ctype_bynameIwE8do_widenEPKcS3_Pw
0000000000149120 T _ZNKSt6__ndk112ctype_bynameIwE8do_widenEc
00000000001492a0 T _ZNKSt6__ndk112ctype_bynameIwE9do_narrowEPKwS3_cPc
000000000014922c T _ZNKSt6__ndk112ctype_bynameIwE9do_narrowEwc
000000000014b65c T _ZNKSt6__ndk114__codecvt_utf8IDiE10do_unshiftER9mbstate_tPcS4_RS4_
000000000014b668 T _ZNKSt6__ndk114__codecvt_utf8IDiE11do_encodingEv
000000000014b694 T _ZNKSt6__ndk114__codecvt_utf8IDiE13do_max_lengthEv
000000000014b670 T _ZNKSt6__ndk114__codecvt_utf8IDiE16do_always_noconvEv
000000000014b5c8 T _ZNKSt6__ndk114__codecvt_utf8IDiE5do_inER9mbstate_tPKcS5_RS5_PDiS7_RS7_
000000000014b534 T _ZNKSt6__ndk114__codecvt_utf8IDiE6do_outER9mbstate_tPKDiS5_RS5_PcS7_RS7_
000000000014b678 T _ZNKSt6__ndk114__codecvt_utf8IDiE9do_lengthER9mbstate_tPKcS5_m
000000000014b390 T _ZNKSt6__ndk114__codecvt_utf8IDsE10do_unshiftER9mbstate_tPcS4_RS4_
000000000014b39c T _ZNKSt6__ndk114__codecvt_utf8IDsE11do_encodingEv
000000000014b51c T _ZNKSt6__ndk114__codecvt_utf8IDsE13do_max_lengthEv
000000000014b3a4 T _ZNKSt6__ndk114__codecvt_utf8IDsE16do_always_noconvEv
000000000014b228 T _ZNKSt6__ndk114__codecvt_utf8IDsE5do_inER9mbstate_tPKcS5_RS5_PDsS7_RS7_
000000000014b124 T _ZNKSt6__ndk114__codecvt_utf8IDsE6do_outER9mbstate_tPKDsS5_RS5_PcS7_RS7_
000000000014b3ac T _ZNKSt6__ndk114__codecvt_utf8IDsE9do_lengthER9mbstate_tPKcS5_m
000000000014b0d4 T _ZNKSt6__ndk114__codecvt_utf8IwE10do_unshiftER9mbstate_tPcS4_RS4_
000000000014b0e0 T _ZNKSt6__ndk114__codecvt_utf8IwE11do_encodingEv
000000000014b10c T _ZNKSt6__ndk114__codecvt_utf8IwE13do_max_lengthEv
000000000014b0e8 T _ZNKSt6__ndk114__codecvt_utf8IwE16do_always_noconvEv
000000000014b040 T _ZNKSt6__ndk114__codecvt_utf8IwE5do_inER9mbstate_tPKcS5_RS5_PwS7_RS7_
000000000014afac T _ZNKSt6__ndk114__codecvt_utf8IwE6do_outER9mbstate_tPKwS5_RS5_PcS7_RS7_
000000000014b0f0 T _ZNKSt6__ndk114__codecvt_utf8IwE9do_lengthER9mbstate_tPKcS5_m
0000000000146d88 T _ZNKSt6__ndk114collate_bynameIcE10do_compareEPKcS3_S3_S3_
0000000000146fe0 T _ZNKSt6__ndk114collate_bynameIcE12do_transformEPKcS3_
00000000001474fc T _ZNKSt6__ndk114collate_bynameIwE10do_compareEPKwS3_S3_S3_
00000000001477bc T _ZNKSt6__ndk114collate_bynameIwE12do_transformEPKwS3_
00000000001605a8 T _ZNKSt6__ndk114error_category10equivalentERKNS_10error_codeEi
0000000000160564 T _ZNKSt6__ndk114error_category10equivalentEiRKNS_15error_conditionE
0000000000160554 T _ZNKSt6__ndk114error_category23default_error_conditionEi
000000000014c270 T _ZNKSt6__ndk115__codecvt_utf16IDiLb0EE10do_unshiftER9mbstate_tPcS4_RS4_
000000000014c27c T _ZNKSt6__ndk115__codecvt_utf16IDiLb0EE11do_encodingEv
000000000014c388 T _ZNKSt6__ndk115__codecvt_utf16IDiLb0EE13do_max_lengthEv
000000000014c284 T _ZNKSt6__ndk115__codecvt_utf16IDiLb0EE16do_always_noconvEv
000000000014c168 T _ZNKSt6__ndk115__codecvt_utf16IDiLb0EE5do_inER9mbstate_tPKcS5_RS5_PDiS7_RS7_
000000000014c088 T _ZNKSt6__ndk115__codecvt_utf16IDiLb0EE6do_outER9mbstate_tPKDiS5_RS5_PcS7_RS7_
000000000014c28c T _ZNKSt6__ndk115__codecvt_utf16IDiLb0EE9do_lengthER9mbstate_tPKcS5_m
000000000014c578 T _ZNKSt6__ndk115__codecvt_utf16IDiLb1EE10do_unshiftER9mbstate_tPcS4_RS4_
000000000014c584 T _ZNKSt6__ndk115__codecvt_utf16IDiLb1EE11do_encodingEv
000000000014c690 T _ZNKSt6__ndk115__codecvt_utf16IDiLb1EE13do_max_lengthEv
000000000014c58c T _ZNKSt6__ndk115__codecvt_utf16IDiLb1EE16do_always_noconvEv
000000000014c470 T _ZNKSt6__ndk115__codecvt_utf16IDiLb1EE5do_inER9mbstate_tPKcS5_RS5_PDiS7_RS7_
000000000014c3a0 T _ZNKSt6__ndk115__codecvt_utf16IDiLb1EE6do_outER9mbstate_tPKDiS5_RS5_PcS7_RS7_
000000000014c594 T _ZNKSt6__ndk115__codecvt_utf16IDiLb1EE9do_lengthER9mbstate_tPKcS5_m
000000000014bdd8 T _ZNKSt6__ndk115__codecvt_utf16IDsLb0EE10do_unshiftER9mbstate_tPcS4_RS4_
000000000014bde4 T _ZNKSt6__ndk115__codecvt_utf16IDsLb0EE11do_encodingEv
000000000014be88 T _ZNKSt6__ndk115__codecvt_utf16IDsLb0EE13do_max_lengthEv
000000000014bdec T _ZNKSt6__ndk115__codecvt_utf16IDsLb0EE16do_always_noconvEv
000000000014bd48 T _ZNKSt6__ndk115__codecvt_utf16IDsLb0EE5do_inER9mbstate_tPKcS5_RS5_PDsS7_RS7_
000000000014bccc T _ZNKSt6__ndk115__codecvt_utf16IDsLb0EE6do_outER9mbstate_tPKDsS5_RS5_PcS7_RS7_
000000000014bdf4 T _ZNKSt6__ndk115__codecvt_utf16IDsLb0EE9do_lengthER9mbstate_tPKcS5_m
000000000014bfa8 T _ZNKSt6__ndk115__codecvt_utf16IDsLb1EE10do_unshiftER9mbstate_tPcS4_RS4_
000000000014bfb4 T _ZNKSt6__ndk115__codecvt_utf16IDsLb1EE11do_encodingEv
000000000014c070 T _ZNKSt6__ndk115__codecvt_utf16IDsLb1EE13do_max_lengthEv
000000000014bfbc T _ZNKSt6__ndk115__codecvt_utf16IDsLb1EE16do_always_noconvEv
000000000014bf18 T _ZNKSt6__ndk115__codecvt_utf16IDsLb1EE5do_inER9mbstate_tPKcS5_RS5_PDsS7_RS7_
000000000014bea0 T _ZNKSt6__ndk115__codecvt_utf16IDsLb1EE6do_outER9mbstate_tPKDsS5_RS5_PcS7_RS7_
000000000014bfc4 T _ZNKSt6__ndk115__codecvt_utf16IDsLb1EE9do_lengthER9mbstate_tPKcS5_m
000000000014b894 T _ZNKSt6__ndk115__codecvt_utf16IwLb0EE10do_unshiftER9mbstate_tPcS4_RS4_
000000000014b8a0 T _ZNKSt6__ndk115__codecvt_utf16IwLb0EE11do_encodingEv
000000000014b9ac T _ZNKSt6__ndk115__codecvt_utf16IwLb0EE13do_max_lengthEv
000000000014b8a8 T _ZNKSt6__ndk115__codecvt_utf16IwLb0EE16do_always_noconvEv
000000000014b78c T _ZNKSt6__ndk115__codecvt_utf16IwLb0EE5do_inER9mbstate_tPKcS5_RS5_PwS7_RS7_
000000000014b6ac T _ZNKSt6__ndk115__codecvt_utf16IwLb0EE6do_outER9mbstate_tPKwS5_RS5_PcS7_RS7_
000000000014b8b0 T _ZNKSt6__ndk115__codecvt_utf16IwLb0EE9do_lengthER9mbstate_tPKcS5_m
000000000014bb9c T _ZNKSt6__ndk115__codecvt_utf16IwLb1EE10do_unshiftER9mbstate_tPcS4_RS4_
000000000014bba8 T _ZNKSt6__ndk115__codecvt_utf16IwLb1EE11do_encodingEv
000000000014bcb4 T _ZNKSt6__ndk115__codecvt_utf16IwLb1EE13do_max_lengthEv
000000000014bbb0 T _ZNKSt6__ndk115__codecvt_utf16IwLb1EE16do_always_noconvEv
000000000014ba94 T _ZNKSt6__ndk115__codecvt_utf16IwLb1EE5do_inER9mbstate_tPKcS5_RS5_PwS7_RS7_
000000000014b9c4 T _ZNKSt6__ndk115__codecvt_utf16IwLb1EE6do_outER9mbstate_tPKwS5_RS5_PcS7_RS7_
000000000014bbb8 T _ZNKSt6__ndk115__codecvt_utf16IwLb1EE9do_lengthER9mbstate_tPKcS5_m
000000000011de80 W _ZNKSt6__ndk115basic_streambufIwNS_11char_traitsIwEEE6getlocEv
00000000000bcfdc W _ZNKSt6__ndk115basic_stringbufIcNS_11char_traitsIcEENS_9allocatorIcEEE3strEv
0000000000160960 T _ZNKSt6__ndk115error_condition7messageEv
00000000000cb1c4 W _ZNKSt6__ndk117basic_string_viewIcNS_11char_traitsIcEEE7compareES3_
000000000013a2d0 W _ZNKSt6__ndk117moneypunct_bynameIcLb0EE11do_groupingEv
000000000013a310 W _ZNKSt6__ndk117moneypunct_bynameIcLb0EE13do_neg_formatEv
000000000013a308 W _ZNKSt6__ndk117moneypunct_bynameIcLb0EE13do_pos_formatEv
000000000013a2dc W _ZNKSt6__ndk117moneypunct_bynameIcLb0EE14do_curr_symbolEv
000000000013a300 W _ZNKSt6__ndk117moneypunct_bynameIcLb0EE14do_frac_digitsEv
000000000013a2c0 W _ZNKSt6__ndk117moneypunct_bynameIcLb0EE16do_decimal_pointEv
000000000013a2f4 W _ZNKSt6__ndk117moneypunct_bynameIcLb0EE16do_negative_signEv
000000000013a2e8 W _ZNKSt6__ndk117moneypunct_bynameIcLb0EE16do_positive_signEv
000000000013a2c8 W _ZNKSt6__ndk117moneypunct_bynameIcLb0EE16do_thousands_sepEv
000000000013a328 W _ZNKSt6__ndk117moneypunct_bynameIcLb1EE11do_groupingEv
000000000013a368 W _ZNKSt6__ndk117moneypunct_bynameIcLb1EE13do_neg_formatEv
000000000013a360 W _ZNKSt6__ndk117moneypunct_bynameIcLb1EE13do_pos_formatEv
000000000013a334 W _ZNKSt6__ndk117moneypunct_bynameIcLb1EE14do_curr_symbolEv
000000000013a358 W _ZNKSt6__ndk117moneypunct_bynameIcLb1EE14do_frac_digitsEv
000000000013a318 W _ZNKSt6__ndk117moneypunct_bynameIcLb1EE16do_decimal_pointEv
000000000013a34c W _ZNKSt6__ndk117moneypunct_bynameIcLb1EE16do_negative_signEv
000000000013a340 W _ZNKSt6__ndk117moneypunct_bynameIcLb1EE16do_positive_signEv
000000000013a320 W _ZNKSt6__ndk117moneypunct_bynameIcLb1EE16do_thousands_sepEv
000000000013a380 W _ZNKSt6__ndk117moneypunct_bynameIwLb0EE11do_groupingEv
000000000013a3c0 W _ZNKSt6__ndk117moneypunct_bynameIwLb0EE13do_neg_formatEv
000000000013a3b8 W _ZNKSt6__ndk117moneypunct_bynameIwLb0EE13do_pos_formatEv
000000000013a38c W _ZNKSt6__ndk117moneypunct_bynameIwLb0EE14do_curr_symbolEv
000000000013a3b0 W _ZNKSt6__ndk117moneypunct_bynameIwLb0EE14do_frac_digitsEv
000000000013a370 W _ZNKSt6__ndk117moneypunct_bynameIwLb0EE16do_decimal_pointEv
000000000013a3a4 W _ZNKSt6__ndk117moneypunct_bynameIwLb0EE16do_negative_signEv
000000000013a398 W _ZNKSt6__ndk117moneypunct_bynameIwLb0EE16do_positive_signEv
000000000013a378 W _ZNKSt6__ndk117moneypunct_bynameIwLb0EE16do_thousands_sepEv
000000000013a3d8 W _ZNKSt6__ndk117moneypunct_bynameIwLb1EE11do_groupingEv
000000000013a418 W _ZNKSt6__ndk117moneypunct_bynameIwLb1EE13do_neg_formatEv
000000000013a410 W _ZNKSt6__ndk117moneypunct_bynameIwLb1EE13do_pos_formatEv
000000000013a3e4 W _ZNKSt6__ndk117moneypunct_bynameIwLb1EE14do_curr_symbolEv
000000000013a408 W _ZNKSt6__ndk117moneypunct_bynameIwLb1EE14do_frac_digitsEv
000000000013a3c8 W _ZNKSt6__ndk117moneypunct_bynameIwLb1EE16do_decimal_pointEv
000000000013a3fc W _ZNKSt6__ndk117moneypunct_bynameIwLb1EE16do_negative_signEv
000000000013a3f0 W _ZNKSt6__ndk117moneypunct_bynameIwLb1EE16do_positive_signEv
000000000013a3d0 W _ZNKSt6__ndk117moneypunct_bynameIwLb1EE16do_thousands_sepEv
0000000000151e24 T _ZNKSt6__ndk118__time_get_storageIcE15__do_date_orderEv
0000000000152274 T _ZNKSt6__ndk118__time_get_storageIwE15__do_date_orderEv
00000000001576a8 T _ZNKSt6__ndk119__shared_weak_count13__get_deleterERKSt9type_info
000000000014cf5c T _ZNKSt6__ndk120__codecvt_utf8_utf16IDiE10do_unshiftER9mbstate_tPcS4_RS4_
000000000014cf68 T _ZNKSt6__ndk120__codecvt_utf8_utf16IDiE11do_encodingEv
000000000014cf94 T _ZNKSt6__ndk120__codecvt_utf8_utf16IDiE13do_max_lengthEv
000000000014cf70 T _ZNKSt6__ndk120__codecvt_utf8_utf16IDiE16do_always_noconvEv
000000000014cec8 T _ZNKSt6__ndk120__codecvt_utf8_utf16IDiE5do_inER9mbstate_tPKcS5_RS5_PDiS7_RS7_
000000000014ce34 T _ZNKSt6__ndk120__codecvt_utf8_utf16IDiE6do_outER9mbstate_tPKDiS5_RS5_PcS7_RS7_
000000000014cf78 T _ZNKSt6__ndk120__codecvt_utf8_utf16IDiE9do_lengthER9mbstate_tPKcS5_m
000000000014cde4 T _ZNKSt6__ndk120__codecvt_utf8_utf16IDsE10do_unshiftER9mbstate_tPcS4_RS4_
000000000014cdf0 T _ZNKSt6__ndk120__codecvt_utf8_utf16IDsE11do_encodingEv
000000000014ce1c T _ZNKSt6__ndk120__codecvt_utf8_utf16IDsE13do_max_lengthEv
000000000014cdf8 T _ZNKSt6__ndk120__codecvt_utf8_utf16IDsE16do_always_noconvEv
000000000014cd50 T _ZNKSt6__ndk120__codecvt_utf8_utf16IDsE5do_inER9mbstate_tPKcS5_RS5_PDsS7_RS7_
000000000014ccbc T _ZNKSt6__ndk120__codecvt_utf8_utf16IDsE6do_outER9mbstate_tPKDsS5_RS5_PcS7_RS7_
000000000014ce00 T _ZNKSt6__ndk120__codecvt_utf8_utf16IDsE9do_lengthER9mbstate_tPKcS5_m
000000000014cc6c T _ZNKSt6__ndk120__codecvt_utf8_utf16IwE10do_unshiftER9mbstate_tPcS4_RS4_
000000000014cc78 T _ZNKSt6__ndk120__codecvt_utf8_utf16IwE11do_encodingEv
000000000014cca4 T _ZNKSt6__ndk120__codecvt_utf8_utf16IwE13do_max_lengthEv
000000000014cc80 T _ZNKSt6__ndk120__codecvt_utf8_utf16IwE16do_always_noconvEv
000000000014c95c T _ZNKSt6__ndk120__codecvt_utf8_utf16IwE5do_inER9mbstate_tPKcS5_RS5_PwS7_RS7_
000000000014c6a8 T _ZNKSt6__ndk120__codecvt_utf8_utf16IwE6do_outER9mbstate_tPKwS5_RS5_PcS7_RS7_
000000000014cc88 T _ZNKSt6__ndk120__codecvt_utf8_utf16IwE9do_lengthER9mbstate_tPKcS5_m
000000000014e8c4 T _ZNKSt6__ndk120__time_get_c_storageIcE3__XEv
000000000014e9e0 T _ZNKSt6__ndk120__time_get_c_storageIcE3__cEv
000000000014eb04 T _ZNKSt6__ndk120__time_get_c_storageIcE3__rEv
000000000014e7a8 T _ZNKSt6__ndk120__time_get_c_storageIcE3__xEv
000000000014e5b0 T _ZNKSt6__ndk120__time_get_c_storageIcE7__am_pmEv
000000000014dc28 T _ZNKSt6__ndk120__time_get_c_storageIcE7__weeksEv
000000000014e048 T _ZNKSt6__ndk120__time_get_c_storageIcE8__monthsEv
000000000014e948 T _ZNKSt6__ndk120__time_get_c_storageIwE3__XEv
000000000014ea6c T _ZNKSt6__ndk120__time_get_c_storageIwE3__cEv
000000000014eb90 T _ZNKSt6__ndk120__time_get_c_storageIwE3__rEv
000000000014e82c T _ZNKSt6__ndk120__time_get_c_storageIwE3__xEv
000000000014e6ac T _ZNKSt6__ndk120__time_get_c_storageIwE7__am_pmEv
000000000014de38 T _ZNKSt6__ndk120__time_get_c_storageIwE7__weeksEv
000000000014e2fc T _ZNKSt6__ndk120__time_get_c_storageIwE8__monthsEv
00000000001627e8 W _ZNKSt6__ndk120__vector_base_commonILb1EE20__throw_length_errorEv
00000000001627fc W _ZNKSt6__ndk120__vector_base_commonILb1EE20__throw_out_of_rangeEv
0000000000158684 W _ZNKSt6__ndk121__basic_string_commonILb1EE20__throw_length_errorEv
0000000000158698 W _ZNKSt6__ndk121__basic_string_commonILb1EE20__throw_out_of_rangeEv
00000000000c8530 W _ZNKSt6__ndk14hashINS_12basic_stringIcNS_11char_traitsIcEENS_9allocatorIcEEEEEclERKS6_
0000000000148264 T _ZNKSt6__ndk15ctypeIcE10do_tolowerEPcPKc
00000000001481bc T _ZNKSt6__ndk15ctypeIcE10do_tolowerEc
00000000001480e8 T _ZNKSt6__ndk15ctypeIcE10do_toupperEPcPKc
0000000000148040 T _ZNKSt6__ndk15ctypeIcE10do_toupperEc
0000000000148340 T _ZNKSt6__ndk15ctypeIcE8do_widenEPKcS3_Pc
0000000000148338 T _ZNKSt6__ndk15ctypeIcE8do_widenEc
00000000001483dc T _ZNKSt6__ndk15ctypeIcE9do_narrowEPKcS3_cPc
00000000001483cc T _ZNKSt6__ndk15ctypeIcE9do_narrowEcc
0000000000147af0 T _ZNKSt6__ndk15ctypeIwE10do_scan_isEmPKwS3_
0000000000147da0 T _ZNKSt6__ndk15ctypeIwE10do_tolowerEPwPKw
0000000000147cf8 T _ZNKSt6__ndk15ctypeIwE10do_tolowerEw
0000000000147c20 T _ZNKSt6__ndk15ctypeIwE10do_toupperEPwPKw
0000000000147b78 T _ZNKSt6__ndk15ctypeIwE10do_toupperEw
0000000000147b38 T _ZNKSt6__ndk15ctypeIwE11do_scan_notEmPKwS3_
0000000000147aa8 T _ZNKSt6__ndk15ctypeIwE5do_isEPKwS3_Pm
0000000000147a74 T _ZNKSt6__ndk15ctypeIwE5do_isEmw
0000000000147e80 T _ZNKSt6__ndk15ctypeIwE8do_widenEPKcS3_Pw
0000000000147e78 T _ZNKSt6__ndk15ctypeIwE8do_widenEc
0000000000147eb0 T _ZNKSt6__ndk15ctypeIwE9do_narrowEPKwS3_cPc
0000000000147ea4 T _ZNKSt6__ndk15ctypeIwE9do_narrowEwc
00000000000c4368 W _ZNKSt6__ndk16__treeINS_12__value_typeINS_12basic_stringIcNS_11char_traitsIcEENS_9allocatorIcEEEES7_EENS_19__map_value_compareIS7_S8_NS_4lessIS7_EELb1EEENS5_IS8_EEE10__root_ptrEv
00000000000ed6b0 W _ZNKSt6__ndk16__treeINS_12__value_typeINS_12basic_stringIcNS_11char_traitsIcEENS_9allocatorIcEEEES7_EENS_19__map_value_compareIS7_S8_NS_4lessIS7_EELb1EEENS5_IS8_EEE13__lower_boundIS7_EENS_21__tree_const_iteratorIS8_PNS_11__tree_nodeIS8_PvEElEERKT_SK_PNS_15__tree_end_nodeIPNS_16__tree_node_baseISI_EEEE
00000000000dc4bc W _ZNKSt6__ndk16__treeINS_12__value_typeINS_12basic_stringIcNS_11char_traitsIcEENS_9allocatorIcEEEES7_EENS_19__map_value_compareIS7_S8_NS_4lessIS7_EELb1EEENS5_IS8_EEE14__count_uniqueIS7_EEmRKT_
00000000000ed528 W _ZNKSt6__ndk16__treeINS_12__value_typeINS_12basic_stringIcNS_11char_traitsIcEENS_9allocatorIcEEEES7_EENS_19__map_value_compareIS7_S8_NS_4lessIS7_EELb1EEENS5_IS8_EEE4findIS7_EENS_21__tree_const_iteratorIS8_PNS_11__tree_nodeIS8_PvEElEERKT_
00000000000c2bb4 W _ZNKSt6__ndk16__treeINS_12basic_stringIcNS_11char_traitsIcEENS_9allocatorIcEEEENS_4lessIS6_EENS4_IS6_EEE10__root_ptrEv
00000000000ec894 W _ZNKSt6__ndk16__treeINS_12basic_stringIcNS_11char_traitsIcEENS_9allocatorIcEEEENS_4lessIS6_EENS4_IS6_EEE14__count_uniqueIS6_EEmRKT_
00000000000e0b24 W _ZNKSt6__ndk16__treeIjNS_4lessIjEENS_9allocatorIjEEE10__root_ptrEv
00000000000e027c W _ZNKSt6__ndk16__treeIjNS_4lessIjEENS_9allocatorIjEEE14__count_uniqueIjEEmRKT_
00000000000f06d4 W _ZNKSt6__ndk16__treeImNS_4lessImEENS_9allocatorImEEE10__root_ptrEv
00000000001464f8 T _ZNKSt6__ndk16locale4nameEv
00000000001466f0 T _ZNKSt6__ndk16locale9has_facetERNS0_2idE
0000000000146838 T _ZNKSt6__ndk16locale9use_facetERNS0_2idE
00000000001468ec T _ZNKSt6__ndk16localeeqERKS0_
00000000000ddab0 W _ZNKSt6__ndk16vectorI10Elf32_PhdrNS_9allocatorIS1_EEE8max_sizeEv
00000000000d529c W _ZNKSt6__ndk16vectorI10Elf32_ShdrNS_9allocatorIS1_EEE2atEm
00000000000fb160 W _ZNKSt6__ndk16vectorI10Elf32_ShdrNS_9allocatorIS1_EEE8max_sizeEv
0000000000106204 W _ZNKSt6__ndk16vectorI10Elf64_PhdrNS_9allocatorIS1_EEE8max_sizeEv
0000000000100ba4 W _ZNKSt6__ndk16vectorI10Elf64_ShdrNS_9allocatorIS1_EEE2atEm
000000000011ada0 W _ZNKSt6__ndk16vectorI10Elf64_ShdrNS_9allocatorIS1_EEE8max_sizeEv
00000000000f88f8 W _ZNKSt6__ndk16vectorI9Elf32_SymNS_9allocatorIS1_EEE8max_sizeEv
0000000000119584 W _ZNKSt6__ndk16vectorI9Elf64_SymNS_9allocatorIS1_EEE8max_sizeEv
00000000000c1158 W _ZNKSt6__ndk16vectorINS_12basic_stringIcNS_11char_traitsIcEENS_9allocatorIcEEEENS4_IS6_EEE8max_sizeEv
00000000000f69bc W _ZNKSt6__ndk16vectorIZN7ElfFileI10Elf32_Ehdr10Elf32_Phdr10Elf32_Shdrjj9Elf32_Dyn9Elf32_Symt12Elf32_Verdef13Elf32_Verdaux13Elf32_Verneed13Elf32_Vernaux9Elf32_Rel10Elf32_RelaLj32EE19rebuildGnuHashTableE4spanIcESE_IS6_EE5EntryNS_9allocatorISH_EEE8max_sizeEv
000000000011804c W _ZNKSt6__ndk16vectorIZN7ElfFileI10Elf64_Ehdr10Elf64_Phdr10Elf64_Shdrmm9Elf64_Dyn9Elf64_Symt12Elf64_Verdef13Elf64_Verdaux13Elf64_Verneed13Elf64_Vernaux9Elf64_Rel10Elf64_RelaLj64EE19rebuildGnuHashTableE4spanIcESE_IS6_EE5EntryNS_9allocatorISH_EEE8max_sizeEv
00000000000eaf38 W _ZNKSt6__ndk16vectorIbNS_9allocatorIbEEE8max_sizeEv
00000000000f4470 W _ZNKSt6__ndk16vectorIcNS_9allocatorIcEEE8max_sizeEv
00000000000bf640 W _ZNKSt6__ndk16vectorIhNS_9allocatorIhEEE8max_sizeEv
00000000000f7d94 W _ZNKSt6__ndk16vectorIjNS_9allocatorIjEEE8max_sizeEv
00000000000f9548 W _ZNKSt6__ndk16vectorItNS_9allocatorItEEE8max_sizeEv
000000000014ad64 T _ZNKSt6__ndk17codecvtIDic9mbstate_tE10do_unshiftERS1_PcS4_RS4_
000000000014ad70 T _ZNKSt6__ndk17codecvtIDic9mbstate_tE11do_encodingEv
000000000014afa4 T _ZNKSt6__ndk17codecvtIDic9mbstate_tE13do_max_lengthEv
000000000014ad78 T _ZNKSt6__ndk17codecvtIDic9mbstate_tE16do_always_noconvEv
000000000014aaa4 T _ZNKSt6__ndk17codecvtIDic9mbstate_tE5do_inERS1_PKcS5_RS5_PDiS7_RS7_
000000000014a800 T _ZNKSt6__ndk17codecvtIDic9mbstate_tE6do_outERS1_PKDiS5_RS5_PcS7_RS7_
000000000014ad80 T _ZNKSt6__ndk17codecvtIDic9mbstate_tE9do_lengthERS1_PKcS5_m
000000000014a5a0 T _ZNKSt6__ndk17codecvtIDsc9mbstate_tE10do_unshiftERS1_PcS4_RS4_
000000000014a5ac T _ZNKSt6__ndk17codecvtIDsc9mbstate_tE11do_encodingEv
000000000014a7d4 T _ZNKSt6__ndk17codecvtIDsc9mbstate_tE13do_max_lengthEv
000000000014a5b4 T _ZNKSt6__ndk17codecvtIDsc9mbstate_tE16do_always_noconvEv
000000000014a294 T _ZNKSt6__ndk17codecvtIDsc9mbstate_tE5do_inERS1_PKcS5_RS5_PDsS7_RS7_
0000000000149fe8 T _ZNKSt6__ndk17codecvtIDsc9mbstate_tE6do_outERS1_PKDsS5_RS5_PcS7_RS7_
000000000014a5bc T _ZNKSt6__ndk17codecvtIDsc9mbstate_tE9do_lengthERS1_PKcS5_m
00000000001493a0 T _ZNKSt6__ndk17codecvtIcc9mbstate_tE10do_unshiftERS1_PcS4_RS4_
00000000001493ac T _ZNKSt6__ndk17codecvtIcc9mbstate_tE11do_encodingEv
00000000001493cc T _ZNKSt6__ndk17codecvtIcc9mbstate_tE13do_max_lengthEv
00000000001493b4 T _ZNKSt6__ndk17codecvtIcc9mbstate_tE16do_always_noconvEv
0000000000149390 T _ZNKSt6__ndk17codecvtIcc9mbstate_tE5do_inERS1_PKcS5_RS5_PcS7_RS7_
0000000000149380 T _ZNKSt6__ndk17codecvtIcc9mbstate_tE6do_outERS1_PKcS5_RS5_PcS7_RS7_
00000000001493bc T _ZNKSt6__ndk17codecvtIcc9mbstate_tE9do_lengthERS1_PKcS5_m
0000000000149c64 T _ZNKSt6__ndk17codecvtIwc9mbstate_tE10do_unshiftERS1_PcS4_RS4_
0000000000149d84 T _ZNKSt6__ndk17codecvtIwc9mbstate_tE11do_encodingEv
0000000000149f54 T _ZNKSt6__ndk17codecvtIwc9mbstate_tE13do_max_lengthEv
0000000000149e58 T _ZNKSt6__ndk17codecvtIwc9mbstate_tE16do_always_noconvEv
0000000000149948 T _ZNKSt6__ndk17codecvtIwc9mbstate_tE5do_inERS1_PKcS5_RS5_PwS7_RS7_
0000000000149608 T _ZNKSt6__ndk17codecvtIwc9mbstate_tE6do_outERS1_PKwS5_RS5_PcS7_RS7_
0000000000149e60 T _ZNKSt6__ndk17codecvtIwc9mbstate_tE9do_lengthERS1_PKcS5_m
000000000012a140 W _ZNKSt6__ndk17collateIcE10do_compareEPKcS3_S3_S3_
000000000012a194 W _ZNKSt6__ndk17collateIcE12do_transformEPKcS3_
000000000012a27c W _ZNKSt6__ndk17collateIcE7do_hashEPKcS3_
000000000012a2d8 W _ZNKSt6__ndk17collateIwE10do_compareEPKwS3_S3_S3_
000000000012a32c W _ZNKSt6__ndk17collateIwE12do_transformEPKwS3_
000000000012a444 W _ZNKSt6__ndk17collateIwE7do_hashEPKwS3_
000000000012abdc W _ZNKSt6__ndk17num_getIcNS_19istreambuf_iteratorIcNS_11char_traitsIcEEEEE15__do_get_signedIlEES4_S4_S4_RNS_8ios_baseERjRT_
000000000012af80 W _ZNKSt6__ndk17num_getIcNS_19istreambuf_iteratorIcNS_11char_traitsIcEEEEE15__do_get_signedIxEES4_S4_S4_RNS_8ios_baseERjRT_
000000000012b6c8 W _ZNKSt6__ndk17num_getIcNS_19istreambuf_iteratorIcNS_11char_traitsIcEEEEE17__do_get_unsignedIjEES4_S4_S4_RNS_8ios_baseERjRT_
000000000012ba6c W _ZNKSt6__ndk17num_getIcNS_19istreambuf_iteratorIcNS_11char_traitsIcEEEEE17__do_get_unsignedImEES4_S4_S4_RNS_8ios_baseERjRT_
000000000012b324 W _ZNKSt6__ndk17num_getIcNS_19istreambuf_iteratorIcNS_11char_traitsIcEEEEE17__do_get_unsignedItEES4_S4_S4_RNS_8ios_baseERjRT_
000000000012be10 W _ZNKSt6__ndk17num_getIcNS_19istreambuf_iteratorIcNS_11char_traitsIcEEEEE17__do_get_unsignedIyEES4_S4_S4_RNS_8ios_baseERjRT_
000000000012c53c W _ZNKSt6__ndk17num_getIcNS_19istreambuf_iteratorIcNS_11char_traitsIcEEEEE23__do_get_floating_pointIdEES4_S4_S4_RNS_8ios_baseERjRT_
000000000012c8c4 W _ZNKSt6__ndk17num_getIcNS_19istreambuf_iteratorIcNS_11char_traitsIcEEEEE23__do_get_floating_pointIeEES4_S4_S4_RNS_8ios_baseERjRT_
000000000012c1b4 W _ZNKSt6__ndk17num_getIcNS_19istreambuf_iteratorIcNS_11char_traitsIcEEEEE23__do_get_floating_pointIfEES4_S4_S4_RNS_8ios_baseERjRT_
000000000012cc48 W _ZNKSt6__ndk17num_getIcNS_19istreambuf_iteratorIcNS_11char_traitsIcEEEEE6do_getES4_S4_RNS_8ios_baseERjRPv
000000000012a478 W _ZNKSt6__ndk17num_getIcNS_19istreambuf_iteratorIcNS_11char_traitsIcEEEEE6do_getES4_S4_RNS_8ios_baseERjRb
000000000012c538 W _ZNKSt6__ndk17num_getIcNS_19istreambuf_iteratorIcNS_11char_traitsIcEEEEE6do_getES4_S4_RNS_8ios_baseERjRd
000000000012c8c0 W _ZNKSt6__ndk17num_getIcNS_19istreambuf_iteratorIcNS_11char_traitsIcEEEEE6do_getES4_S4_RNS_8ios_baseERjRe
000000000012c1b0 W _ZNKSt6__ndk17num_getIcNS_19istreambuf_iteratorIcNS_11char_traitsIcEEEEE6do_getES4_S4_RNS_8ios_baseERjRf
000000000012abd8 W _ZNKSt6__ndk17num_getIcNS_19istreambuf_iteratorIcNS_11char_traitsIcEEEEE6do_getES4_S4_RNS_8ios_baseERjRl
000000000012ba68 W _ZNKSt6__ndk17num_getIcNS_19istreambuf_iteratorIcNS_11char_traitsIcEEEEE6do_getES4_S4_RNS_8ios_baseERjRm
000000000012b320 W _ZNKSt6__ndk17num_getIcNS_19istreambuf_iteratorIcNS_11char_traitsIcEEEEE6do_getES4_S4_RNS_8ios_baseERjRt
000000000012af7c W _ZNKSt6__ndk17num_getIcNS_19istreambuf_iteratorIcNS_11char_traitsIcEEEEE6do_getES4_S4_RNS_8ios_baseERjRx
000000000012be0c W _ZNKSt6__ndk17num_getIcNS_19istreambuf_iteratorIcNS_11char_traitsIcEEEEE6do_getES4_S4_RNS_8ios_baseERjRy
000000000012b6c4 W _ZNKSt6__ndk17num_getIcNS_19istreambuf_iteratorIcNS_11char_traitsIcEEEEE6do_getES4_S4_RNS_8ios_baseERjS8_
000000000012dcd8 W _ZNKSt6__ndk17num_getIwNS_19istreambuf_iteratorIwNS_11char_traitsIwEEEEE15__do_get_signedIlEES4_S4_S4_RNS_8ios_baseERjRT_
000000000012e0b0 W _ZNKSt6__ndk17num_getIwNS_19istreambuf_iteratorIwNS_11char_traitsIwEEEEE15__do_get_signedIxEES4_S4_S4_RNS_8ios_baseERjRT_
000000000012e860 W _ZNKSt6__ndk17num_getIwNS_19istreambuf_iteratorIwNS_11char_traitsIwEEEEE17__do_get_unsignedIjEES4_S4_S4_RNS_8ios_baseERjRT_
000000000012ec38 W _ZNKSt6__ndk17num_getIwNS_19istreambuf_iteratorIwNS_11char_traitsIwEEEEE17__do_get_unsignedImEES4_S4_S4_RNS_8ios_baseERjRT_
000000000012e488 W _ZNKSt6__ndk17num_getIwNS_19istreambuf_iteratorIwNS_11char_traitsIwEEEEE17__do_get_unsignedItEES4_S4_S4_RNS_8ios_baseERjRT_
000000000012f010 W _ZNKSt6__ndk17num_getIwNS_19istreambuf_iteratorIwNS_11char_traitsIwEEEEE17__do_get_unsignedIyEES4_S4_S4_RNS_8ios_baseERjRT_
000000000012f7a8 W _ZNKSt6__ndk17num_getIwNS_19istreambuf_iteratorIwNS_11char_traitsIwEEEEE23__do_get_floating_pointIdEES4_S4_S4_RNS_8ios_baseERjRT_
000000000012fb68 W _ZNKSt6__ndk17num_getIwNS_19istreambuf_iteratorIwNS_11char_traitsIwEEEEE23__do_get_floating_pointIeEES4_S4_S4_RNS_8ios_baseERjRT_
000000000012f3e8 W _ZNKSt6__ndk17num_getIwNS_19istreambuf_iteratorIwNS_11char_traitsIwEEEEE23__do_get_floating_pointIfEES4_S4_S4_RNS_8ios_baseERjRT_
000000000012ff24 W _ZNKSt6__ndk17num_getIwNS_19istreambuf_iteratorIwNS_11char_traitsIwEEEEE6do_getES4_S4_RNS_8ios_baseERjRPv
000000000012d57c W _ZNKSt6__ndk17num_getIwNS_19istreambuf_iteratorIwNS_11char_traitsIwEEEEE6do_getES4_S4_RNS_8ios_baseERjRb
000000000012f7a4 W _ZNKSt6__ndk17num_getIwNS_19istreambuf_iteratorIwNS_11char_traitsIwEEEEE6do_getES4_S4_RNS_8ios_baseERjRd
000000000012fb64 W _ZNKSt6__ndk17num_getIwNS_19istreambuf_iteratorIwNS_11char_traitsIwEEEEE6do_getES4_S4_RNS_8ios_baseERjRe
000000000012f3e4 W _ZNKSt6__ndk17num_getIwNS_19istreambuf_iteratorIwNS_11char_traitsIwEEEEE6do_getES4_S4_RNS_8ios_baseERjRf
000000000012dcd4 W _ZNKSt6__ndk17num_getIwNS_19istreambuf_iteratorIwNS_11char_traitsIwEEEEE6do_getES4_S4_RNS_8ios_baseERjRl
000000000012ec34 W _ZNKSt6__ndk17num_getIwNS_19istreambuf_iteratorIwNS_11char_traitsIwEEEEE6do_getES4_S4_RNS_8ios_baseERjRm
000000000012e484 W _ZNKSt6__ndk17num_getIwNS_19istreambuf_iteratorIwNS_11char_traitsIwEEEEE6do_getES4_S4_RNS_8ios_baseERjRt
000000000012e0ac W _ZNKSt6__ndk17num_getIwNS_19istreambuf_iteratorIwNS_11char_traitsIwEEEEE6do_getES4_S4_RNS_8ios_baseERjRx
000000000012f00c W _ZNKSt6__ndk17num_getIwNS_19istreambuf_iteratorIwNS_11char_traitsIwEEEEE6do_getES4_S4_RNS_8ios_baseERjRy
000000000012e85c W _ZNKSt6__ndk17num_getIwNS_19istreambuf_iteratorIwNS_11char_traitsIwEEEEE6do_getES4_S4_RNS_8ios_baseERjS8_
0000000000133864 W _ZNKSt6__ndk17num_putIcNS_19ostreambuf_iteratorIcNS_11char_traitsIcEEEEE6do_putES4_RNS_8ios_baseEcPKv
00000000001316c4 W _ZNKSt6__ndk17num_putIcNS_19ostreambuf_iteratorIcNS_11char_traitsIcEEEEE6do_putES4_RNS_8ios_baseEcb
00000000001328a0 W _ZNKSt6__ndk17num_putIcNS_19ostreambuf_iteratorIcNS_11char_traitsIcEEEEE6do_putES4_RNS_8ios_baseEcd
0000000000133448 W _ZNKSt6__ndk17num_putIcNS_19ostreambuf_iteratorIcNS_11char_traitsIcEEEEE6do_putES4_RNS_8ios_baseEce
00000000001318b8 W _ZNKSt6__ndk17num_putIcNS_19ostreambuf_iteratorIcNS_11char_traitsIcEEEEE6do_putES4_RNS_8ios_baseEcl
0000000000132394 W _ZNKSt6__ndk17num_putIcNS_19ostreambuf_iteratorIcNS_11char_traitsIcEEEEE6do_putES4_RNS_8ios_baseEcm
000000000013212c W _ZNKSt6__ndk17num_putIcNS_19ostreambuf_iteratorIcNS_11char_traitsIcEEEEE6do_putES4_RNS_8ios_baseEcx
000000000013261c W _ZNKSt6__ndk17num_putIcNS_19ostreambuf_iteratorIcNS_11char_traitsIcEEEEE6do_putES4_RNS_8ios_baseEcy
0000000000135abc W _ZNKSt6__ndk17num_putIwNS_19ostreambuf_iteratorIwNS_11char_traitsIwEEEEE6do_putES4_RNS_8ios_baseEwPKv
0000000000133ac0 W _ZNKSt6__ndk17num_putIwNS_19ostreambuf_iteratorIwNS_11char_traitsIwEEEEE6do_putES4_RNS_8ios_baseEwb
0000000000134ca0 W _ZNKSt6__ndk17num_putIwNS_19ostreambuf_iteratorIwNS_11char_traitsIwEEEEE6do_putES4_RNS_8ios_baseEwd
000000000013569c W _ZNKSt6__ndk17num_putIwNS_19ostreambuf_iteratorIwNS_11char_traitsIwEEEEE6do_putES4_RNS_8ios_baseEwe
0000000000133cb8 W _ZNKSt6__ndk17num_putIwNS_19ostreambuf_iteratorIwNS_11char_traitsIwEEEEE6do_putES4_RNS_8ios_baseEwl
000000000013478c W _ZNKSt6__ndk17num_putIwNS_19ostreambuf_iteratorIwNS_11char_traitsIwEEEEE6do_putES4_RNS_8ios_baseEwm
0000000000134514 W _ZNKSt6__ndk17num_putIwNS_19ostreambuf_iteratorIwNS_11char_traitsIwEEEEE6do_putES4_RNS_8ios_baseEwx
0000000000134a18 W _ZNKSt6__ndk17num_putIwNS_19ostreambuf_iteratorIwNS_11char_traitsIwEEEEE6do_putES4_RNS_8ios_baseEwy
000000000011e94c T _ZNKSt6__ndk18ios_base6getlocEv
000000000013fd9c W _ZNKSt6__ndk18messagesIcE6do_getEliiRKNS_12basic_stringIcNS_11char_traitsIcEENS_9allocatorIcEEEE
000000000013fd94 W _ZNKSt6__ndk18messagesIcE7do_openERKNS_12basic_stringIcNS_11char_traitsIcEENS_9allocatorIcEEEERKNS_6localeE
000000000013fda8 W _ZNKSt6__ndk18messagesIcE8do_closeEl
000000000013fdb4 W _ZNKSt6__ndk18messagesIwE6do_getEliiRKNS_12basic_stringIwNS_11char_traitsIwEENS_9allocatorIwEEEE
000000000013fdac W _ZNKSt6__ndk18messagesIwE7do_openERKNS_12basic_stringIcNS_11char_traitsIcEENS_9allocatorIcEEEERKNS_6localeE
000000000013fdc0 W _ZNKSt6__ndk18messagesIwE8do_closeEl
000000000014d1c0 T _ZNKSt6__ndk18numpunctIcE11do_groupingEv
000000000014d1d8 T _ZNKSt6__ndk18numpunctIcE11do_truenameEv
000000000014d2b0 T _ZNKSt6__ndk18numpunctIcE12do_falsenameEv
000000000014d1a0 T _ZNKSt6__ndk18numpunctIcE16do_decimal_pointEv
000000000014d1b0 T _ZNKSt6__ndk18numpunctIcE16do_thousands_sepEv
000000000014d1cc T _ZNKSt6__ndk18numpunctIwE11do_groupingEv
000000000014d1f4 T _ZNKSt6__ndk18numpunctIwE11do_truenameEv
000000000014d2d0 T _ZNKSt6__ndk18numpunctIwE12do_falsenameEv
000000000014d1a8 T _ZNKSt6__ndk18numpunctIwE16do_decimal_pointEv
000000000014d1b8 T _ZNKSt6__ndk18numpunctIwE16do_thousands_sepEv
0000000000136f8c W _ZNKSt6__ndk18time_getIcNS_19istreambuf_iteratorIcNS_11char_traitsIcEEEEE10__get_hourERiRS4_S4_RjRKNS_5ctypeIcEE
0000000000136890 W _ZNKSt6__ndk18time_getIcNS_19istreambuf_iteratorIcNS_11char_traitsIcEEEEE10__get_yearERiRS4_S4_RjRKNS_5ctypeIcEE
00000000001372f4 W _ZNKSt6__ndk18time_getIcNS_19istreambuf_iteratorIcNS_11char_traitsIcEEEEE11__get_am_pmERiRS4_S4_RjRKNS_5ctypeIcEE
0000000000137098 W _ZNKSt6__ndk18time_getIcNS_19istreambuf_iteratorIcNS_11char_traitsIcEEEEE11__get_monthERiRS4_S4_RjRKNS_5ctypeIcEE
000000000013748c W _ZNKSt6__ndk18time_getIcNS_19istreambuf_iteratorIcNS_11char_traitsIcEEEEE11__get_year4ERiRS4_S4_RjRKNS_5ctypeIcEE
0000000000136260 W _ZNKSt6__ndk18time_getIcNS_19istreambuf_iteratorIcNS_11char_traitsIcEEEEE11do_get_dateES4_S4_RNS_8ios_baseERjP2tm
00000000001361fc W _ZNKSt6__ndk18time_getIcNS_19istreambuf_iteratorIcNS_11char_traitsIcEEEEE11do_get_timeES4_S4_RNS_8ios_baseERjP2tm
0000000000136750 W _ZNKSt6__ndk18time_getIcNS_19istreambuf_iteratorIcNS_11char_traitsIcEEEEE11do_get_yearES4_S4_RNS_8ios_baseERjP2tm
00000000001370f4 W _ZNKSt6__ndk18time_getIcNS_19istreambuf_iteratorIcNS_11char_traitsIcEEEEE12__get_minuteERiRS4_S4_RjRKNS_5ctypeIcEE
00000000001373dc W _ZNKSt6__ndk18time_getIcNS_19istreambuf_iteratorIcNS_11char_traitsIcEEEEE12__get_secondERiRS4_S4_RjRKNS_5ctypeIcEE
0000000000136fe4 W _ZNKSt6__ndk18time_getIcNS_19istreambuf_iteratorIcNS_11char_traitsIcEEEEE13__get_12_hourERiRS4_S4_RjRKNS_5ctypeIcEE
00000000001374d4 W _ZNKSt6__ndk18time_getIcNS_19istreambuf_iteratorIcNS_11char_traitsIcEEEEE13__get_percentERS4_S4_RjRKNS_5ctypeIcEE
0000000000137434 W _ZNKSt6__ndk18time_getIcNS_19istreambuf_iteratorIcNS_11char_traitsIcEEEEE13__get_weekdayERiRS4_S4_RjRKNS_5ctypeIcEE
00000000001361f4 W _ZNKSt6__ndk18time_getIcNS_19istreambuf_iteratorIcNS_11char_traitsIcEEEEE13do_date_orderEv
00000000001362e0 W _ZNKSt6__ndk18time_getIcNS_19istreambuf_iteratorIcNS_11char_traitsIcEEEEE14do_get_weekdayES4_S4_RNS_8ios_baseERjP2tm
00000000001366a0 W _ZNKSt6__ndk18time_getIcNS_19istreambuf_iteratorIcNS_11char_traitsIcEEEEE15__get_monthnameERiRS4_S4_RjRKNS_5ctypeIcEE
000000000013651c W _ZNKSt6__ndk18time_getIcNS_19istreambuf_iteratorIcNS_11char_traitsIcEEEEE16do_get_monthnameES4_S4_RNS_8ios_baseERjP2tm
0000000000136468 W _ZNKSt6__ndk18time_getIcNS_19istreambuf_iteratorIcNS_11char_traitsIcEEEEE17__get_weekdaynameERiRS4_S4_RjRKNS_5ctypeIcEE
000000000013714c W _ZNKSt6__ndk18time_getIcNS_19istreambuf_iteratorIcNS_11char_traitsIcEEEEE17__get_white_spaceERS4_S4_RjRKNS_5ctypeIcEE
0000000000137040 W _ZNKSt6__ndk18time_getIcNS_19istreambuf_iteratorIcNS_11char_traitsIcEEEEE18__get_day_year_numERiRS4_S4_RjRKNS_5ctypeIcEE
0000000000135d18 W _ZNKSt6__ndk18time_getIcNS_19istreambuf_iteratorIcNS_11char_traitsIcEEEEE3getES4_S4_RNS_8ios_baseERjP2tmPKcSC_
00000000001368f0 W _ZNKSt6__ndk18time_getIcNS_19istreambuf_iteratorIcNS_11char_traitsIcEEEEE6do_getES4_S4_RNS_8ios_baseERjP2tmcc
0000000000136f30 W _ZNKSt6__ndk18time_getIcNS_19istreambuf_iteratorIcNS_11char_traitsIcEEEEE9__get_dayERiRS4_S4_RjRKNS_5ctypeIcEE
0000000000138c58 W _ZNKSt6__ndk18time_getIwNS_19istreambuf_iteratorIwNS_11char_traitsIwEEEEE10__get_hourERiRS4_S4_RjRKNS_5ctypeIwEE
000000000013856c W _ZNKSt6__ndk18time_getIwNS_19istreambuf_iteratorIwNS_11char_traitsIwEEEEE10__get_yearERiRS4_S4_RjRKNS_5ctypeIwEE
0000000000138ff8 W _ZNKSt6__ndk18time_getIwNS_19istreambuf_iteratorIwNS_11char_traitsIwEEEEE11__get_am_pmERiRS4_S4_RjRKNS_5ctypeIwEE
0000000000138d64 W _ZNKSt6__ndk18time_getIwNS_19istreambuf_iteratorIwNS_11char_traitsIwEEEEE11__get_monthERiRS4_S4_RjRKNS_5ctypeIwEE
0000000000139190 W _ZNKSt6__ndk18time_getIwNS_19istreambuf_iteratorIwNS_11char_traitsIwEEEEE11__get_year4ERiRS4_S4_RjRKNS_5ctypeIwEE
0000000000137f38 W _ZNKSt6__ndk18time_getIwNS_19istreambuf_iteratorIwNS_11char_traitsIwEEEEE11do_get_dateES4_S4_RNS_8ios_baseERjP2tm
0000000000137ed8 W _ZNKSt6__ndk18time_getIwNS_19istreambuf_iteratorIwNS_11char_traitsIwEEEEE11do_get_timeES4_S4_RNS_8ios_baseERjP2tm
000000000013842c W _ZNKSt6__ndk18time_getIwNS_19istreambuf_iteratorIwNS_11char_traitsIwEEEEE11do_get_yearES4_S4_RNS_8ios_baseERjP2tm
0000000000138dc0 W _ZNKSt6__ndk18time_getIwNS_19istreambuf_iteratorIwNS_11char_traitsIwEEEEE12__get_minuteERiRS4_S4_RjRKNS_5ctypeIwEE
00000000001390e0 W _ZNKSt6__ndk18time_getIwNS_19istreambuf_iteratorIwNS_11char_traitsIwEEEEE12__get_secondERiRS4_S4_RjRKNS_5ctypeIwEE
0000000000138cb0 W _ZNKSt6__ndk18time_getIwNS_19istreambuf_iteratorIwNS_11char_traitsIwEEEEE13__get_12_hourERiRS4_S4_RjRKNS_5ctypeIwEE
00000000001391d8 W _ZNKSt6__ndk18time_getIwNS_19istreambuf_iteratorIwNS_11char_traitsIwEEEEE13__get_percentERS4_S4_RjRKNS_5ctypeIwEE
0000000000139138 W _ZNKSt6__ndk18time_getIwNS_19istreambuf_iteratorIwNS_11char_traitsIwEEEEE13__get_weekdayERiRS4_S4_RjRKNS_5ctypeIwEE
0000000000137ed0 W _ZNKSt6__ndk18time_getIwNS_19istreambuf_iteratorIwNS_11char_traitsIwEEEEE13do_date_orderEv
0000000000137fbc W _ZNKSt6__ndk18time_getIwNS_19istreambuf_iteratorIwNS_11char_traitsIwEEEEE14do_get_weekdayES4_S4_RNS_8ios_baseERjP2tm
000000000013837c W _ZNKSt6__ndk18time_getIwNS_19istreambuf_iteratorIwNS_11char_traitsIwEEEEE15__get_monthnameERiRS4_S4_RjRKNS_5ctypeIwEE
00000000001381f8 W _ZNKSt6__ndk18time_getIwNS_19istreambuf_iteratorIwNS_11char_traitsIwEEEEE16do_get_monthnameES4_S4_RNS_8ios_baseERjP2tm
0000000000138144 W _ZNKSt6__ndk18time_getIwNS_19istreambuf_iteratorIwNS_11char_traitsIwEEEEE17__get_weekdaynameERiRS4_S4_RjRKNS_5ctypeIwEE
0000000000138e18 W _ZNKSt6__ndk18time_getIwNS_19istreambuf_iteratorIwNS_11char_traitsIwEEEEE17__get_white_spaceERS4_S4_RjRKNS_5ctypeIwEE
0000000000138d0c W _ZNKSt6__ndk18time_getIwNS_19istreambuf_iteratorIwNS_11char_traitsIwEEEEE18__get_day_year_numERiRS4_S4_RjRKNS_5ctypeIwEE
00000000001379bc W _ZNKSt6__ndk18time_getIwNS_19istreambuf_iteratorIwNS_11char_traitsIwEEEEE3getES4_S4_RNS_8ios_baseERjP2tmPKwSC_
00000000001385cc W _ZNKSt6__ndk18time_getIwNS_19istreambuf_iteratorIwNS_11char_traitsIwEEEEE6do_getES4_S4_RNS_8ios_baseERjP2tmcc
0000000000138bfc W _ZNKSt6__ndk18time_getIwNS_19istreambuf_iteratorIwNS_11char_traitsIwEEEEE9__get_dayERiRS4_S4_RjRKNS_5ctypeIwEE
0000000000139748 W _ZNKSt6__ndk18time_putIcNS_19ostreambuf_iteratorIcNS_11char_traitsIcEEEEE3putES4_RNS_8ios_baseEcPK2tmPKcSC_
0000000000139a44 W _ZNKSt6__ndk18time_putIcNS_19ostreambuf_iteratorIcNS_11char_traitsIcEEEEE6do_putES4_RNS_8ios_baseEcPK2tmcc
0000000000139bbc W _ZNKSt6__ndk18time_putIwNS_19ostreambuf_iteratorIwNS_11char_traitsIwEEEEE3putES4_RNS_8ios_baseEwPK2tmPKwSC_
0000000000139ee4 W _ZNKSt6__ndk18time_putIwNS_19ostreambuf_iteratorIwNS_11char_traitsIwEEEEE6do_putES4_RNS_8ios_baseEwPK2tmcc
000000000013badc W _ZNKSt6__ndk19money_getIcNS_19istreambuf_iteratorIcNS_11char_traitsIcEEEEE6do_getES4_S4_bRNS_8ios_baseERjRNS_12basic_stringIcS3_NS_9allocatorIcEEEE
000000000013a420 W _ZNKSt6__ndk19money_getIcNS_19istreambuf_iteratorIcNS_11char_traitsIcEEEEE6do_getES4_S4_bRNS_8ios_baseERjRe
000000000013d840 W _ZNKSt6__ndk19money_getIwNS_19istreambuf_iteratorIwNS_11char_traitsIwEEEEE6do_getES4_S4_bRNS_8ios_baseERjRNS_12basic_stringIwS3_NS_9allocatorIwEEEE
000000000013c108 W _ZNKSt6__ndk19money_getIwNS_19istreambuf_iteratorIwNS_11char_traitsIwEEEEE6do_getES4_S4_bRNS_8ios_baseERjRe
000000000013e9f8 W _ZNKSt6__ndk19money_putIcNS_19ostreambuf_iteratorIcNS_11char_traitsIcEEEEE6do_putES4_bRNS_8ios_baseEcRKNS_12basic_stringIcS3_NS_9allocatorIcEEEE
000000000013dd74 W _ZNKSt6__ndk19money_putIcNS_19ostreambuf_iteratorIcNS_11char_traitsIcEEEEE6do_putES4_bRNS_8ios_baseEce
000000000013f9c8 W _ZNKSt6__ndk19money_putIwNS_19ostreambuf_iteratorIwNS_11char_traitsIwEEEEE6do_putES4_bRNS_8ios_baseEwRKNS_12basic_stringIwS3_NS_9allocatorIwEEEE
000000000013edc0 W _ZNKSt6__ndk19money_putIwNS_19ostreambuf_iteratorIwNS_11char_traitsIwEEEEE6do_putES4_bRNS_8ios_baseEwe
0000000000179e54 T _ZNKSt8bad_cast4whatEv
00000000001799ec T _ZNKSt9bad_alloc4whatEv
00000000001799b8 T _ZNKSt9exception4whatEv
0000000000179e60 T _ZNSt10bad_typeidC1Ev
0000000000179e60 T _ZNSt10bad_typeidC2Ev
0000000000179e78 T _ZNSt10bad_typeidD0Ev
0000000000179e74 T _ZNSt10bad_typeidD1Ev
0000000000179e74 T _ZNSt10bad_typeidD2Ev
00000000001583cc T _ZNSt11logic_errorC1EPKc
000000000015833c T _ZNSt11logic_errorC1ERKNSt6__ndk112basic_stringIcNS0_11char_traitsIcEENS0_9allocatorIcEEEE
0000000000158450 T _ZNSt11logic_errorC1ERKS_
00000000001583cc T _ZNSt11logic_errorC2EPKc
000000000015833c T _ZNSt11logic_errorC2ERKNSt6__ndk112basic_stringIcNS0_11char_traitsIcEENS0_9allocatorIcEEEE
0000000000158450 T _ZNSt11logic_errorC2ERKS_
0000000000179a70 T _ZNSt11logic_errorD0Ev
0000000000179a1c T _ZNSt11logic_errorD1Ev
0000000000179a1c T _ZNSt11logic_errorD2Ev
0000000000158480 T _ZNSt11logic_erroraSERKS_
0000000000179cfc T _ZNSt11range_errorD0Ev
0000000000179ad4 T _ZNSt11range_errorD1Ev
0000000000179ad4 T _ZNSt11range_errorD2Ev
0000000000179b8c T _ZNSt12domain_errorD0Ev
0000000000179a1c T _ZNSt12domain_errorD1Ev
0000000000179a1c T _ZNSt12domain_errorD2Ev
0000000000179c44 T _ZNSt12length_errorD0Ev
0000000000179a1c T _ZNSt12length_errorD1Ev
0000000000179a1c T _ZNSt12length_errorD2Ev
0000000000179ca0 T _ZNSt12out_of_rangeD0Ev
0000000000179a1c T _ZNSt12out_of_rangeD1Ev
0000000000179a1c T _ZNSt12out_of_rangeD2Ev
00000000001799c4 T _ZNSt13bad_exceptionD0Ev
00000000001799b0 T _ZNSt13bad_exceptionD1Ev
00000000001799b0 T _ZNSt13bad_exceptionD2Ev
0000000000129fac T _ZNSt13exception_ptrC1ERKS_
0000000000129fac T _ZNSt13exception_ptrC2ERKS_
0000000000129fa4 T _ZNSt13exception_ptrD1Ev
0000000000129fa4 T _ZNSt13exception_ptrD2Ev
0000000000129fbc T _ZNSt13exception_ptraSERKS_
0000000000158570 T _ZNSt13runtime_errorC1EPKc
00000000001584e0 T _ZNSt13runtime_errorC1ERKNSt6__ndk112basic_stringIcNS0_11char_traitsIcEENS0_9allocatorIcEEEE
00000000001585f4 T _ZNSt13runtime_errorC1ERKS_
0000000000158570 T _ZNSt13runtime_errorC2EPKc
00000000001584e0 T _ZNSt13runtime_errorC2ERKNSt6__ndk112basic_stringIcNS0_11char_traitsIcEENS0_9allocatorIcEEEE
00000000001585f4 T _ZNSt13runtime_errorC2ERKS_
0000000000179b28 T _ZNSt13runtime_errorD0Ev
0000000000179ad4 T _ZNSt13runtime_errorD1Ev
0000000000179ad4 T _ZNSt13runtime_errorD2Ev
0000000000158624 T _ZNSt13runtime_erroraSERKS_
0000000000179d58 T _ZNSt14overflow_errorD0Ev
0000000000179ad4 T _ZNSt14overflow_errorD1Ev
0000000000179ad4 T _ZNSt14overflow_errorD2Ev
0000000000179db4 T _ZNSt15underflow_errorD0Ev
0000000000179ad4 T _ZNSt15underflow_errorD1Ev
0000000000179ad4 T _ZNSt15underflow_errorD2Ev
0000000000179be8 T _ZNSt16invalid_argumentD0Ev
0000000000179a1c T _ZNSt16invalid_argumentD1Ev
0000000000179a1c T _ZNSt16invalid_argumentD2Ev
000000000012a004 T _ZNSt16nested_exceptionC1Ev
000000000012a004 T _ZNSt16nested_exceptionC2Ev
000000000012a078 T _ZNSt16nested_exceptionD0Ev
000000000012a05c T _ZNSt16nested_exceptionD1Ev
000000000012a05c T _ZNSt16nested_exceptionD2Ev
00000000001799f8 T _ZNSt20bad_array_new_lengthC1Ev
00000000001799f8 T _ZNSt20bad_array_new_lengthC2Ev
0000000000179a0c T _ZNSt20bad_array_new_lengthD0Ev
00000000001799b0 T _ZNSt20bad_array_new_lengthD1Ev
00000000001799b0 T _ZNSt20bad_array_new_lengthD2Ev
000000000014ec28 T _ZNSt6__ndk110__time_getC1EPKc
000000000014ed7c T _ZNSt6__ndk110__time_getC1ERKNS_12basic_stringIcNS_11char_traitsIcEENS_9allocatorIcEEEE
000000000014ec28 T _ZNSt6__ndk110__time_getC2EPKc
000000000014ed7c T _ZNSt6__ndk110__time_getC2ERKNS_12basic_stringIcNS_11char_traitsIcEENS_9allocatorIcEEEE
000000000014ee28 T _ZNSt6__ndk110__time_getD1Ev
000000000014ee28 T _ZNSt6__ndk110__time_getD2Ev
00000000001526c4 T _ZNSt6__ndk110__time_putC1EPKc
0000000000152818 T _ZNSt6__ndk110__time_putC1ERKNS_12basic_stringIcNS_11char_traitsIcEENS_9allocatorIcEEEE
00000000001526c4 T _ZNSt6__ndk110__time_putC2EPKc
0000000000152818 T _ZNSt6__ndk110__time_putC2ERKNS_12basic_stringIcNS_11char_traitsIcEENS_9allocatorIcEEEE
00000000001528c4 T _ZNSt6__ndk110__time_putD1Ev
00000000001528c4 T _ZNSt6__ndk110__time_putD2Ev
0000000000083ea9 R _ZNSt6__ndk110adopt_lockE
0000000000082418 R _ZNSt6__ndk110ctype_base5alnumE
00000000000823f0 R _ZNSt6__ndk110ctype_base5alphaE
0000000000082410 R _ZNSt6__ndk110ctype_base5blankE
00000000000823d8 R _ZNSt6__ndk110ctype_base5cntrlE
00000000000823f8 R _ZNSt6__ndk110ctype_base5digitE
0000000000082420 R _ZNSt6__ndk110ctype_base5graphE
00000000000823e8 R _ZNSt6__ndk110ctype_base5lowerE
00000000000823d0 R _ZNSt6__ndk110ctype_base5printE
0000000000082400 R _ZNSt6__ndk110ctype_base5punctE
00000000000823c8 R _ZNSt6__ndk110ctype_base5spaceE
00000000000823e0 R _ZNSt6__ndk110ctype_base5upperE
0000000000082408 R _ZNSt6__ndk110ctype_base6xdigitE
0000000000083ea7 R _ZNSt6__ndk110defer_lockE
000000000018f148 V _ZNSt6__ndk110moneypunctIcLb0EE2idE
00000000000823a4 V _ZNSt6__ndk110moneypunctIcLb0EE4intlE
000000000018f158 V _ZNSt6__ndk110moneypunctIcLb1EE2idE
00000000000823a5 V _ZNSt6__ndk110moneypunctIcLb1EE4intlE
000000000018f168 V _ZNSt6__ndk110moneypunctIwLb0EE2idE
00000000000823a6 V _ZNSt6__ndk110moneypunctIwLb0EE4intlE
000000000018f178 V _ZNSt6__ndk110moneypunctIwLb1EE2idE
00000000000823a7 V _ZNSt6__ndk110moneypunctIwLb1EE4intlE
00000000000be980 W _ZNSt6__ndk110shared_ptrINS_6vectorIhNS_9allocatorIhEEEEE27__create_with_control_blockIS4_NS_20__shared_ptr_emplaceIS4_NS2_IS4_EEEEEES5_PT_PT0_
00000000000be0f8 W _ZNSt6__ndk110shared_ptrINS_6vectorIhNS_9allocatorIhEEEEED2Ev
000000000015fc84 T _ZNSt6__ndk110to_wstringEd
000000000015fe78 T _ZNSt6__ndk110to_wstringEe
000000000015fa8c T _ZNSt6__ndk110to_wstringEf
000000000015eee4 T _ZNSt6__ndk110to_wstringEi
000000000015f394 T _ZNSt6__ndk110to_wstringEj
000000000015f074 T _ZNSt6__ndk110to_wstringEl
000000000015f4c0 T _ZNSt6__ndk110to_wstringEm
000000000015f204 T _ZNSt6__ndk110to_wstringEx
000000000015f5ec T _ZNSt6__ndk110to_wstringEy
00000000000e2108 W _ZNSt6__ndk110unique_ptrI10Elf32_PhdrNS_25__return_temporary_bufferEEC2ILb1EvEEv
00000000000e2c74 W _ZNSt6__ndk110unique_ptrI10Elf32_PhdrRNS_12__destruct_nEEC2ILb1EvEEPS1_NS_16__dependent_typeINS_27__unique_ptr_deleter_sfinaeIS3_EEXT_EE15__lval_ref_typeE
00000000000e5a44 W _ZNSt6__ndk110unique_ptrI10Elf32_ShdrNS_25__return_temporary_bufferEEC2ILb1EvEEv
00000000000e6470 W _ZNSt6__ndk110unique_ptrI10Elf32_ShdrRNS_12__destruct_nEEC2ILb1EvEEPS1_NS_16__dependent_typeINS_27__unique_ptr_deleter_sfinaeIS3_EEXT_EE15__lval_ref_typeE
00000000001092dc W _ZNSt6__ndk110unique_ptrI10Elf64_PhdrNS_25__return_temporary_bufferEEC2ILb1EvEEv
0000000000109e0c W _ZNSt6__ndk110unique_ptrI10Elf64_PhdrRNS_12__destruct_nEEC2ILb1EvEEPS1_NS_16__dependent_typeINS_27__unique_ptr_deleter_sfinaeIS3_EEXT_EE15__lval_ref_typeE
000000000010cd0c W _ZNSt6__ndk110unique_ptrI10Elf64_ShdrNS_25__return_temporary_bufferEEC2ILb1EvEEv
000000000010d740 W _ZNSt6__ndk110unique_ptrI10Elf64_ShdrRNS_12__destruct_nEEC2ILb1EvEEPS1_NS_16__dependent_typeINS_27__unique_ptr_deleter_sfinaeIS3_EEXT_EE15__lval_ref_typeE
00000000000c7510 W _ZNSt6__ndk110unique_ptrI7__sFILEPFiPS1_EEC2ILb1EvEES2_NS_16__dependent_typeINS_27__unique_ptr_deleter_sfinaeIS4_EEXT_EE20__good_rval_ref_typeE
00000000000cd770 W _ZNSt6__ndk110unique_ptrIA_PNS_16__hash_node_baseIPNS_11__hash_nodeINS_12basic_stringIcNS_11char_traitsIcEENS_9allocatorIcEEEEPvEEEENS_25__bucket_list_deallocatorINS6_ISD_EEEEE5resetIPSD_EENS_9enable_ifIXsr28_CheckArrayPointerConversionIT_EE5valueEvE4typeESM_
000000000011c580 W _ZNSt6__ndk110unique_ptrIA_PNS_16__hash_node_baseIPNS_11__hash_nodeINS_12basic_stringIcNS_11char_traitsIcEENS_9allocatorIcEEEEPvEEEENS_25__bucket_list_deallocatorINS6_ISD_EEEEEC2ILb1EvEEv
00000000000ef358 W _ZNSt6__ndk110unique_ptrIA_PNS_16__hash_node_baseIPNS_11__hash_nodeINS_17__hash_value_typeINS_12basic_stringIcNS_11char_traitsIcEENS_9allocatorIcEEEEjEEPvEEEENS_25__bucket_list_deallocatorINS7_ISF_EEEEE5resetIPSF_EENS_9enable_ifIXsr28_CheckArrayPointerConversionIT_EE5valueEvE4typeESO_
00000000000ece38 W _ZNSt6__ndk110unique_ptrIA_PNS_16__hash_node_baseIPNS_11__hash_nodeINS_17__hash_value_typeINS_12basic_stringIcNS_11char_traitsIcEENS_9allocatorIcEEEEjEEPvEEEENS_25__bucket_list_deallocatorINS7_ISF_EEEEEC2ILb1EvEEv
0000000000114d44 W _ZNSt6__ndk110unique_ptrIA_PNS_16__hash_node_baseIPNS_11__hash_nodeINS_17__hash_value_typeINS_12basic_stringIcNS_11char_traitsIcEENS_9allocatorIcEEEEmEEPvEEEENS_25__bucket_list_deallocatorINS7_ISF_EEEEE5resetIPSF_EENS_9enable_ifIXsr28_CheckArrayPointerConversionIT_EE5valueEvE4typeESO_
0000000000112c84 W _ZNSt6__ndk110unique_ptrIA_PNS_16__hash_node_baseIPNS_11__hash_nodeINS_17__hash_value_typeINS_12basic_stringIcNS_11char_traitsIcEENS_9allocatorIcEEEEmEEPvEEEENS_25__bucket_list_deallocatorINS7_ISF_EEEEEC2ILb1EvEEv
00000000000cbd80 W _ZNSt6__ndk110unique_ptrIA_PNS_16__hash_node_baseIPNS_11__hash_nodeINS_17__hash_value_typeINS_17basic_string_viewIcNS_11char_traitsIcEEEENS_12basic_stringIcS6_NS_9allocatorIcEEEEEEPvEEEENS_25__bucket_list_deallocatorINS9_ISH_EEEEE5resetIPSH_EENS_9enable_ifIXsr28_CheckArrayPointerConversionIT_EE5valueEvE4typeESQ_
000000000011bf14 W _ZNSt6__ndk110unique_ptrIA_PNS_16__hash_node_baseIPNS_11__hash_nodeINS_17__hash_value_typeINS_17basic_string_viewIcNS_11char_traitsIcEEEENS_12basic_stringIcS6_NS_9allocatorIcEEEEEEPvEEEENS_25__bucket_list_deallocatorINS9_ISH_EEEEEC2ILb1EvEEv
00000000000cd08c W _ZNSt6__ndk110unique_ptrINS_11__hash_nodeINS_12basic_stringIcNS_11char_traitsIcEENS_9allocatorIcEEEEPvEENS_22__hash_node_destructorINS5_IS9_EEEEEC2ILb1EvEEPS9_NS_16__dependent_typeINS_27__unique_ptr_deleter_sfinaeISC_EEXT_EE20__good_rval_ref_typeE
00000000000eeb08 W _ZNSt6__ndk110unique_ptrINS_11__hash_nodeINS_17__hash_value_typeINS_12basic_stringIcNS_11char_traitsIcEENS_9allocatorIcEEEEjEEPvEENS_22__hash_node_destructorINS6_ISB_EEEEEC2ILb1EvEEPSB_NS_16__dependent_typeINS_27__unique_ptr_deleter_sfinaeISE_EEXT_EE20__good_rval_ref_typeE
00000000001144f4 W _ZNSt6__ndk110unique_ptrINS_11__hash_nodeINS_17__hash_value_typeINS_12basic_stringIcNS_11char_traitsIcEENS_9allocatorIcEEEEmEEPvEENS_22__hash_node_destructorINS6_ISB_EEEEEC2ILb1EvEEPSB_NS_16__dependent_typeINS_27__unique_ptr_deleter_sfinaeISE_EEXT_EE20__good_rval_ref_typeE
00000000000cb428 W _ZNSt6__ndk110unique_ptrINS_11__hash_nodeINS_17__hash_value_typeINS_17basic_string_viewIcNS_11char_traitsIcEEEENS_12basic_stringIcS5_NS_9allocatorIcEEEEEEPvEENS_22__hash_node_destructorINS8_ISD_EEEEEC2ILb1EvEEPSD_NS_16__dependent_typeINS_27__unique_ptr_deleter_sfinaeISG_EEXT_EE20__good_rval_ref_typeE
00000000000c4640 W _ZNSt6__ndk110unique_ptrINS_11__tree_nodeINS_12__value_typeINS_12basic_stringIcNS_11char_traitsIcEENS_9allocatorIcEEEES8_EEPvEENS_22__tree_node_destructorINS6_ISB_EEEEEC2ILb1EvEEPSB_NS_16__dependent_typeINS_27__unique_ptr_deleter_sfinaeISE_EEXT_EE20__good_rval_ref_typeE
00000000000c3044 W _ZNSt6__ndk110unique_ptrINS_11__tree_nodeINS_12basic_stringIcNS_11char_traitsIcEENS_9allocatorIcEEEEPvEENS_22__tree_node_destructorINS5_IS9_EEEEEC2ILb1EvEEPS9_NS_16__dependent_typeINS_27__unique_ptr_deleter_sfinaeISC_EEXT_EE20__good_rval_ref_typeE
00000000000e0c38 W _ZNSt6__ndk110unique_ptrINS_11__tree_nodeIjPvEENS_22__tree_node_destructorINS_9allocatorIS3_EEEEEC2ILb1EvEEPS3_NS_16__dependent_typeINS_27__unique_ptr_deleter_sfinaeIS7_EEXT_EE20__good_rval_ref_typeE
00000000000f086c W _ZNSt6__ndk110unique_ptrINS_11__tree_nodeImPvEENS_22__tree_node_destructorINS_9allocatorIS3_EEEEEC2ILb1EvEEPS3_NS_16__dependent_typeINS_27__unique_ptr_deleter_sfinaeIS7_EEXT_EE20__good_rval_ref_typeE
00000000000be7b0 W _ZNSt6__ndk110unique_ptrINS_20__shared_ptr_emplaceINS_6vectorIhNS_9allocatorIhEEEENS3_IS5_EEEENS_22__allocator_destructorINS3_IS7_EEEEEC2ILb1EvEEPS7_NS_16__dependent_typeINS_27__unique_ptr_deleter_sfinaeISA_EEXT_EE20__good_rval_ref_typeE
0000000000157df0 T _ZNSt6__ndk111__call_onceERVmPvPFvS2_E
000000000013bdac W _ZNSt6__ndk111__money_getIcE13__gather_infoEbRKNS_6localeERNS_10money_base7patternERcS8_RNS_12basic_stringIcNS_11char_traitsIcEENS_9allocatorIcEEEESF_SF_SF_Ri
000000000013db1c W _ZNSt6__ndk111__money_getIwE13__gather_infoEbRKNS_6localeERNS_10money_base7patternERwS8_RNS_12basic_stringIcNS_11char_traitsIcEENS_9allocatorIcEEEERNS9_IwNSA_IwEENSC_IwEEEESJ_SJ_Ri
000000000013e2c0 W _ZNSt6__ndk111__money_putIcE13__gather_infoEbbRKNS_6localeERNS_10money_base7patternERcS8_RNS_12basic_stringIcNS_11char_traitsIcEENS_9allocatorIcEEEESF_SF_Ri
000000000013e504 W _ZNSt6__ndk111__money_putIcE8__formatEPcRS2_S3_jPKcS5_RKNS_5ctypeIcEEbRKNS_10money_base7patternEccRKNS_12basic_stringIcNS_11char_traitsIcEENS_9allocatorIcEEEESL_SL_i
000000000013f270 W _ZNSt6__ndk111__money_putIwE13__gather_infoEbbRKNS_6localeERNS_10money_base7patternERwS8_RNS_12basic_stringIcNS_11char_traitsIcEENS_9allocatorIcEEEERNS9_IwNSA_IwEENSC_IwEEEESJ_Ri
000000000013f4b4 W _ZNSt6__ndk111__money_putIwE8__formatEPwRS2_S3_jPKwS5_RKNS_5ctypeIwEEbRKNS_10money_base7patternEwwRKNS_12basic_stringIcNS_11char_traitsIcEENS_9allocatorIcEEEERKNSE_IwNSF_IwEENSH_IwEEEESQ_i
00000000000deacc W _ZNSt6__ndk111__wrap_iterIPK10Elf32_PhdrEC2IPS1_EERKNS0_IT_EEPNS_9enable_ifIXsr14is_convertibleIS7_S3_EE5valueEvE4typeE
0000000000107304 W _ZNSt6__ndk111__wrap_iterIPK10Elf64_PhdrEC2IPS1_EERKNS0_IT_EEPNS_9enable_ifIXsr14is_convertibleIS7_S3_EE5valueEvE4typeE
00000000000d6000 W _ZNSt6__ndk111__wrap_iterIPKcEC2IPcEERKNS0_IT_EEPNS_9enable_ifIXsr14is_convertibleIS6_S2_EE5valueEvE4typeE
00000000000bc42c W _ZNSt6__ndk111char_traitsIcE11eq_int_typeEii
00000000000bc418 W _ZNSt6__ndk111char_traitsIcE11to_int_typeEc
00000000000bc4e0 W _ZNSt6__ndk111char_traitsIcE12to_char_typeEi
00000000000bc4b8 W _ZNSt6__ndk111char_traitsIcE2eqEcc
00000000000bb7ac W _ZNSt6__ndk111char_traitsIcE3eofEv
00000000000c08c8 W _ZNSt6__ndk111char_traitsIcE4findEPKcmRS2_
00000000000bd6b0 W _ZNSt6__ndk111char_traitsIcE6assignERcRKc
00000000000baf5c W _ZNSt6__ndk111char_traitsIcE6lengthEPKc
00000000000c2f34 W _ZNSt6__ndk111char_traitsIcE7compareEPKcS3_m
00000000000bc454 W _ZNSt6__ndk111char_traitsIcE7not_eofEi
00000000001613ac T _ZNSt6__ndk111this_thread9sleep_forERKNS_6chrono8durationIxNS_5ratioILl1ELl1000000000EEEEE
00000000001579e8 T _ZNSt6__ndk111timed_mutex4lockEv
0000000000157af4 T _ZNSt6__ndk111timed_mutex6unlockEv
0000000000157a9c T _ZNSt6__ndk111timed_mutex8try_lockEv
000000000015796c T _ZNSt6__ndk111timed_mutexC1Ev
000000000015796c T _ZNSt6__ndk111timed_mutexC2Ev
0000000000157984 T _ZNSt6__ndk111timed_mutexD1Ev
0000000000157984 T _ZNSt6__ndk111timed_mutexD2Ev
0000000000083ea8 R _ZNSt6__ndk111try_to_lockE
000000000013a820 T _ZNSt6__ndk112__do_nothingEPv
000000000015771c T _ZNSt6__ndk112__get_sp_mutEPKv
000000000011ca38 W _ZNSt6__ndk112__hash_tableINS_12basic_stringIcNS_11char_traitsIcEENS_9allocatorIcEEEENS_4hashIS6_EENS_8equal_toIS6_EENS4_IS6_EEE17__deallocate_nodeEPNS_16__hash_node_baseIPNS_11__hash_nodeIS6_PvEEEE
00000000000ccaa0 W _ZNSt6__ndk112__hash_tableINS_12basic_stringIcNS_11char_traitsIcEENS_9allocatorIcEEEENS_4hashIS6_EENS_8equal_toIS6_EENS4_IS6_EEE21__construct_node_hashIRKS6_JEEENS_10unique_ptrINS_11__hash_nodeIS6_PvEENS_22__hash_node_destructorINS4_ISJ_EEEEEEmOT_DpOT0_
00000000000cc574 W _ZNSt6__ndk112__hash_tableINS_12basic_stringIcNS_11char_traitsIcEENS_9allocatorIcEEEENS_4hashIS6_EENS_8equal_toIS6_EENS4_IS6_EEE25__emplace_unique_key_argsIS6_JRKS6_EEENS_4pairINS_15__hash_iteratorIPNS_11__hash_nodeIS6_PvEEEEbEERKT_DpOT0_
00000000000ccc68 W _ZNSt6__ndk112__hash_tableINS_12basic_stringIcNS_11char_traitsIcEENS_9allocatorIcEEEENS_4hashIS6_EENS_8equal_toIS6_EENS4_IS6_EEE6rehashEm
00000000000cd490 W _ZNSt6__ndk112__hash_tableINS_12basic_stringIcNS_11char_traitsIcEENS_9allocatorIcEEEENS_4hashIS6_EENS_8equal_toIS6_EENS4_IS6_EEE8__rehashEm
000000000011c9f4 W _ZNSt6__ndk112__hash_tableINS_12basic_stringIcNS_11char_traitsIcEENS_9allocatorIcEEEENS_4hashIS6_EENS_8equal_toIS6_EENS4_IS6_EEED2Ev
00000000000ef7dc W _ZNSt6__ndk112__hash_tableINS_17__hash_value_typeINS_12basic_stringIcNS_11char_traitsIcEENS_9allocatorIcEEEEjEENS_22__unordered_map_hasherIS7_S8_NS_4hashIS7_EELb1EEENS_21__unordered_map_equalIS7_S8_NS_8equal_toIS7_EELb1EEENS5_IS8_EEE17__deallocate_nodeEPNS_16__hash_node_baseIPNS_11__hash_nodeIS8_PvEEEE
00000000000ee590 W _ZNSt6__ndk112__hash_tableINS_17__hash_value_typeINS_12basic_stringIcNS_11char_traitsIcEENS_9allocatorIcEEEEjEENS_22__unordered_map_hasherIS7_S8_NS_4hashIS7_EELb1EEENS_21__unordered_map_equalIS7_S8_NS_8equal_toIS7_EELb1EEENS5_IS8_EEE21__construct_node_hashIRKNS_21piecewise_construct_tEJNS_5tupleIJRKS7_EEENSN_IJEEEEEENS_10unique_ptrINS_11__hash_nodeIS8_PvEENS_22__hash_node_destructorINS5_ISV_EEEEEEmOT_DpOT0_
00000000000ee098 W _ZNSt6__ndk112__hash_tableINS_17__hash_value_typeINS_12basic_stringIcNS_11char_traitsIcEENS_9allocatorIcEEEEjEENS_22__unordered_map_hasherIS7_S8_NS_4hashIS7_EELb1EEENS_21__unordered_map_equalIS7_S8_NS_8equal_toIS7_EELb1EEENS5_IS8_EEE25__emplace_unique_key_argsIS7_JRKNS_21piecewise_construct_tENS_5tupleIJRKS7_EEENSN_IJEEEEEENS_4pairINS_15__hash_iteratorIPNS_11__hash_nodeIS8_PvEEEEbEERKT_DpOT0_
00000000000ed938 W _ZNSt6__ndk112__hash_tableINS_17__hash_value_typeINS_12basic_stringIcNS_11char_traitsIcEENS_9allocatorIcEEEEjEENS_22__unordered_map_hasherIS7_S8_NS_4hashIS7_EELb1EEENS_21__unordered_map_equalIS7_S8_NS_8equal_toIS7_EELb1EEENS5_IS8_EEE4findIS7_EENS_15__hash_iteratorIPNS_11__hash_nodeIS8_PvEEEERKT_
00000000000ef71c W _ZNSt6__ndk112__hash_tableINS_17__hash_value_typeINS_12basic_stringIcNS_11char_traitsIcEENS_9allocatorIcEEEEjEENS_22__unordered_map_hasherIS7_S8_NS_4hashIS7_EELb1EEENS_21__unordered_map_equalIS7_S8_NS_8equal_toIS7_EELb1EEENS5_IS8_EEE5clearEv
00000000000ee774 W _ZNSt6__ndk112__hash_tableINS_17__hash_value_typeINS_12basic_stringIcNS_11char_traitsIcEENS_9allocatorIcEEEEjEENS_22__unordered_map_hasherIS7_S8_NS_4hashIS7_EELb1EEENS_21__unordered_map_equalIS7_S8_NS_8equal_toIS7_EELb1EEENS5_IS8_EEE6rehashEm
00000000000ef09c W _ZNSt6__ndk112__hash_tableINS_17__hash_value_typeINS_12basic_stringIcNS_11char_traitsIcEENS_9allocatorIcEEEEjEENS_22__unordered_map_hasherIS7_S8_NS_4hashIS7_EELb1EEENS_21__unordered_map_equalIS7_S8_NS_8equal_toIS7_EELb1EEENS5_IS8_EEE8__rehashEm
00000000000ef878 W _ZNSt6__ndk112__hash_tableINS_17__hash_value_typeINS_12basic_stringIcNS_11char_traitsIcEENS_9allocatorIcEEEEjEENS_22__unordered_map_hasherIS7_S8_NS_4hashIS7_EELb1EEENS_21__unordered_map_equalIS7_S8_NS_8equal_toIS7_EELb1EEENS5_IS8_EEED2Ev
00000000001151c8 W _ZNSt6__ndk112__hash_tableINS_17__hash_value_typeINS_12basic_stringIcNS_11char_traitsIcEENS_9allocatorIcEEEEmEENS_22__unordered_map_hasherIS7_S8_NS_4hashIS7_EELb1EEENS_21__unordered_map_equalIS7_S8_NS_8equal_toIS7_EELb1EEENS5_IS8_EEE17__deallocate_nodeEPNS_16__hash_node_baseIPNS_11__hash_nodeIS8_PvEEEE
0000000000113f7c W _ZNSt6__ndk112__hash_tableINS_17__hash_value_typeINS_12basic_stringIcNS_11char_traitsIcEENS_9allocatorIcEEEEmEENS_22__unordered_map_hasherIS7_S8_NS_4hashIS7_EELb1EEENS_21__unordered_map_equalIS7_S8_NS_8equal_toIS7_EELb1EEENS5_IS8_EEE21__construct_node_hashIRKNS_21piecewise_construct_tEJNS_5tupleIJRKS7_EEENSN_IJEEEEEENS_10unique_ptrINS_11__hash_nodeIS8_PvEENS_22__hash_node_destructorINS5_ISV_EEEEEEmOT_DpOT0_
0000000000113a84 W _ZNSt6__ndk112__hash_tableINS_17__hash_value_typeINS_12basic_stringIcNS_11char_traitsIcEENS_9allocatorIcEEEEmEENS_22__unordered_map_hasherIS7_S8_NS_4hashIS7_EELb1EEENS_21__unordered_map_equalIS7_S8_NS_8equal_toIS7_EELb1EEENS5_IS8_EEE25__emplace_unique_key_argsIS7_JRKNS_21piecewise_construct_tENS_5tupleIJRKS7_EEENSN_IJEEEEEENS_4pairINS_15__hash_iteratorIPNS_11__hash_nodeIS8_PvEEEEbEERKT_DpOT0_
0000000000113324 W _ZNSt6__ndk112__hash_tableINS_17__hash_value_typeINS_12basic_stringIcNS_11char_traitsIcEENS_9allocatorIcEEEEmEENS_22__unordered_map_hasherIS7_S8_NS_4hashIS7_EELb1EEENS_21__unordered_map_equalIS7_S8_NS_8equal_toIS7_EELb1EEENS5_IS8_EEE4findIS7_EENS_15__hash_iteratorIPNS_11__hash_nodeIS8_PvEEEERKT_
0000000000115108 W _ZNSt6__ndk112__hash_tableINS_17__hash_value_typeINS_12basic_stringIcNS_11char_traitsIcEENS_9allocatorIcEEEEmEENS_22__unordered_map_hasherIS7_S8_NS_4hashIS7_EELb1EEENS_21__unordered_map_equalIS7_S8_NS_8equal_toIS7_EELb1EEENS5_IS8_EEE5clearEv
0000000000114160 W _ZNSt6__ndk112__hash_tableINS_17__hash_value_typeINS_12basic_stringIcNS_11char_traitsIcEENS_9allocatorIcEEEEmEENS_22__unordered_map_hasherIS7_S8_NS_4hashIS7_EELb1EEENS_21__unordered_map_equalIS7_S8_NS_8equal_toIS7_EELb1EEENS5_IS8_EEE6rehashEm
0000000000114a88 W _ZNSt6__ndk112__hash_tableINS_17__hash_value_typeINS_12basic_stringIcNS_11char_traitsIcEENS_9allocatorIcEEEEmEENS_22__unordered_map_hasherIS7_S8_NS_4hashIS7_EELb1EEENS_21__unordered_map_equalIS7_S8_NS_8equal_toIS7_EELb1EEENS5_IS8_EEE8__rehashEm
0000000000115264 W _ZNSt6__ndk112__hash_tableINS_17__hash_value_typeINS_12basic_stringIcNS_11char_traitsIcEENS_9allocatorIcEEEEmEENS_22__unordered_map_hasherIS7_S8_NS_4hashIS7_EELb1EEENS_21__unordered_map_equalIS7_S8_NS_8equal_toIS7_EELb1EEENS5_IS8_EEED2Ev
000000000011c414 W _ZNSt6__ndk112__hash_tableINS_17__hash_value_typeINS_17basic_string_viewIcNS_11char_traitsIcEEEENS_12basic_stringIcS4_NS_9allocatorIcEEEEEENS_22__unordered_map_hasherIS5_SA_NS_4hashIS5_EELb1EEENS_21__unordered_map_equalIS5_SA_NS_8equal_toIS5_EELb1EEENS7_ISA_EEE17__deallocate_nodeEPNS_16__hash_node_baseIPNS_11__hash_nodeISA_PvEEEE
00000000000ca8e4 W _ZNSt6__ndk112__hash_tableINS_17__hash_value_typeINS_17basic_string_viewIcNS_11char_traitsIcEEEENS_12basic_stringIcS4_NS_9allocatorIcEEEEEENS_22__unordered_map_hasherIS5_SA_NS_4hashIS5_EELb1EEENS_21__unordered_map_equalIS5_SA_NS_8equal_toIS5_EELb1EEENS7_ISA_EEE21__construct_node_hashIRKNS_21piecewise_construct_tEJNS_5tupleIJOS5_EEENSP_IJEEEEEENS_10unique_ptrINS_11__hash_nodeISA_PvEENS_22__hash_node_destructorINS7_ISW_EEEEEEmOT_DpOT0_
00000000000ca164 W _ZNSt6__ndk112__hash_tableINS_17__hash_value_typeINS_17basic_string_viewIcNS_11char_traitsIcEEEENS_12basic_stringIcS4_NS_9allocatorIcEEEEEENS_22__unordered_map_hasherIS5_SA_NS_4hashIS5_EELb1EEENS_21__unordered_map_equalIS5_SA_NS_8equal_toIS5_EELb1EEENS7_ISA_EEE25__emplace_unique_key_argsIS5_JRKNS_21piecewise_construct_tENS_5tupleIJOS5_EEENSP_IJEEEEEENS_4pairINS_15__hash_iteratorIPNS_11__hash_nodeISA_PvEEEEbEERKT_DpOT0_
00000000000caadc W _ZNSt6__ndk112__hash_tableINS_17__hash_value_typeINS_17basic_string_viewIcNS_11char_traitsIcEEEENS_12basic_stringIcS4_NS_9allocatorIcEEEEEENS_22__unordered_map_hasherIS5_SA_NS_4hashIS5_EELb1EEENS_21__unordered_map_equalIS5_SA_NS_8equal_toIS5_EELb1EEENS7_ISA_EEE6rehashEm
00000000000cba3c W _ZNSt6__ndk112__hash_tableINS_17__hash_value_typeINS_17basic_string_viewIcNS_11char_traitsIcEEEENS_12basic_stringIcS4_NS_9allocatorIcEEEEEENS_22__unordered_map_hasherIS5_SA_NS_4hashIS5_EELb1EEENS_21__unordered_map_equalIS5_SA_NS_8equal_toIS5_EELb1EEENS7_ISA_EEE8__rehashEm
000000000011c3d0 W _ZNSt6__ndk112__hash_tableINS_17__hash_value_typeINS_17basic_string_viewIcNS_11char_traitsIcEEEENS_12basic_stringIcS4_NS_9allocatorIcEEEEEENS_22__unordered_map_hasherIS5_SA_NS_4hashIS5_EELb1EEENS_21__unordered_map_equalIS5_SA_NS_8equal_toIS5_EELb1EEENS7_ISA_EEED2Ev
000000000011cad4 T _ZNSt6__ndk112__next_primeEm
00000000000e523c W _ZNSt6__ndk112__rotate_gcdINS_11__wrap_iterIP10Elf32_PhdrEEEET_S5_S5_S5_
00000000000e8c74 W _ZNSt6__ndk112__rotate_gcdINS_11__wrap_iterIP10Elf32_ShdrEEEET_S5_S5_S5_
000000000010c50c W _ZNSt6__ndk112__rotate_gcdINS_11__wrap_iterIP10Elf64_PhdrEEEET_S5_S5_S5_
0000000000110010 W _ZNSt6__ndk112__rotate_gcdINS_11__wrap_iterIP10Elf64_ShdrEEEET_S5_S5_S5_
00000000000c4f5c W _ZNSt6__ndk112__tuple_implINS_15__tuple_indicesIJLm0EEEEJONS_12basic_stringIcNS_11char_traitsIcEENS_9allocatorIcEEEEEEC2IJLm0EEJS9_EJEJEJS8_EEENS1_IJXspT_EEEENS_13__tuple_typesIJDpT0_EEENS1_IJXspT1_EEEENSD_IJDpT2_EEEDpOT3_
00000000000cc37c W _ZNSt6__ndk112__tuple_implINS_15__tuple_indicesIJLm0EEEEJONS_17basic_string_viewIcNS_11char_traitsIcEEEEEEC2IJLm0EEJS7_EJEJEJS6_EEENS1_IJXspT_EEEENS_13__tuple_typesIJDpT0_EEENS1_IJXspT1_EEEENSB_IJDpT2_EEEDpOT3_
00000000000d7bbc W _ZNSt6__ndk112__tuple_implINS_15__tuple_indicesIJLm0EEEEJRKNS_12basic_stringIcNS_11char_traitsIcEENS_9allocatorIcEEEEEEC2IJLm0EEJSA_EJEJEJSA_EEENS1_IJXspT_EEEENS_13__tuple_typesIJDpT0_EEENS1_IJXspT1_EEEENSE_IJDpT2_EEEDpOT3_
00000000000bef80 W _ZNSt6__ndk112__tuple_implINS_15__tuple_indicesIJLm0EEEEJRNS_9allocatorINS_6vectorIhNS3_IhEEEEEEEEC2IJLm0EEJS8_EJEJEJS8_EEENS1_IJXspT_EEEENS_13__tuple_typesIJDpT0_EEENS1_IJXspT1_EEEENSC_IJDpT2_EEEDpOT3_
00000000000bf04c W _ZNSt6__ndk112__tuple_implINS_15__tuple_indicesIJLm0EEEEJRmEEC2IJLm0EEJS3_EJEJEJS3_EEENS1_IJXspT_EEEENS_13__tuple_typesIJDpT0_EEENS1_IJXspT1_EEEENS7_IJDpT2_EEEDpOT3_
00000000000c4fb4 W _ZNSt6__ndk112__tuple_leafILm0EONS_12basic_stringIcNS_11char_traitsIcEENS_9allocatorIcEEEELb0EEC2IS6_vEEOT_
00000000000cc3d4 W _ZNSt6__ndk112__tuple_leafILm0EONS_17basic_string_viewIcNS_11char_traitsIcEEEELb0EEC2IS4_vEEOT_
00000000000d7c14 W _ZNSt6__ndk112__tuple_leafILm0ERKNS_12basic_stringIcNS_11char_traitsIcEENS_9allocatorIcEEEELb0EEC2IS8_vEEOT_
00000000000befd8 W _ZNSt6__ndk112__tuple_leafILm0ERNS_9allocatorINS_6vectorIhNS1_IhEEEEEELb0EEC2IS6_vEEOT_
00000000000bf0a4 W _ZNSt6__ndk112__tuple_leafILm0ERmLb0EEC2IS1_vEEOT_
00000000001574e4 T _ZNSt6__ndk112bad_weak_ptrD0Ev
00000000001574e0 T _ZNSt6__ndk112bad_weak_ptrD1Ev
00000000001574e0 T _ZNSt6__ndk112bad_weak_ptrD2Ev
00000000000bd75c W _ZNSt6__ndk112basic_stringIcNS_11char_traitsIcEENS_9allocatorIcEEE10__align_itILm16EEEmm
0000000000158888 W _ZNSt6__ndk112basic_stringIcNS_11char_traitsIcEENS_9allocatorIcEEE21__grow_by_and_replaceEmmmmmmPKc
0000000000156b18 W _ZNSt6__ndk112basic_stringIcNS_11char_traitsIcEENS_9allocatorIcEEE23__append_forward_unsafeIPcEERS5_T_S9_
000000000015a134 W _ZNSt6__ndk112basic_stringIcNS_11char_traitsIcEENS_9allocatorIcEEE2atEm
0000000000083eb0 V _ZNSt6__ndk112basic_stringIcNS_11char_traitsIcEENS_9allocatorIcEEE4nposE
0000000000159d88 W _ZNSt6__ndk112basic_stringIcNS_11char_traitsIcEENS_9allocatorIcEEE5eraseEmm
000000000015900c W _ZNSt6__ndk112basic_stringIcNS_11char_traitsIcEENS_9allocatorIcEEE6__initEPKcm
0000000000158a7c W _ZNSt6__ndk112basic_stringIcNS_11char_traitsIcEENS_9allocatorIcEEE6__initEPKcmm
000000000015993c W _ZNSt6__ndk112basic_stringIcNS_11char_traitsIcEENS_9allocatorIcEEE6__initEmc
00000000000bd2fc W _ZNSt6__ndk112basic_stringIcNS_11char_traitsIcEENS_9allocatorIcEEE6__initIPcEENS_9_MetaBaseIXsr27__is_cpp17_forward_iteratorIT_EE5valueEE13_EnableIfImplIvEES9_S9_
000000000015a4b4 W _ZNSt6__ndk112basic_stringIcNS_11char_traitsIcEENS_9allocatorIcEEE6appendEPKc
00000000001595cc W _ZNSt6__ndk112basic_stringIcNS_11char_traitsIcEENS_9allocatorIcEEE6appendEPKcm
0000000000159e5c W _ZNSt6__ndk112basic_stringIcNS_11char_traitsIcEENS_9allocatorIcEEE6appendERKS5_mm
0000000000159b30 W _ZNSt6__ndk112basic_stringIcNS_11char_traitsIcEENS_9allocatorIcEEE6appendEmc
000000000015a174 W _ZNSt6__ndk112basic_stringIcNS_11char_traitsIcEENS_9allocatorIcEEE6assignEPKc
00000000001593b4 W _ZNSt6__ndk112basic_stringIcNS_11char_traitsIcEENS_9allocatorIcEEE6assignEPKcm
0000000000159690 W _ZNSt6__ndk112basic_stringIcNS_11char_traitsIcEENS_9allocatorIcEEE6assignERKS5_mm
0000000000159c48 W _ZNSt6__ndk112basic_stringIcNS_11char_traitsIcEENS_9allocatorIcEEE6assignEmc
000000000015a5dc W _ZNSt6__ndk112basic_stringIcNS_11char_traitsIcEENS_9allocatorIcEEE6insertENS_11__wrap_iterIPKcEEc
00000000001599c4 W _ZNSt6__ndk112basic_stringIcNS_11char_traitsIcEENS_9allocatorIcEEE6insertEmPKc
00000000001590d4 W _ZNSt6__ndk112basic_stringIcNS_11char_traitsIcEENS_9allocatorIcEEE6insertEmPKcm
000000000015a724 W _ZNSt6__ndk112basic_stringIcNS_11char_traitsIcEENS_9allocatorIcEEE6insertEmRKS5_mm
0000000000158db8 W _ZNSt6__ndk112basic_stringIcNS_11char_traitsIcEENS_9allocatorIcEEE6insertEmmc
000000000015a6c0 W _ZNSt6__ndk112basic_stringIcNS_11char_traitsIcEENS_9allocatorIcEEE6resizeEmc
0000000000158ba0 W _ZNSt6__ndk112basic_stringIcNS_11char_traitsIcEENS_9allocatorIcEEE7replaceEmmPKc
00000000001586ac W _ZNSt6__ndk112basic_stringIcNS_11char_traitsIcEENS_9allocatorIcEEE7replaceEmmPKcm
000000000015a58c W _ZNSt6__ndk112basic_stringIcNS_11char_traitsIcEENS_9allocatorIcEEE7replaceEmmRKS5_mm
000000000015926c W _ZNSt6__ndk112basic_stringIcNS_11char_traitsIcEENS_9allocatorIcEEE7replaceEmmmc
0000000000159474 W _ZNSt6__ndk112basic_stringIcNS_11char_traitsIcEENS_9allocatorIcEEE7reserveEm
0000000000158ec8 W _ZNSt6__ndk112basic_stringIcNS_11char_traitsIcEENS_9allocatorIcEEE9__grow_byEmmmmmm
0000000000159a84 W _ZNSt6__ndk112basic_stringIcNS_11char_traitsIcEENS_9allocatorIcEEE9push_backEc
0000000000158b08 W _ZNSt6__ndk112basic_stringIcNS_11char_traitsIcEENS_9allocatorIcEEEC1ERKS5_
0000000000158bec W _ZNSt6__ndk112basic_stringIcNS_11char_traitsIcEENS_9allocatorIcEEEC1ERKS5_RKS4_
0000000000159804 W _ZNSt6__ndk112basic_stringIcNS_11char_traitsIcEENS_9allocatorIcEEEC1ERKS5_mmRKS4_
0000000000158b08 W _ZNSt6__ndk112basic_stringIcNS_11char_traitsIcEENS_9allocatorIcEEEC2ERKS5_
0000000000158bec W _ZNSt6__ndk112basic_stringIcNS_11char_traitsIcEENS_9allocatorIcEEEC2ERKS5_RKS4_
0000000000159804 W _ZNSt6__ndk112basic_stringIcNS_11char_traitsIcEENS_9allocatorIcEEEC2ERKS5_mmRKS4_
00000000000b9654 W _ZNSt6__ndk112basic_stringIcNS_11char_traitsIcEENS_9allocatorIcEEEC2IDnEEPKc
00000000000c0d68 W _ZNSt6__ndk112basic_stringIcNS_11char_traitsIcEENS_9allocatorIcEEEC2INS_17basic_string_viewIcS2_EEvEERKT_
00000000000bd14c W _ZNSt6__ndk112basic_stringIcNS_11char_traitsIcEENS_9allocatorIcEEEC2IPcvEET_S8_RKS4_
0000000000158d10 W _ZNSt6__ndk112basic_stringIcNS_11char_traitsIcEENS_9allocatorIcEEED1Ev
0000000000158d10 W _ZNSt6__ndk112basic_stringIcNS_11char_traitsIcEENS_9allocatorIcEEED2Ev
000000000015a3b4 W _ZNSt6__ndk112basic_stringIcNS_11char_traitsIcEENS_9allocatorIcEEEaSERKS5_
0000000000158fdc W _ZNSt6__ndk112basic_stringIcNS_11char_traitsIcEENS_9allocatorIcEEEaSEc
000000000015a964 W _ZNSt6__ndk112basic_stringIwNS_11char_traitsIwEENS_9allocatorIwEEE21__grow_by_and_replaceEmmmmmmPKw
0000000000156db0 W _ZNSt6__ndk112basic_stringIwNS_11char_traitsIwEENS_9allocatorIwEEE23__append_forward_unsafeIPwEERS5_T_S9_
000000000015ac58 W _ZNSt6__ndk112basic_stringIwNS_11char_traitsIwEENS_9allocatorIwEEE25__init_copy_ctor_externalEPKwm
000000000015c134 W _ZNSt6__ndk112basic_stringIwNS_11char_traitsIwEENS_9allocatorIwEEE2atEm
0000000000083eb8 V _ZNSt6__ndk112basic_stringIwNS_11char_traitsIwEENS_9allocatorIwEEE4nposE
000000000015be34 W _ZNSt6__ndk112basic_stringIwNS_11char_traitsIwEENS_9allocatorIwEEE5eraseEmm
000000000015b124 W _ZNSt6__ndk112basic_stringIwNS_11char_traitsIwEENS_9allocatorIwEEE6__initEPKwm
000000000015ab88 W _ZNSt6__ndk112basic_stringIwNS_11char_traitsIwEENS_9allocatorIwEEE6__initEPKwmm
000000000015ba38 W _ZNSt6__ndk112basic_stringIwNS_11char_traitsIwEENS_9allocatorIwEEE6__initEmw
000000000015c438 W _ZNSt6__ndk112basic_stringIwNS_11char_traitsIwEENS_9allocatorIwEEE6appendEPKw
000000000015b750 W _ZNSt6__ndk112basic_stringIwNS_11char_traitsIwEENS_9allocatorIwEEE6appendEPKwm
000000000015bf0c W _ZNSt6__ndk112basic_stringIwNS_11char_traitsIwEENS_9allocatorIwEEE6appendERKS5_mm
000000000015bc48 W _ZNSt6__ndk112basic_stringIwNS_11char_traitsIwEENS_9allocatorIwEEE6appendEmw
000000000015c174 W _ZNSt6__ndk112basic_stringIwNS_11char_traitsIwEENS_9allocatorIwEEE6assignEPKw
000000000015b504 W _ZNSt6__ndk112basic_stringIwNS_11char_traitsIwEENS_9allocatorIwEEE6assignEPKwm
000000000015b818 W _ZNSt6__ndk112basic_stringIwNS_11char_traitsIwEENS_9allocatorIwEEE6assignERKS5_mm
000000000015bd6c W _ZNSt6__ndk112basic_stringIwNS_11char_traitsIwEENS_9allocatorIwEEE6assignEmw
000000000015c4bc W _ZNSt6__ndk112basic_stringIwNS_11char_traitsIwEENS_9allocatorIwEEE6insertENS_11__wrap_iterIPKwEEw
000000000015badc W _ZNSt6__ndk112basic_stringIwNS_11char_traitsIwEENS_9allocatorIwEEE6insertEmPKw
000000000015b208 W _ZNSt6__ndk112basic_stringIwNS_11char_traitsIwEENS_9allocatorIwEEE6insertEmPKwm
000000000015c610 W _ZNSt6__ndk112basic_stringIwNS_11char_traitsIwEENS_9allocatorIwEEE6insertEmRKS5_mm
000000000015aeac W _ZNSt6__ndk112basic_stringIwNS_11char_traitsIwEENS_9allocatorIwEEE6insertEmmw
000000000015c5ac W _ZNSt6__ndk112basic_stringIwNS_11char_traitsIwEENS_9allocatorIwEEE6resizeEmw
000000000015acf4 W _ZNSt6__ndk112basic_stringIwNS_11char_traitsIwEENS_9allocatorIwEEE7replaceEmmPKw
000000000015a774 W _ZNSt6__ndk112basic_stringIwNS_11char_traitsIwEENS_9allocatorIwEEE7replaceEmmPKwm
000000000015c46c W _ZNSt6__ndk112basic_stringIwNS_11char_traitsIwEENS_9allocatorIwEEE7replaceEmmRKS5_mm
000000000015b3b4 W _ZNSt6__ndk112basic_stringIwNS_11char_traitsIwEENS_9allocatorIwEEE7replaceEmmmw
000000000015b5c8 W _ZNSt6__ndk112basic_stringIwNS_11char_traitsIwEENS_9allocatorIwEEE7reserveEm
000000000015afc4 W _ZNSt6__ndk112basic_stringIwNS_11char_traitsIwEENS_9allocatorIwEEE9__grow_byEmmmmmm
000000000015bba0 W _ZNSt6__ndk112basic_stringIwNS_11char_traitsIwEENS_9allocatorIwEEE9push_backEw
000000000015ac30 W _ZNSt6__ndk112basic_stringIwNS_11char_traitsIwEENS_9allocatorIwEEEC1ERKS5_
000000000015ad40 W _ZNSt6__ndk112basic_stringIwNS_11char_traitsIwEENS_9allocatorIwEEEC1ERKS5_RKS4_
000000000015b8e4 W _ZNSt6__ndk112basic_stringIwNS_11char_traitsIwEENS_9allocatorIwEEEC1ERKS5_mmRKS4_
000000000015ac30 W _ZNSt6__ndk112basic_stringIwNS_11char_traitsIwEENS_9allocatorIwEEEC2ERKS5_
000000000015ad40 W _ZNSt6__ndk112basic_stringIwNS_11char_traitsIwEENS_9allocatorIwEEEC2ERKS5_RKS4_
000000000015b8e4 W _ZNSt6__ndk112basic_stringIwNS_11char_traitsIwEENS_9allocatorIwEEEC2ERKS5_mmRKS4_
000000000014d204 W _ZNSt6__ndk112basic_stringIwNS_11char_traitsIwEENS_9allocatorIwEEEC2IDnEEPKw
000000000015adfc W _ZNSt6__ndk112basic_stringIwNS_11char_traitsIwEENS_9allocatorIwEEED1Ev
000000000015adfc W _ZNSt6__ndk112basic_stringIwNS_11char_traitsIwEENS_9allocatorIwEEED2Ev
000000000015c32c W _ZNSt6__ndk112basic_stringIwNS_11char_traitsIwEENS_9allocatorIwEEEaSERKS5_
000000000015b0f4 W _ZNSt6__ndk112basic_stringIwNS_11char_traitsIwEENS_9allocatorIwEEEaSEw
0000000000148468 T _ZNSt6__ndk112ctype_bynameIcEC1EPKcm
0000000000148608 T _ZNSt6__ndk112ctype_bynameIcEC1ERKNS_12basic_stringIcNS_11char_traitsIcEENS_9allocatorIcEEEEm
0000000000148468 T _ZNSt6__ndk112ctype_bynameIcEC2EPKcm
0000000000148608 T _ZNSt6__ndk112ctype_bynameIcEC2ERKNS_12basic_stringIcNS_11char_traitsIcEENS_9allocatorIcEEEEm
0000000000148710 T _ZNSt6__ndk112ctype_bynameIcED0Ev
0000000000151360 T _ZNSt6__ndk112ctype_bynameIcED1Ev
0000000000151360 T _ZNSt6__ndk112ctype_bynameIcED2Ev
0000000000148870 T _ZNSt6__ndk112ctype_bynameIwEC1EPKcm
00000000001489dc T _ZNSt6__ndk112ctype_bynameIwEC1ERKNS_12basic_stringIcNS_11char_traitsIcEENS_9allocatorIcEEEEm
0000000000148870 T _ZNSt6__ndk112ctype_bynameIwEC2EPKcm
00000000001489dc T _ZNSt6__ndk112ctype_bynameIwEC2ERKNS_12basic_stringIcNS_11char_traitsIcEENS_9allocatorIcEEEEm
0000000000148ab0 T _ZNSt6__ndk112ctype_bynameIwED0Ev
0000000000151a7c T _ZNSt6__ndk112ctype_bynameIwED1Ev
0000000000151a7c T _ZNSt6__ndk112ctype_bynameIwED2Ev
0000000000161a5c T _ZNSt6__ndk112future_errorC1ENS_10error_codeE
0000000000161a5c T _ZNSt6__ndk112future_errorC2ENS_10error_codeE
0000000000161b04 T _ZNSt6__ndk112future_errorD0Ev
0000000000161b00 T _ZNSt6__ndk112future_errorD1Ev
0000000000161b00 T _ZNSt6__ndk112future_errorD2Ev
0000000000160990 T _ZNSt6__ndk112system_error6__initERKNS_10error_codeENS_12basic_stringIcNS_11char_traitsIcEENS_9allocatorIcEEEE
0000000000160cfc T _ZNSt6__ndk112system_errorC1ENS_10error_codeE
0000000000160b90 T _ZNSt6__ndk112system_errorC1ENS_10error_codeEPKc
0000000000160a9c T _ZNSt6__ndk112system_errorC1ENS_10error_codeERKNS_12basic_stringIcNS_11char_traitsIcEENS_9allocatorIcEEEE
0000000000161070 T _ZNSt6__ndk112system_errorC1EiRKNS_14error_categoryE
0000000000160ef0 T _ZNSt6__ndk112system_errorC1EiRKNS_14error_categoryEPKc
0000000000160de8 T _ZNSt6__ndk112system_errorC1EiRKNS_14error_categoryERKNS_12basic_stringIcNS_11char_traitsIcEENS_9allocatorIcEEEE
0000000000160cfc T _ZNSt6__ndk112system_errorC2ENS_10error_codeE
0000000000160b90 T _ZNSt6__ndk112system_errorC2ENS_10error_codeEPKc
0000000000160a9c T _ZNSt6__ndk112system_errorC2ENS_10error_codeERKNS_12basic_stringIcNS_11char_traitsIcEENS_9allocatorIcEEEE
0000000000161070 T _ZNSt6__ndk112system_errorC2EiRKNS_14error_categoryE
0000000000160ef0 T _ZNSt6__ndk112system_errorC2EiRKNS_14error_categoryEPKc
0000000000160de8 T _ZNSt6__ndk112system_errorC2EiRKNS_14error_categoryERKNS_12basic_stringIcNS_11char_traitsIcEENS_9allocatorIcEEEE
0000000000161174 T _ZNSt6__ndk112system_errorD0Ev
0000000000161170 T _ZNSt6__ndk112system_errorD1Ev
0000000000161170 T _ZNSt6__ndk112system_errorD2Ev
00000000000eb2d8 W _ZNSt6__ndk113__fill_n_trueINS_6vectorIbNS_9allocatorIbEEEEEEvNS_14__bit_iteratorIT_Lb0EXLi0EEEENS6_9size_typeE
00000000000e42cc W _ZNSt6__ndk113__lower_boundIRN7ElfFileI10Elf32_Ehdr10Elf32_Phdr10Elf32_Shdrjj9Elf32_Dyn9Elf32_Symt12Elf32_Verdef13Elf32_Verdaux13Elf32_Verneed13Elf32_Vernaux9Elf32_Rel10Elf32_RelaLj32EE8CompPhdrENS_11__wrap_iterIPS3_EES3_EET0_SJ_SJ_RKT1_T_
00000000000e7b98 W _ZNSt6__ndk113__lower_boundIRN7ElfFileI10Elf32_Ehdr10Elf32_Phdr10Elf32_Shdrjj9Elf32_Dyn9Elf32_Symt12Elf32_Verdef13Elf32_Verdaux13Elf32_Verneed13Elf32_Vernaux9Elf32_Rel10Elf32_RelaLj32EE8CompShdrENS_11__wrap_iterIPS4_EES4_EET0_SJ_SJ_RKT1_T_
000000000010b51c W _ZNSt6__ndk113__lower_boundIRN7ElfFileI10Elf64_Ehdr10Elf64_Phdr10Elf64_Shdrmm9Elf64_Dyn9Elf64_Symt12Elf64_Verdef13Elf64_Verdaux13Elf64_Verneed13Elf64_Vernaux9Elf64_Rel10Elf64_RelaLj64EE8CompPhdrENS_11__wrap_iterIPS3_EES3_EET0_SJ_SJ_RKT1_T_
000000000010ef00 W _ZNSt6__ndk113__lower_boundIRN7ElfFileI10Elf64_Ehdr10Elf64_Phdr10Elf64_Shdrmm9Elf64_Dyn9Elf64_Symt12Elf64_Verdef13Elf64_Verdaux13Elf64_Verneed13Elf64_Vernaux9Elf64_Rel10Elf64_RelaLj64EE8CompShdrENS_11__wrap_iterIPS4_EES4_EET0_SJ_SJ_RKT1_T_
00000000000e5074 W _ZNSt6__ndk113__rotate_leftINS_11__wrap_iterIP10Elf32_PhdrEEEET_S5_S5_
00000000000e8a8c W _ZNSt6__ndk113__rotate_leftINS_11__wrap_iterIP10Elf32_ShdrEEEET_S5_S5_
000000000010c304 W _ZNSt6__ndk113__rotate_leftINS_11__wrap_iterIP10Elf64_PhdrEEEET_S5_S5_
000000000010fe08 W _ZNSt6__ndk113__rotate_leftINS_11__wrap_iterIP10Elf64_ShdrEEEET_S5_S5_
00000000000e2334 W _ZNSt6__ndk113__stable_sortIRN7ElfFileI10Elf32_Ehdr10Elf32_Phdr10Elf32_Shdrjj9Elf32_Dyn9Elf32_Symt12Elf32_Verdef13Elf32_Verdaux13Elf32_Verneed13Elf32_Vernaux9Elf32_Rel10Elf32_RelaLj32EE8CompPhdrENS_11__wrap_iterIPS3_EEEEvT0_SJ_T_NS_15iterator_traitsISJ_E15difference_typeEPNSM_10value_typeEl
00000000000e5c84 W _ZNSt6__ndk113__stable_sortIRN7ElfFileI10Elf32_Ehdr10Elf32_Phdr10Elf32_Shdrjj9Elf32_Dyn9Elf32_Symt12Elf32_Verdef13Elf32_Verdaux13Elf32_Verneed13Elf32_Vernaux9Elf32_Rel10Elf32_RelaLj32EE8CompShdrENS_11__wrap_iterIPS4_EEEEvT0_SJ_T_NS_15iterator_traitsISJ_E15difference_typeEPNSM_10value_typeEl
0000000000109530 W _ZNSt6__ndk113__stable_sortIRN7ElfFileI10Elf64_Ehdr10Elf64_Phdr10Elf64_Shdrmm9Elf64_Dyn9Elf64_Symt12Elf64_Verdef13Elf64_Verdaux13Elf64_Verneed13Elf64_Vernaux9Elf64_Rel10Elf64_RelaLj64EE8CompPhdrENS_11__wrap_iterIPS3_EEEEvT0_SJ_T_NS_15iterator_traitsISJ_E15difference_typeEPNSM_10value_typeEl
000000000010cf38 W _ZNSt6__ndk113__stable_sortIRN7ElfFileI10Elf64_Ehdr10Elf64_Phdr10Elf64_Shdrmm9Elf64_Dyn9Elf64_Symt12Elf64_Verdef13Elf64_Verdaux13Elf64_Verneed13Elf64_Vernaux9Elf64_Rel10Elf64_RelaLj64EE8CompShdrENS_11__wrap_iterIPS4_EEEEvT0_SJ_T_NS_15iterator_traitsISJ_E15difference_typeEPNSM_10value_typeEl
00000000000e419c W _ZNSt6__ndk113__upper_boundIRN7ElfFileI10Elf32_Ehdr10Elf32_Phdr10Elf32_Shdrjj9Elf32_Dyn9Elf32_Symt12Elf32_Verdef13Elf32_Verdaux13Elf32_Verneed13Elf32_Vernaux9Elf32_Rel10Elf32_RelaLj32EE8CompPhdrENS_11__wrap_iterIPS3_EES3_EET0_SJ_SJ_RKT1_T_
00000000000e79f4 W _ZNSt6__ndk113__upper_boundIRN7ElfFileI10Elf32_Ehdr10Elf32_Phdr10Elf32_Shdrjj9Elf32_Dyn9Elf32_Symt12Elf32_Verdef13Elf32_Verdaux13Elf32_Verneed13Elf32_Vernaux9Elf32_Rel10Elf32_RelaLj32EE8CompShdrENS_11__wrap_iterIPS4_EES4_EET0_SJ_SJ_RKT1_T_
000000000010b3ec W _ZNSt6__ndk113__upper_boundIRN7ElfFileI10Elf64_Ehdr10Elf64_Phdr10Elf64_Shdrmm9Elf64_Dyn9Elf64_Symt12Elf64_Verdef13Elf64_Verdaux13Elf64_Verneed13Elf64_Vernaux9Elf64_Rel10Elf64_RelaLj64EE8CompPhdrENS_11__wrap_iterIPS3_EES3_EET0_SJ_SJ_RKT1_T_
000000000010ed5c W _ZNSt6__ndk113__upper_boundIRN7ElfFileI10Elf64_Ehdr10Elf64_Phdr10Elf64_Shdrmm9Elf64_Dyn9Elf64_Symt12Elf64_Verdef13Elf64_Verdaux13Elf64_Verneed13Elf64_Vernaux9Elf64_Rel10Elf64_RelaLj64EE8CompShdrENS_11__wrap_iterIPS4_EES4_EET0_SJ_SJ_RKT1_T_
00000000000dfdb8 W _ZNSt6__ndk113__vector_baseI10Elf32_PhdrNS_9allocatorIS1_EEED2Ev
00000000000fbf64 W _ZNSt6__ndk113__vector_baseI10Elf32_ShdrNS_9allocatorIS1_EEED2Ev
0000000000108644 W _ZNSt6__ndk113__vector_baseI10Elf64_PhdrNS_9allocatorIS1_EEED2Ev
000000000011b6e4 W _ZNSt6__ndk113__vector_baseI10Elf64_ShdrNS_9allocatorIS1_EEED2Ev
00000000000f8790 W _ZNSt6__ndk113__vector_baseI9Elf32_SymNS_9allocatorIS1_EEED2Ev
000000000011941c W _ZNSt6__ndk113__vector_baseI9Elf64_SymNS_9allocatorIS1_EEED2Ev
000000000011b92c W _ZNSt6__ndk113__vector_baseINS_12basic_stringIcNS_11char_traitsIcEENS_9allocatorIcEEEENS4_IS6_EEED2Ev
00000000000fa294 W _ZNSt6__ndk113__vector_baseIZN7ElfFileI10Elf32_Ehdr10Elf32_Phdr10Elf32_Shdrjj9Elf32_Dyn9Elf32_Symt12Elf32_Verdef13Elf32_Verdaux13Elf32_Verneed13Elf32_Vernaux9Elf32_Rel10Elf32_RelaLj32EE19rebuildGnuHashTableE4spanIcESE_IS6_EE5EntryNS_9allocatorISH_EEED2Ev
000000000011a23c W _ZNSt6__ndk113__vector_baseIZN7ElfFileI10Elf64_Ehdr10Elf64_Phdr10Elf64_Shdrmm9Elf64_Dyn9Elf64_Symt12Elf64_Verdef13Elf64_Verdaux13Elf64_Verneed13Elf64_Vernaux9Elf64_Rel10Elf64_RelaLj64EE19rebuildGnuHashTableE4spanIcESE_IS6_EE5EntryNS_9allocatorISH_EEED2Ev
00000000000fa5b8 W _ZNSt6__ndk113__vector_baseIcNS_9allocatorIcEEED2Ev
00000000000bf4e0 W _ZNSt6__ndk113__vector_baseIhNS_9allocatorIhEEED2Ev
00000000000f7c58 W _ZNSt6__ndk113__vector_baseIjNS_9allocatorIjEEED2Ev
00000000000f93e0 W _ZNSt6__ndk113__vector_baseItNS_9allocatorItEEED2Ev
0000000000083e4f R _ZNSt6__ndk113allocator_argE
00000000000c702c W _ZNSt6__ndk113basic_filebufIcNS_11char_traitsIcEEE11__read_modeEv
00000000000c7190 W _ZNSt6__ndk113basic_filebufIcNS_11char_traitsIcEEE12__write_modeEv
00000000000c5278 W _ZNSt6__ndk113basic_filebufIcNS_11char_traitsIcEEE4openEPKcj
00000000000c5c9c W _ZNSt6__ndk113basic_filebufIcNS_11char_traitsIcEEE4syncEv
00000000000c73cc W _ZNSt6__ndk113basic_filebufIcNS_11char_traitsIcEEE5closeEv
00000000000c5588 W _ZNSt6__ndk113basic_filebufIcNS_11char_traitsIcEEE5imbueERKNS_6localeE
00000000000c572c W _ZNSt6__ndk113basic_filebufIcNS_11char_traitsIcEEE6setbufEPcl
00000000000c596c W _ZNSt6__ndk113basic_filebufIcNS_11char_traitsIcEEE7seekoffExNS_8ios_base7seekdirEj
00000000000c5b78 W _ZNSt6__ndk113basic_filebufIcNS_11char_traitsIcEEE7seekposENS_4fposI9mbstate_tEEj
00000000000c6850 W _ZNSt6__ndk113basic_filebufIcNS_11char_traitsIcEEE8overflowEi
00000000000c673c W _ZNSt6__ndk113basic_filebufIcNS_11char_traitsIcEEE9pbackfailEi
00000000000c60f0 W _ZNSt6__ndk113basic_filebufIcNS_11char_traitsIcEEE9underflowEv
00000000000c50d8 W _ZNSt6__ndk113basic_filebufIcNS_11char_traitsIcEEEC2Ev
00000000000c5554 W _ZNSt6__ndk113basic_filebufIcNS_11char_traitsIcEEED0Ev
00000000000c533c W _ZNSt6__ndk113basic_filebufIcNS_11char_traitsIcEEED2Ev
00000000001200b8 W _ZNSt6__ndk113basic_istreamIcNS_11char_traitsIcEEE3getEPcl
0000000000120180 W _ZNSt6__ndk113basic_istreamIcNS_11char_traitsIcEEE3getEPclc
00000000001203b8 W _ZNSt6__ndk113basic_istreamIcNS_11char_traitsIcEEE3getERNS_15basic_streambufIcS2_EE
0000000000120470 W _ZNSt6__ndk113basic_istreamIcNS_11char_traitsIcEEE3getERNS_15basic_streambufIcS2_EEc
0000000000120084 W _ZNSt6__ndk113basic_istreamIcNS_11char_traitsIcEEE3getERc
000000000011ff20 W _ZNSt6__ndk113basic_istreamIcNS_11char_traitsIcEEE3getEv
0000000000120b38 W _ZNSt6__ndk113basic_istreamIcNS_11char_traitsIcEEE4peekEv
0000000000120c84 W _ZNSt6__ndk113basic_istreamIcNS_11char_traitsIcEEE4readEPcl
000000000011e570 W _ZNSt6__ndk113basic_istreamIcNS_11char_traitsIcEEE4swapERS3_
00000000001212a0 W _ZNSt6__ndk113basic_istreamIcNS_11char_traitsIcEEE4syncEv
000000000012150c W _ZNSt6__ndk113basic_istreamIcNS_11char_traitsIcEEE5seekgENS_4fposI9mbstate_tEE
0000000000121680 W _ZNSt6__ndk113basic_istreamIcNS_11char_traitsIcEEE5seekgExNS_8ios_base7seekdirE
00000000001213d4 W _ZNSt6__ndk113basic_istreamIcNS_11char_traitsIcEEE5tellgEv
0000000000121114 W _ZNSt6__ndk113basic_istreamIcNS_11char_traitsIcEEE5ungetEv
0000000000120944 W _ZNSt6__ndk113basic_istreamIcNS_11char_traitsIcEEE6ignoreEli
000000000011e5dc W _ZNSt6__ndk113basic_istreamIcNS_11char_traitsIcEEE6sentryC1ERS3_b
000000000011e5dc W _ZNSt6__ndk113basic_istreamIcNS_11char_traitsIcEEE6sentryC2ERS3_b
0000000000120624 W _ZNSt6__ndk113basic_istreamIcNS_11char_traitsIcEEE7getlineEPcl
00000000001206ec W _ZNSt6__ndk113basic_istreamIcNS_11char_traitsIcEEE7getlineEPclc
0000000000120f74 W _ZNSt6__ndk113basic_istreamIcNS_11char_traitsIcEEE7putbackEc
0000000000120dd0 W _ZNSt6__ndk113basic_istreamIcNS_11char_traitsIcEEE8readsomeEPcl
000000000011e474 W _ZNSt6__ndk113basic_istreamIcNS_11char_traitsIcEEEC1EPNS_15basic_streambufIcS2_EE
000000000011e518 W _ZNSt6__ndk113basic_istreamIcNS_11char_traitsIcEEED0Ev
000000000011e4fc W _ZNSt6__ndk113basic_istreamIcNS_11char_traitsIcEEED1Ev
000000000011e4f8 W _ZNSt6__ndk113basic_istreamIcNS_11char_traitsIcEEED2Ev
000000000011e98c W _ZNSt6__ndk113basic_istreamIcNS_11char_traitsIcEEErsEPFRNS_8ios_baseES5_E
000000000011e95c W _ZNSt6__ndk113basic_istreamIcNS_11char_traitsIcEEErsEPFRNS_9basic_iosIcS2_EES6_E
000000000011e958 W _ZNSt6__ndk113basic_istreamIcNS_11char_traitsIcEEErsEPFRS3_S4_E
000000000011e9bc W _ZNSt6__ndk113basic_istreamIcNS_11char_traitsIcEEErsEPNS_15basic_streambufIcS2_EE
000000000011fdac W _ZNSt6__ndk113basic_istreamIcNS_11char_traitsIcEEErsERPv
000000000011ebb8 W _ZNSt6__ndk113basic_istreamIcNS_11char_traitsIcEEErsERb
000000000011fac4 W _ZNSt6__ndk113basic_istreamIcNS_11char_traitsIcEEErsERd
000000000011fc38 W _ZNSt6__ndk113basic_istreamIcNS_11char_traitsIcEEErsERe
000000000011f950 W _ZNSt6__ndk113basic_istreamIcNS_11char_traitsIcEEErsERf
000000000011f054 W _ZNSt6__ndk113basic_istreamIcNS_11char_traitsIcEEErsERi
000000000011f20c W _ZNSt6__ndk113basic_istreamIcNS_11char_traitsIcEEErsERj
000000000011f380 W _ZNSt6__ndk113basic_istreamIcNS_11char_traitsIcEEErsERl
000000000011f4f4 W _ZNSt6__ndk113basic_istreamIcNS_11char_traitsIcEEErsERm
000000000011ed2c W _ZNSt6__ndk113basic_istreamIcNS_11char_traitsIcEEErsERs
000000000011eee0 W _ZNSt6__ndk113basic_istreamIcNS_11char_traitsIcEEErsERt
000000000011f668 W _ZNSt6__ndk113basic_istreamIcNS_11char_traitsIcEEErsERx
000000000011f7dc W _ZNSt6__ndk113basic_istreamIcNS_11char_traitsIcEEErsERy
00000000001234d8 W _ZNSt6__ndk113basic_istreamIwNS_11char_traitsIwEEE3getEPwl
00000000001235a0 W _ZNSt6__ndk113basic_istreamIwNS_11char_traitsIwEEE3getEPwlw
00000000001237d4 W _ZNSt6__ndk113basic_istreamIwNS_11char_traitsIwEEE3getERNS_15basic_streambufIwS2_EE
000000000012388c W _ZNSt6__ndk113basic_istreamIwNS_11char_traitsIwEEE3getERNS_15basic_streambufIwS2_EEw
00000000001234a4 W _ZNSt6__ndk113basic_istreamIwNS_11char_traitsIwEEE3getERw
000000000012333c W _ZNSt6__ndk113basic_istreamIwNS_11char_traitsIwEEE3getEv
0000000000123f40 W _ZNSt6__ndk113basic_istreamIwNS_11char_traitsIwEEE4peekEv
000000000012408c W _ZNSt6__ndk113basic_istreamIwNS_11char_traitsIwEEE4readEPwl
000000000012197c W _ZNSt6__ndk113basic_istreamIwNS_11char_traitsIwEEE4swapERS3_
00000000001246bc W _ZNSt6__ndk113basic_istreamIwNS_11char_traitsIwEEE4syncEv
0000000000124928 W _ZNSt6__ndk113basic_istreamIwNS_11char_traitsIwEEE5seekgENS_4fposI9mbstate_tEE
0000000000124a9c W _ZNSt6__ndk113basic_istreamIwNS_11char_traitsIwEEE5seekgExNS_8ios_base7seekdirE
00000000001247f0 W _ZNSt6__ndk113basic_istreamIwNS_11char_traitsIwEEE5tellgEv
000000000012452c W _ZNSt6__ndk113basic_istreamIwNS_11char_traitsIwEEE5ungetEv
0000000000123d54 W _ZNSt6__ndk113basic_istreamIwNS_11char_traitsIwEEE6ignoreElj
00000000001219e8 W _ZNSt6__ndk113basic_istreamIwNS_11char_traitsIwEEE6sentryC1ERS3_b
00000000001219e8 W _ZNSt6__ndk113basic_istreamIwNS_11char_traitsIwEEE6sentryC2ERS3_b
0000000000123a3c W _ZNSt6__ndk113basic_istreamIwNS_11char_traitsIwEEE7getlineEPwl
0000000000123b04 W _ZNSt6__ndk113basic_istreamIwNS_11char_traitsIwEEE7getlineEPwlw
0000000000124380 W _ZNSt6__ndk113basic_istreamIwNS_11char_traitsIwEEE7putbackEw
00000000001241d8 W _ZNSt6__ndk113basic_istreamIwNS_11char_traitsIwEEE8readsomeEPwl
0000000000121880 W _ZNSt6__ndk113basic_istreamIwNS_11char_traitsIwEEEC1EPNS_15basic_streambufIwS2_EE
00000000001217f4 W _ZNSt6__ndk113basic_istreamIwNS_11char_traitsIwEEEC2EPNS_15basic_streambufIwS2_EE
0000000000121924 W _ZNSt6__ndk113basic_istreamIwNS_11char_traitsIwEEED0Ev
0000000000121908 W _ZNSt6__ndk113basic_istreamIwNS_11char_traitsIwEEED1Ev
0000000000121904 W _ZNSt6__ndk113basic_istreamIwNS_11char_traitsIwEEED2Ev
0000000000121da8 W _ZNSt6__ndk113basic_istreamIwNS_11char_traitsIwEEErsEPFRNS_8ios_baseES5_E
0000000000121d78 W _ZNSt6__ndk113basic_istreamIwNS_11char_traitsIwEEErsEPFRNS_9basic_iosIwS2_EES6_E
0000000000121d74 W _ZNSt6__ndk113basic_istreamIwNS_11char_traitsIwEEErsEPFRS3_S4_E
0000000000121dd8 W _ZNSt6__ndk113basic_istreamIwNS_11char_traitsIwEEErsEPNS_15basic_streambufIwS2_EE
00000000001231c8 W _ZNSt6__ndk113basic_istreamIwNS_11char_traitsIwEEErsERPv
0000000000121fd4 W _ZNSt6__ndk113basic_istreamIwNS_11char_traitsIwEEErsERb
0000000000122ee0 W _ZNSt6__ndk113basic_istreamIwNS_11char_traitsIwEEErsERd
0000000000123054 W _ZNSt6__ndk113basic_istreamIwNS_11char_traitsIwEEErsERe
0000000000122d6c W _ZNSt6__ndk113basic_istreamIwNS_11char_traitsIwEEErsERf
0000000000122470 W _ZNSt6__ndk113basic_istreamIwNS_11char_traitsIwEEErsERi
0000000000122628 W _ZNSt6__ndk113basic_istreamIwNS_11char_traitsIwEEErsERj
000000000012279c W _ZNSt6__ndk113basic_istreamIwNS_11char_traitsIwEEErsERl
0000000000122910 W _ZNSt6__ndk113basic_istreamIwNS_11char_traitsIwEEErsERm
0000000000122148 W _ZNSt6__ndk113basic_istreamIwNS_11char_traitsIwEEErsERs
00000000001222fc W _ZNSt6__ndk113basic_istreamIwNS_11char_traitsIwEEErsERt
0000000000122a84 W _ZNSt6__ndk113basic_istreamIwNS_11char_traitsIwEEErsERx
0000000000122bf8 W _ZNSt6__ndk113basic_istreamIwNS_11char_traitsIwEEErsERy
0000000000126ad8 W _ZNSt6__ndk113basic_ostreamIcNS_11char_traitsIcEEE3putEc
0000000000124d00 W _ZNSt6__ndk113basic_ostreamIcNS_11char_traitsIcEEE4swapERS3_
000000000011e808 W _ZNSt6__ndk113basic_ostreamIcNS_11char_traitsIcEEE5flushEv
0000000000126dd4 W _ZNSt6__ndk113basic_ostreamIcNS_11char_traitsIcEEE5seekpENS_4fposI9mbstate_tEE
0000000000126efc W _ZNSt6__ndk113basic_ostreamIcNS_11char_traitsIcEEE5seekpExNS_8ios_base7seekdirE
0000000000126d7c W _ZNSt6__ndk113basic_ostreamIcNS_11char_traitsIcEEE5tellpEv
0000000000126c34 W _ZNSt6__ndk113basic_ostreamIcNS_11char_traitsIcEEE5writeEPKcl
0000000000124d5c W _ZNSt6__ndk113basic_ostreamIcNS_11char_traitsIcEEE6sentryC1ERS3_
0000000000124d5c W _ZNSt6__ndk113basic_ostreamIcNS_11char_traitsIcEEE6sentryC2ERS3_
0000000000124da8 W _ZNSt6__ndk113basic_ostreamIcNS_11char_traitsIcEEE6sentryD1Ev
0000000000124da8 W _ZNSt6__ndk113basic_ostreamIcNS_11char_traitsIcEEE6sentryD2Ev
0000000000124c10 W _ZNSt6__ndk113basic_ostreamIcNS_11char_traitsIcEEEC1EPNS_15basic_streambufIcS2_EE
0000000000124ca8 W _ZNSt6__ndk113basic_ostreamIcNS_11char_traitsIcEEED0Ev
0000000000124c8c W _ZNSt6__ndk113basic_ostreamIcNS_11char_traitsIcEEED1Ev
0000000000124c88 W _ZNSt6__ndk113basic_ostreamIcNS_11char_traitsIcEEED2Ev
0000000000124e90 W _ZNSt6__ndk113basic_ostreamIcNS_11char_traitsIcEEElsEPFRNS_8ios_baseES5_E
0000000000124e60 W _ZNSt6__ndk113basic_ostreamIcNS_11char_traitsIcEEElsEPFRNS_9basic_iosIcS2_EES6_E
0000000000124e5c W _ZNSt6__ndk113basic_ostreamIcNS_11char_traitsIcEEElsEPFRS3_S4_E
0000000000126660 W _ZNSt6__ndk113basic_ostreamIcNS_11char_traitsIcEEElsEPKv
0000000000126850 W _ZNSt6__ndk113basic_ostreamIcNS_11char_traitsIcEEElsEPNS_15basic_streambufIcS2_EE
0000000000124ec0 W _ZNSt6__ndk113basic_ostreamIcNS_11char_traitsIcEEElsEb
0000000000126288 W _ZNSt6__ndk113basic_ostreamIcNS_11char_traitsIcEEElsEd
0000000000126478 W _ZNSt6__ndk113basic_ostreamIcNS_11char_traitsIcEEElsEe
0000000000126098 W _ZNSt6__ndk113basic_ostreamIcNS_11char_traitsIcEEElsEf
00000000001254d8 W _ZNSt6__ndk113basic_ostreamIcNS_11char_traitsIcEEElsEi
00000000001256e8 W _ZNSt6__ndk113basic_ostreamIcNS_11char_traitsIcEEElsEj
00000000001258d8 W _ZNSt6__ndk113basic_ostreamIcNS_11char_traitsIcEEElsEl
0000000000125ac8 W _ZNSt6__ndk113basic_ostreamIcNS_11char_traitsIcEEElsEm
00000000001250d8 W _ZNSt6__ndk113basic_ostreamIcNS_11char_traitsIcEEElsEs
00000000001252e8 W _ZNSt6__ndk113basic_ostreamIcNS_11char_traitsIcEEElsEt
0000000000125cb8 W _ZNSt6__ndk113basic_ostreamIcNS_11char_traitsIcEEElsEx
0000000000125ea8 W _ZNSt6__ndk113basic_ostreamIcNS_11char_traitsIcEEElsEy
0000000000128f30 W _ZNSt6__ndk113basic_ostreamIwNS_11char_traitsIwEEE3putEw
000000000012719c W _ZNSt6__ndk113basic_ostreamIwNS_11char_traitsIwEEE4swapERS3_
0000000000121c30 W _ZNSt6__ndk113basic_ostreamIwNS_11char_traitsIwEEE5flushEv
0000000000129238 W _ZNSt6__ndk113basic_ostreamIwNS_11char_traitsIwEEE5seekpENS_4fposI9mbstate_tEE
0000000000129360 W _ZNSt6__ndk113basic_ostreamIwNS_11char_traitsIwEEE5seekpExNS_8ios_base7seekdirE
00000000001291e0 W _ZNSt6__ndk113basic_ostreamIwNS_11char_traitsIwEEE5tellpEv
0000000000129098 W _ZNSt6__ndk113basic_ostreamIwNS_11char_traitsIwEEE5writeEPKwl
00000000001271f8 W _ZNSt6__ndk113basic_ostreamIwNS_11char_traitsIwEEE6sentryC1ERS3_
00000000001271f8 W _ZNSt6__ndk113basic_ostreamIwNS_11char_traitsIwEEE6sentryC2ERS3_
0000000000127244 W _ZNSt6__ndk113basic_ostreamIwNS_11char_traitsIwEEE6sentryD1Ev
0000000000127244 W _ZNSt6__ndk113basic_ostreamIwNS_11char_traitsIwEEE6sentryD2Ev
00000000001270ac W _ZNSt6__ndk113basic_ostreamIwNS_11char_traitsIwEEEC1EPNS_15basic_streambufIwS2_EE
0000000000127024 W _ZNSt6__ndk113basic_ostreamIwNS_11char_traitsIwEEEC2EPNS_15basic_streambufIwS2_EE
0000000000127144 W _ZNSt6__ndk113basic_ostreamIwNS_11char_traitsIwEEED0Ev
0000000000127128 W _ZNSt6__ndk113basic_ostreamIwNS_11char_traitsIwEEED1Ev
0000000000127124 W _ZNSt6__ndk113basic_ostreamIwNS_11char_traitsIwEEED2Ev
000000000012732c W _ZNSt6__ndk113basic_ostreamIwNS_11char_traitsIwEEElsEPFRNS_8ios_baseES5_E
00000000001272fc W _ZNSt6__ndk113basic_ostreamIwNS_11char_traitsIwEEElsEPFRNS_9basic_iosIwS2_EES6_E
00000000001272f8 W _ZNSt6__ndk113basic_ostreamIwNS_11char_traitsIwEEElsEPFRS3_S4_E
0000000000128ad4 W _ZNSt6__ndk113basic_ostreamIwNS_11char_traitsIwEEElsEPKv
0000000000128cc4 W _ZNSt6__ndk113basic_ostreamIwNS_11char_traitsIwEEElsEPNS_15basic_streambufIwS2_EE
000000000012735c W _ZNSt6__ndk113basic_ostreamIwNS_11char_traitsIwEEElsEb
00000000001286fc W _ZNSt6__ndk113basic_ostreamIwNS_11char_traitsIwEEElsEd
00000000001288ec W _ZNSt6__ndk113basic_ostreamIwNS_11char_traitsIwEEElsEe
000000000012850c W _ZNSt6__ndk113basic_ostreamIwNS_11char_traitsIwEEElsEf
000000000012794c W _ZNSt6__ndk113basic_ostreamIwNS_11char_traitsIwEEElsEi
0000000000127b5c W _ZNSt6__ndk113basic_ostreamIwNS_11char_traitsIwEEElsEj
0000000000127d4c W _ZNSt6__ndk113basic_ostreamIwNS_11char_traitsIwEEElsEl
0000000000127f3c W _ZNSt6__ndk113basic_ostreamIwNS_11char_traitsIwEEElsEm
000000000012754c W _ZNSt6__ndk113basic_ostreamIwNS_11char_traitsIwEEElsEs
000000000012775c W _ZNSt6__ndk113basic_ostreamIwNS_11char_traitsIwEEElsEt
000000000012812c W _ZNSt6__ndk113basic_ostreamIwNS_11char_traitsIwEEElsEx
000000000012831c W _ZNSt6__ndk113basic_ostreamIwNS_11char_traitsIwEEElsEy
00000000001626cc T _ZNSt6__ndk113shared_futureIvED1Ev
00000000001626cc T _ZNSt6__ndk113shared_futureIvED2Ev
00000000001626dc T _ZNSt6__ndk113shared_futureIvEaSERKS1_
00000000000ecc78 W _ZNSt6__ndk113unordered_mapINS_12basic_stringIcNS_11char_traitsIcEENS_9allocatorIcEEEEjNS_4hashIS6_EENS_8equal_toIS6_EENS4_INS_4pairIKS6_jEEEEEixERSC_
0000000000112a18 W _ZNSt6__ndk113unordered_mapINS_12basic_stringIcNS_11char_traitsIcEENS_9allocatorIcEEEEmNS_4hashIS6_EENS_8equal_toIS6_EENS4_INS_4pairIKS6_mEEEEEixERSC_
00000000000ba748 W _ZNSt6__ndk113unordered_mapINS_17basic_string_viewIcNS_11char_traitsIcEEEENS_12basic_stringIcS3_NS_9allocatorIcEEEENS_4hashIS4_EENS_8equal_toIS4_EENS6_INS_4pairIKS4_S8_EEEEEixEOS4_
0000000000154d74 W _ZNSt6__ndk114__codecvt_utf8IDiED0Ev
0000000000154d50 W _ZNSt6__ndk114__codecvt_utf8IDsED0Ev
0000000000154d2c W _ZNSt6__ndk114__codecvt_utf8IwED0Ev
00000000000eb494 W _ZNSt6__ndk114__fill_n_falseINS_6vectorIbNS_9allocatorIbEEEEEEvNS_14__bit_iteratorIT_Lb0EXLi0EEEENS6_9size_typeE
000000000014dbe8 T _ZNSt6__ndk114__num_get_base10__get_baseERNS_8ios_baseE
00000000000822c6 R _ZNSt6__ndk114__num_get_base5__srcE
0000000000131b24 T _ZNSt6__ndk114__num_put_base12__format_intEPcPKcbj
0000000000132cb4 T _ZNSt6__ndk114__num_put_base14__format_floatEPcPKcj
0000000000131cb4 T _ZNSt6__ndk114__num_put_base18__identify_paddingEPcS1_RKNS_8ios_baseE
00000000000e5154 W _ZNSt6__ndk114__rotate_rightINS_11__wrap_iterIP10Elf32_PhdrEEEET_S5_S5_
00000000000e8b7c W _ZNSt6__ndk114__rotate_rightINS_11__wrap_iterIP10Elf32_ShdrEEEET_S5_S5_
000000000010c404 W _ZNSt6__ndk114__rotate_rightINS_11__wrap_iterIP10Elf64_PhdrEEEET_S5_S5_
000000000010ff08 W _ZNSt6__ndk114__rotate_rightINS_11__wrap_iterIP10Elf64_ShdrEEEET_S5_S5_
0000000000157518 T _ZNSt6__ndk114__shared_countD0Ev
0000000000157514 T _ZNSt6__ndk114__shared_countD1Ev
0000000000157514 T _ZNSt6__ndk114__shared_countD2Ev
00000000000dd710 W _ZNSt6__ndk114__split_bufferI10Elf32_PhdrRNS_9allocatorIS1_EEE18__construct_at_endEm
00000000000df4bc W _ZNSt6__ndk114__split_bufferI10Elf32_PhdrRNS_9allocatorIS1_EEE18__construct_at_endINS_11__wrap_iterIPS1_EEEENS_9enable_ifIXsr27__is_cpp17_forward_iteratorIT_EE5valueEvE4typeESB_SB_
00000000000ddee8 W _ZNSt6__ndk114__split_bufferI10Elf32_PhdrRNS_9allocatorIS1_EEE21_ConstructTransactionC2EPPS1_m
00000000000ddf2c W _ZNSt6__ndk114__split_bufferI10Elf32_PhdrRNS_9allocatorIS1_EEE21_ConstructTransactionD2Ev
00000000000dd62c W _ZNSt6__ndk114__split_bufferI10Elf32_PhdrRNS_9allocatorIS1_EEEC2EmmS4_
00000000000dd8cc W _ZNSt6__ndk114__split_bufferI10Elf32_PhdrRNS_9allocatorIS1_EEED2Ev
00000000000faf28 W _ZNSt6__ndk114__split_bufferI10Elf32_ShdrRNS_9allocatorIS1_EEEC2EmmS4_
00000000000fb0ec W _ZNSt6__ndk114__split_bufferI10Elf32_ShdrRNS_9allocatorIS1_EEED2Ev
0000000000105e50 W _ZNSt6__ndk114__split_bufferI10Elf64_PhdrRNS_9allocatorIS1_EEE18__construct_at_endEm
0000000000107d14 W _ZNSt6__ndk114__split_bufferI10Elf64_PhdrRNS_9allocatorIS1_EEE18__construct_at_endINS_11__wrap_iterIPS1_EEEENS_9enable_ifIXsr27__is_cpp17_forward_iteratorIT_EE5valueEvE4typeESB_SB_
0000000000106658 W _ZNSt6__ndk114__split_bufferI10Elf64_PhdrRNS_9allocatorIS1_EEE21_ConstructTransactionC2EPPS1_m
00000000001066a4 W _ZNSt6__ndk114__split_bufferI10Elf64_PhdrRNS_9allocatorIS1_EEE21_ConstructTransactionD2Ev
0000000000105d60 W _ZNSt6__ndk114__split_bufferI10Elf64_PhdrRNS_9allocatorIS1_EEEC2EmmS4_
000000000010600c W _ZNSt6__ndk114__split_bufferI10Elf64_PhdrRNS_9allocatorIS1_EEED2Ev
000000000011ab74 W _ZNSt6__ndk114__split_bufferI10Elf64_ShdrRNS_9allocatorIS1_EEEC2EmmS4_
000000000011ad2c W _ZNSt6__ndk114__split_bufferI10Elf64_ShdrRNS_9allocatorIS1_EEED2Ev
00000000000fbd74 W _ZNSt6__ndk114__split_bufferINS_12basic_stringIcNS_11char_traitsIcEENS_9allocatorIcEEEERNS4_IS6_EEE18__construct_at_endEm
00000000000fbee4 W _ZNSt6__ndk114__split_bufferINS_12basic_stringIcNS_11char_traitsIcEENS_9allocatorIcEEEERNS4_IS6_EEE21_ConstructTransactionC2EPPS6_m
00000000000fbf30 W _ZNSt6__ndk114__split_bufferINS_12basic_stringIcNS_11char_traitsIcEENS_9allocatorIcEEEERNS4_IS6_EEE21_ConstructTransactionD2Ev
00000000000c0f20 W _ZNSt6__ndk114__split_bufferINS_12basic_stringIcNS_11char_traitsIcEENS_9allocatorIcEEEERNS4_IS6_EEEC2EmmS8_
00000000000c10e4 W _ZNSt6__ndk114__split_bufferINS_12basic_stringIcNS_11char_traitsIcEENS_9allocatorIcEEEERNS4_IS6_EEED2Ev
00000000000f5a30 W _ZNSt6__ndk114__split_bufferIZN7ElfFileI10Elf32_Ehdr10Elf32_Phdr10Elf32_Shdrjj9Elf32_Dyn9Elf32_Symt12Elf32_Verdef13Elf32_Verdaux13Elf32_Verneed13Elf32_Vernaux9Elf32_Rel10Elf32_RelaLj32EE19rebuildGnuHashTableE4spanIcESE_IS6_EE5EntryRNS_9allocatorISH_EEEC2EmmSK_
00000000000f5bf4 W _ZNSt6__ndk114__split_bufferIZN7ElfFileI10Elf32_Ehdr10Elf32_Phdr10Elf32_Shdrjj9Elf32_Dyn9Elf32_Symt12Elf32_Verdef13Elf32_Verdaux13Elf32_Verneed13Elf32_Vernaux9Elf32_Rel10Elf32_RelaLj32EE19rebuildGnuHashTableE4spanIcESE_IS6_EE5EntryRNS_9allocatorISH_EEED2Ev
00000000001170fc W _ZNSt6__ndk114__split_bufferIZN7ElfFileI10Elf64_Ehdr10Elf64_Phdr10Elf64_Shdrmm9Elf64_Dyn9Elf64_Symt12Elf64_Verdef13Elf64_Verdaux13Elf64_Verneed13Elf64_Vernaux9Elf64_Rel10Elf64_RelaLj64EE19rebuildGnuHashTableE4spanIcESE_IS6_EE5EntryRNS_9allocatorISH_EEEC2EmmSK_
00000000001172c0 W _ZNSt6__ndk114__split_bufferIZN7ElfFileI10Elf64_Ehdr10Elf64_Phdr10Elf64_Shdrmm9Elf64_Dyn9Elf64_Symt12Elf64_Verdef13Elf64_Verdaux13Elf64_Verneed13Elf64_Vernaux9Elf64_Rel10Elf64_RelaLj64EE19rebuildGnuHashTableE4spanIcESE_IS6_EE5EntryRNS_9allocatorISH_EEED2Ev
00000000000f3bf8 W _ZNSt6__ndk114__split_bufferIcRNS_9allocatorIcEEE18__construct_at_endINS_11__wrap_iterIPKcEEEENS_9enable_ifIXsr27__is_cpp17_forward_iteratorIT_EE5valueEvE4typeESB_SB_
00000000000f4544 W _ZNSt6__ndk114__split_bufferIcRNS_9allocatorIcEEE21_ConstructTransactionC2EPPcm
00000000000f4588 W _ZNSt6__ndk114__split_bufferIcRNS_9allocatorIcEEE21_ConstructTransactionD2Ev
00000000000f2914 W _ZNSt6__ndk114__split_bufferIcRNS_9allocatorIcEEEC2EmmS3_
00000000000f2acc W _ZNSt6__ndk114__split_bufferIcRNS_9allocatorIcEEED2Ev
00000000000dca14 W _ZNSt6__ndk114__split_bufferIhRNS_9allocatorIhEEE18__construct_at_endEmRKh
00000000000dcec8 W _ZNSt6__ndk114__split_bufferIhRNS_9allocatorIhEEE21_ConstructTransactionC2EPPhm
00000000000dcf0c W _ZNSt6__ndk114__split_bufferIhRNS_9allocatorIhEEE21_ConstructTransactionD2Ev
00000000000dc930 W _ZNSt6__ndk114__split_bufferIhRNS_9allocatorIhEEEC2EmmS3_
00000000000dcbd8 W _ZNSt6__ndk114__split_bufferIhRNS_9allocatorIhEEED2Ev
00000000000c5410 W _ZNSt6__ndk114basic_ifstreamIcNS_11char_traitsIcEEED0Ev
00000000000ba97c W _ZNSt6__ndk114basic_ifstreamIcNS_11char_traitsIcEEED1Ev
00000000000cdcf8 W _ZNSt6__ndk114basic_ifstreamIcNS_11char_traitsIcEEED2Ev
0000000000129698 W _ZNSt6__ndk114basic_iostreamIcNS_11char_traitsIcEEE4swapERS3_
0000000000129558 W _ZNSt6__ndk114basic_iostreamIcNS_11char_traitsIcEEEC1EPNS_15basic_streambufIcS2_EE
0000000000129488 W _ZNSt6__ndk114basic_iostreamIcNS_11char_traitsIcEEEC2EPNS_15basic_streambufIcS2_EE
0000000000129618 W _ZNSt6__ndk114basic_iostreamIcNS_11char_traitsIcEEED0Ev
00000000001295f4 W _ZNSt6__ndk114basic_iostreamIcNS_11char_traitsIcEEED1Ev
00000000001295f0 W _ZNSt6__ndk114basic_iostreamIcNS_11char_traitsIcEEED2Ev
000000000013fe40 W _ZNSt6__ndk114codecvt_bynameIDic9mbstate_tED0Ev
000000000013fe3c W _ZNSt6__ndk114codecvt_bynameIDic9mbstate_tED1Ev
000000000013fe3c W _ZNSt6__ndk114codecvt_bynameIDic9mbstate_tED2Ev
000000000013fe18 W _ZNSt6__ndk114codecvt_bynameIDsc9mbstate_tED0Ev
000000000013fe14 W _ZNSt6__ndk114codecvt_bynameIDsc9mbstate_tED1Ev
000000000013fe14 W _ZNSt6__ndk114codecvt_bynameIDsc9mbstate_tED2Ev
000000000013fdc8 W _ZNSt6__ndk114codecvt_bynameIcc9mbstate_tED0Ev
000000000013fdc4 W _ZNSt6__ndk114codecvt_bynameIcc9mbstate_tED1Ev
000000000013fdc4 W _ZNSt6__ndk114codecvt_bynameIcc9mbstate_tED2Ev
000000000013fdf0 W _ZNSt6__ndk114codecvt_bynameIwc9mbstate_tED0Ev
000000000013fdec W _ZNSt6__ndk114codecvt_bynameIwc9mbstate_tED1Ev
000000000013fdec W _ZNSt6__ndk114codecvt_bynameIwc9mbstate_tED2Ev
0000000000146a58 T _ZNSt6__ndk114collate_bynameIcEC1EPKcm
0000000000146c14 T _ZNSt6__ndk114collate_bynameIcEC1ERKNS_12basic_stringIcNS_11char_traitsIcEENS_9allocatorIcEEEEm
0000000000146a58 T _ZNSt6__ndk114collate_bynameIcEC2EPKcm
0000000000146c14 T _ZNSt6__ndk114collate_bynameIcEC2ERKNS_12basic_stringIcNS_11char_traitsIcEENS_9allocatorIcEEEEm
0000000000146d34 T _ZNSt6__ndk114collate_bynameIcED0Ev
0000000000146ce8 T _ZNSt6__ndk114collate_bynameIcED1Ev
0000000000146ce8 T _ZNSt6__ndk114collate_bynameIcED2Ev
000000000014721c T _ZNSt6__ndk114collate_bynameIwEC1EPKcm
0000000000147388 T _ZNSt6__ndk114collate_bynameIwEC1ERKNS_12basic_stringIcNS_11char_traitsIcEENS_9allocatorIcEEEEm
000000000014721c T _ZNSt6__ndk114collate_bynameIwEC2EPKcm
0000000000147388 T _ZNSt6__ndk114collate_bynameIwEC2ERKNS_12basic_stringIcNS_11char_traitsIcEENS_9allocatorIcEEEEm
00000000001474a8 T _ZNSt6__ndk114collate_bynameIwED0Ev
000000000014745c T _ZNSt6__ndk114collate_bynameIwED1Ev
000000000014745c T _ZNSt6__ndk114collate_bynameIwED2Ev
000000000016053c T _ZNSt6__ndk114error_categoryC2Ev
0000000000160550 T _ZNSt6__ndk114error_categoryD0Ev
000000000016123c T _ZNSt6__ndk114error_categoryD1Ev
000000000016123c T _ZNSt6__ndk114error_categoryD2Ev
0000000000154e28 W _ZNSt6__ndk115__codecvt_utf16IDiLb0EED0Ev
0000000000154e4c W _ZNSt6__ndk115__codecvt_utf16IDiLb1EED0Ev
0000000000154de0 W _ZNSt6__ndk115__codecvt_utf16IDsLb0EED0Ev
0000000000154e04 W _ZNSt6__ndk115__codecvt_utf16IDsLb1EED0Ev
0000000000154d98 W _ZNSt6__ndk115__codecvt_utf16IwLb0EED0Ev
0000000000154dbc W _ZNSt6__ndk115__codecvt_utf16IwLb1EED0Ev
00000000000e3260 W _ZNSt6__ndk115__inplace_mergeIRN7ElfFileI10Elf32_Ehdr10Elf32_Phdr10Elf32_Shdrjj9Elf32_Dyn9Elf32_Symt12Elf32_Verdef13Elf32_Verdaux13Elf32_Verneed13Elf32_Vernaux9Elf32_Rel10Elf32_RelaLj32EE8CompPhdrENS_11__wrap_iterIPS3_EEEEvT0_SJ_SJ_T_NS_15iterator_traitsISJ_E15difference_typeESN_PNSM_10value_typeEl
00000000000e6aac W _ZNSt6__ndk115__inplace_mergeIRN7ElfFileI10Elf32_Ehdr10Elf32_Phdr10Elf32_Shdrjj9Elf32_Dyn9Elf32_Symt12Elf32_Verdef13Elf32_Verdaux13Elf32_Verneed13Elf32_Vernaux9Elf32_Rel10Elf32_RelaLj32EE8CompShdrENS_11__wrap_iterIPS4_EEEEvT0_SJ_SJ_T_NS_15iterator_traitsISJ_E15difference_typeESN_PNSM_10value_typeEl
000000000010a490 W _ZNSt6__ndk115__inplace_mergeIRN7ElfFileI10Elf64_Ehdr10Elf64_Phdr10Elf64_Shdrmm9Elf64_Dyn9Elf64_Symt12Elf64_Verdef13Elf64_Verdaux13Elf64_Verneed13Elf64_Vernaux9Elf64_Rel10Elf64_RelaLj64EE8CompPhdrENS_11__wrap_iterIPS3_EEEEvT0_SJ_SJ_T_NS_15iterator_traitsISJ_E15difference_typeESN_PNSM_10value_typeEl
000000000010ddbc W _ZNSt6__ndk115__inplace_mergeIRN7ElfFileI10Elf64_Ehdr10Elf64_Phdr10Elf64_Shdrmm9Elf64_Dyn9Elf64_Symt12Elf64_Verdef13Elf64_Verdaux13Elf64_Verneed13Elf64_Vernaux9Elf64_Rel10Elf64_RelaLj64EE8CompShdrENS_11__wrap_iterIPS4_EEEEvT0_SJ_SJ_T_NS_15iterator_traitsISJ_E15difference_typeESN_PNSM_10value_typeEl
0000000000161804 T _ZNSt6__ndk115__thread_struct25notify_all_at_thread_exitEPNS_18condition_variableEPNS_5mutexE
000000000016180c T _ZNSt6__ndk115__thread_struct27__make_ready_at_thread_exitEPNS_17__assoc_sub_stateE
0000000000161798 T _ZNSt6__ndk115__thread_structC1Ev
0000000000161798 T _ZNSt6__ndk115__thread_structC2Ev
00000000001617cc T _ZNSt6__ndk115__thread_structD1Ev
00000000001617cc T _ZNSt6__ndk115__thread_structD2Ev
000000000011d8e4 W _ZNSt6__ndk115basic_streambufIcNS_11char_traitsIcEEE10pubseekoffExNS_8ios_base7seekdirEj
000000000011d8f0 W _ZNSt6__ndk115basic_streambufIcNS_11char_traitsIcEEE10pubseekposENS_4fposI9mbstate_tEEj
000000000011dae8 W _ZNSt6__ndk115basic_streambufIcNS_11char_traitsIcEEE4swapERS3_
000000000011dbf4 W _ZNSt6__ndk115basic_streambufIcNS_11char_traitsIcEEE4syncEv
000000000011dbd4 W _ZNSt6__ndk115basic_streambufIcNS_11char_traitsIcEEE5imbueERKNS_6localeE
000000000011d9a4 W _ZNSt6__ndk115basic_streambufIcNS_11char_traitsIcEEE5sgetnEPcl
000000000011dcd4 W _ZNSt6__ndk115basic_streambufIcNS_11char_traitsIcEEE5uflowEv
000000000011dbd8 W _ZNSt6__ndk115basic_streambufIcNS_11char_traitsIcEEE6setbufEPcl
000000000011d928 W _ZNSt6__ndk115basic_streambufIcNS_11char_traitsIcEEE6snextcEv
000000000011dc04 W _ZNSt6__ndk115basic_streambufIcNS_11char_traitsIcEEE6xsgetnEPcl
000000000011dd1c W _ZNSt6__ndk115basic_streambufIcNS_11char_traitsIcEEE6xsputnEPKcl
000000000011d8fc W _ZNSt6__ndk115basic_streambufIcNS_11char_traitsIcEEE7pubsyncEv
000000000011dbdc W _ZNSt6__ndk115basic_streambufIcNS_11char_traitsIcEEE7seekoffExNS_8ios_base7seekdirEj
000000000011dbe8 W _ZNSt6__ndk115basic_streambufIcNS_11char_traitsIcEEE7seekposENS_4fposI9mbstate_tEEj
000000000011d9e4 W _ZNSt6__ndk115basic_streambufIcNS_11char_traitsIcEEE7sungetcEv
000000000011d908 W _ZNSt6__ndk115basic_streambufIcNS_11char_traitsIcEEE8in_availEv
000000000011dde4 W _ZNSt6__ndk115basic_streambufIcNS_11char_traitsIcEEE8overflowEi
000000000011d88c W _ZNSt6__ndk115basic_streambufIcNS_11char_traitsIcEEE8pubimbueERKNS_6localeE
000000000011dd14 W _ZNSt6__ndk115basic_streambufIcNS_11char_traitsIcEEE9pbackfailEi
000000000011d8d8 W _ZNSt6__ndk115basic_streambufIcNS_11char_traitsIcEEE9pubsetbufEPcl
000000000011dbfc W _ZNSt6__ndk115basic_streambufIcNS_11char_traitsIcEEE9showmanycEv
000000000011d9b0 W _ZNSt6__ndk115basic_streambufIcNS_11char_traitsIcEEE9sputbackcEc
000000000011dccc W _ZNSt6__ndk115basic_streambufIcNS_11char_traitsIcEEE9underflowEv
000000000011da4c W _ZNSt6__ndk115basic_streambufIcNS_11char_traitsIcEEEC1ERKS3_
000000000011da10 W _ZNSt6__ndk115basic_streambufIcNS_11char_traitsIcEEEC1Ev
000000000011da4c W _ZNSt6__ndk115basic_streambufIcNS_11char_traitsIcEEEC2ERKS3_
000000000011da10 W _ZNSt6__ndk115basic_streambufIcNS_11char_traitsIcEEEC2Ev
000000000011d858 W _ZNSt6__ndk115basic_streambufIcNS_11char_traitsIcEEED0Ev
000000000011d844 W _ZNSt6__ndk115basic_streambufIcNS_11char_traitsIcEEED1Ev
000000000011d844 W _ZNSt6__ndk115basic_streambufIcNS_11char_traitsIcEEED2Ev
000000000011daa0 W _ZNSt6__ndk115basic_streambufIcNS_11char_traitsIcEEEaSERKS3_
000000000011de98 W _ZNSt6__ndk115basic_streambufIwNS_11char_traitsIwEEE10pubseekoffExNS_8ios_base7seekdirEj
000000000011dea4 W _ZNSt6__ndk115basic_streambufIwNS_11char_traitsIwEEE10pubseekposENS_4fposI9mbstate_tEEj
000000000011e21c W _ZNSt6__ndk115basic_streambufIwNS_11char_traitsIwEEE4setgEPwS4_S4_
000000000011e238 W _ZNSt6__ndk115basic_streambufIwNS_11char_traitsIwEEE4setpEPwS4_
000000000011e120 W _ZNSt6__ndk115basic_streambufIwNS_11char_traitsIwEEE4swapERS3_
000000000011e264 W _ZNSt6__ndk115basic_streambufIwNS_11char_traitsIwEEE4syncEv
000000000011e20c W _ZNSt6__ndk115basic_streambufIwNS_11char_traitsIwEEE5gbumpEi
000000000011e244 W _ZNSt6__ndk115basic_streambufIwNS_11char_traitsIwEEE5imbueERKNS_6localeE
000000000011e228 W _ZNSt6__ndk115basic_streambufIwNS_11char_traitsIwEEE5pbumpEi
000000000011df88 W _ZNSt6__ndk115basic_streambufIwNS_11char_traitsIwEEE5sgetcEv
000000000011dfa8 W _ZNSt6__ndk115basic_streambufIwNS_11char_traitsIwEEE5sgetnEPwl
000000000011e010 W _ZNSt6__ndk115basic_streambufIwNS_11char_traitsIwEEE5sputcEw
000000000011e03c W _ZNSt6__ndk115basic_streambufIwNS_11char_traitsIwEEE5sputnEPKwl
000000000011e350 W _ZNSt6__ndk115basic_streambufIwNS_11char_traitsIwEEE5uflowEv
000000000011df60 W _ZNSt6__ndk115basic_streambufIwNS_11char_traitsIwEEE6sbumpcEv
000000000011e248 W _ZNSt6__ndk115basic_streambufIwNS_11char_traitsIwEEE6setbufEPwl
000000000011dee0 W _ZNSt6__ndk115basic_streambufIwNS_11char_traitsIwEEE6snextcEv
000000000011e274 W _ZNSt6__ndk115basic_streambufIwNS_11char_traitsIwEEE6xsgetnEPwl
000000000011e398 W _ZNSt6__ndk115basic_streambufIwNS_11char_traitsIwEEE6xsputnEPKwl
000000000011deb0 W _ZNSt6__ndk115basic_streambufIwNS_11char_traitsIwEEE7pubsyncEv
000000000011e24c W _ZNSt6__ndk115basic_streambufIwNS_11char_traitsIwEEE7seekoffExNS_8ios_base7seekdirEj
000000000011e258 W _ZNSt6__ndk115basic_streambufIwNS_11char_traitsIwEEE7seekposENS_4fposI9mbstate_tEEj
000000000011dfe4 W _ZNSt6__ndk115basic_streambufIwNS_11char_traitsIwEEE7sungetcEv
000000000011debc W _ZNSt6__ndk115basic_streambufIwNS_11char_traitsIwEEE8in_availEv
000000000011e46c W _ZNSt6__ndk115basic_streambufIwNS_11char_traitsIwEEE8overflowEj
000000000011de34 W _ZNSt6__ndk115basic_streambufIwNS_11char_traitsIwEEE8pubimbueERKNS_6localeE
000000000011e390 W _ZNSt6__ndk115basic_streambufIwNS_11char_traitsIwEEE9pbackfailEj
000000000011de8c W _ZNSt6__ndk115basic_streambufIwNS_11char_traitsIwEEE9pubsetbufEPwl
000000000011e26c W _ZNSt6__ndk115basic_streambufIwNS_11char_traitsIwEEE9showmanycEv
000000000011dfb4 W _ZNSt6__ndk115basic_streambufIwNS_11char_traitsIwEEE9sputbackcEw
000000000011e348 W _ZNSt6__ndk115basic_streambufIwNS_11char_traitsIwEEE9underflowEv
000000000011e084 W _ZNSt6__ndk115basic_streambufIwNS_11char_traitsIwEEEC1ERKS3_
000000000011e048 W _ZNSt6__ndk115basic_streambufIwNS_11char_traitsIwEEEC1Ev
000000000011e084 W _ZNSt6__ndk115basic_streambufIwNS_11char_traitsIwEEEC2ERKS3_
000000000011e048 W _ZNSt6__ndk115basic_streambufIwNS_11char_traitsIwEEEC2Ev
000000000011de00 W _ZNSt6__ndk115basic_streambufIwNS_11char_traitsIwEEED0Ev
000000000011ddec W _ZNSt6__ndk115basic_streambufIwNS_11char_traitsIwEEED1Ev
000000000011ddec W _ZNSt6__ndk115basic_streambufIwNS_11char_traitsIwEEED2Ev
000000000011e0d8 W _ZNSt6__ndk115basic_streambufIwNS_11char_traitsIwEEEaSERKS3_
00000000000c7e6c W _ZNSt6__ndk115basic_stringbufIcNS_11char_traitsIcEENS_9allocatorIcEEE3strERKNS_12basic_stringIcS2_S4_EE
00000000000bb82c W _ZNSt6__ndk115basic_stringbufIcNS_11char_traitsIcEENS_9allocatorIcEEE7seekoffExNS_8ios_base7seekdirEj
00000000000bbe98 W _ZNSt6__ndk115basic_stringbufIcNS_11char_traitsIcEENS_9allocatorIcEEE8overflowEi
00000000000bbd18 W _ZNSt6__ndk115basic_stringbufIcNS_11char_traitsIcEENS_9allocatorIcEEE9pbackfailEi
00000000000bbc28 W _ZNSt6__ndk115basic_stringbufIcNS_11char_traitsIcEENS_9allocatorIcEEE9underflowEv
00000000000bb7f8 W _ZNSt6__ndk115basic_stringbufIcNS_11char_traitsIcEENS_9allocatorIcEEED0Ev
00000000000bb7b4 W _ZNSt6__ndk115basic_stringbufIcNS_11char_traitsIcEENS_9allocatorIcEEED2Ev
00000000001619d8 T _ZNSt6__ndk115future_categoryEv
000000000014d358 T _ZNSt6__ndk115numpunct_bynameIcE6__initEPKc
000000000014d2e0 T _ZNSt6__ndk115numpunct_bynameIcEC1EPKcm
000000000014d700 T _ZNSt6__ndk115numpunct_bynameIcEC1ERKNS_12basic_stringIcNS_11char_traitsIcEENS_9allocatorIcEEEEm
000000000014d2e0 T _ZNSt6__ndk115numpunct_bynameIcEC2EPKcm
000000000014d700 T _ZNSt6__ndk115numpunct_bynameIcEC2ERKNS_12basic_stringIcNS_11char_traitsIcEENS_9allocatorIcEEEEm
000000000014d788 T _ZNSt6__ndk115numpunct_bynameIcED0Ev
000000000014d090 T _ZNSt6__ndk115numpunct_bynameIcED1Ev
000000000014d090 T _ZNSt6__ndk115numpunct_bynameIcED2Ev
000000000014d84c T _ZNSt6__ndk115numpunct_bynameIwE6__initEPKc
000000000014d7d0 T _ZNSt6__ndk115numpunct_bynameIwEC1EPKcm
000000000014db14 T _ZNSt6__ndk115numpunct_bynameIwEC1ERKNS_12basic_stringIcNS_11char_traitsIcEENS_9allocatorIcEEEEm
000000000014d7d0 T _ZNSt6__ndk115numpunct_bynameIwEC2EPKcm
000000000014db14 T _ZNSt6__ndk115numpunct_bynameIwEC2ERKNS_12basic_stringIcNS_11char_traitsIcEENS_9allocatorIcEEEEm
000000000014dba0 T _ZNSt6__ndk115numpunct_bynameIwED0Ev
000000000014d118 T _ZNSt6__ndk115numpunct_bynameIwED1Ev
000000000014d118 T _ZNSt6__ndk115numpunct_bynameIwED2Ev
0000000000157910 T _ZNSt6__ndk115recursive_mutex4lockEv
0000000000157934 T _ZNSt6__ndk115recursive_mutex6unlockEv
000000000015794c T _ZNSt6__ndk115recursive_mutex8try_lockEv
0000000000157834 T _ZNSt6__ndk115recursive_mutexC1Ev
0000000000157834 T _ZNSt6__ndk115recursive_mutexC2Ev
00000000001578f8 T _ZNSt6__ndk115recursive_mutexD1Ev
00000000001578f8 T _ZNSt6__ndk115recursive_mutexD2Ev
0000000000160908 T _ZNSt6__ndk115system_categoryEv
000000000013c004 T _ZNSt6__ndk116__check_groupingERKNS_12basic_stringIcNS_11char_traitsIcEENS_9allocatorIcEEEEPjS8_Rj
00000000000e2a4c W _ZNSt6__ndk116__insertion_sortIRN7ElfFileI10Elf32_Ehdr10Elf32_Phdr10Elf32_Shdrjj9Elf32_Dyn9Elf32_Symt12Elf32_Verdef13Elf32_Verdaux13Elf32_Verneed13Elf32_Vernaux9Elf32_Rel10Elf32_RelaLj32EE8CompPhdrENS_11__wrap_iterIPS3_EEEEvT0_SJ_T_
00000000000e62c0 W _ZNSt6__ndk116__insertion_sortIRN7ElfFileI10Elf32_Ehdr10Elf32_Phdr10Elf32_Shdrjj9Elf32_Dyn9Elf32_Symt12Elf32_Verdef13Elf32_Verdaux13Elf32_Verneed13Elf32_Vernaux9Elf32_Rel10Elf32_RelaLj32EE8CompShdrENS_11__wrap_iterIPS4_EEEEvT0_SJ_T_
0000000000109bd4 W _ZNSt6__ndk116__insertion_sortIRN7ElfFileI10Elf64_Ehdr10Elf64_Phdr10Elf64_Shdrmm9Elf64_Dyn9Elf64_Symt12Elf64_Verdef13Elf64_Verdaux13Elf64_Verneed13Elf64_Vernaux9Elf64_Rel10Elf64_RelaLj64EE8CompPhdrENS_11__wrap_iterIPS3_EEEEvT0_SJ_T_
000000000010d578 W _ZNSt6__ndk116__insertion_sortIRN7ElfFileI10Elf64_Ehdr10Elf64_Phdr10Elf64_Shdrmm9Elf64_Dyn9Elf64_Symt12Elf64_Verdef13Elf64_Verdaux13Elf64_Verneed13Elf64_Vernaux9Elf64_Rel10Elf64_RelaLj64EE8CompShdrENS_11__wrap_iterIPS4_EEEEvT0_SJ_T_
000000000014cfac T _ZNSt6__ndk116__narrow_to_utf8ILm16EED0Ev
000000000015539c T _ZNSt6__ndk116__narrow_to_utf8ILm16EED1Ev
000000000015539c T _ZNSt6__ndk116__narrow_to_utf8ILm16EED2Ev
000000000014cfd0 T _ZNSt6__ndk116__narrow_to_utf8ILm32EED0Ev
000000000015539c T _ZNSt6__ndk116__narrow_to_utf8ILm32EED1Ev
000000000015539c T _ZNSt6__ndk116__narrow_to_utf8ILm32EED2Ev
00000000000dda20 W _ZNSt6__ndk116allocator_traitsINS_9allocatorI10Elf32_PhdrEEE11__constructIS2_JEEEvNS_17integral_constantIbLb1EEERS3_PT_DpOT0_
00000000000df060 W _ZNSt6__ndk116allocator_traitsINS_9allocatorI10Elf32_PhdrEEE11__constructIS2_JRKS2_EEEvNS_17integral_constantIbLb1EEERS3_PT_DpOT0_
00000000000df93c W _ZNSt6__ndk116allocator_traitsINS_9allocatorI10Elf32_PhdrEEE11__constructIS2_JRS2_EEEvNS_17integral_constantIbLb1EEERS3_PT_DpOT0_
00000000000dfac4 W _ZNSt6__ndk116allocator_traitsINS_9allocatorI10Elf32_PhdrEEE11__constructIS2_JS2_EEEvNS_17integral_constantIbLb1EEERS3_PT_DpOT0_
00000000000df81c W _ZNSt6__ndk116allocator_traitsINS_9allocatorI10Elf32_PhdrEEE25__construct_range_forwardINS_11__wrap_iterIPS2_EES7_EEvRS3_T_SA_RT0_
00000000000dfd18 W _ZNSt6__ndk116allocator_traitsINS_9allocatorI10Elf32_PhdrEEE45__construct_forward_with_exception_guaranteesIS2_EENS_9enable_ifIXaaooL_ZNS_17integral_constantIbLb1EE5valueEEntsr15__has_constructIS3_PT_S9_EE5valuesr31is_trivially_move_constructibleIS9_EE5valueEvE4typeERS3_SA_SA_RSA_
00000000000ddffc W _ZNSt6__ndk116allocator_traitsINS_9allocatorI10Elf32_PhdrEEE46__construct_backward_with_exception_guaranteesIS2_EENS_9enable_ifIXaaooL_ZNS_17integral_constantIbLb1EE5valueEEntsr15__has_constructIS3_PT_S9_EE5valuesr31is_trivially_move_constructibleIS9_EE5valueEvE4typeERS3_SA_SA_RSA_
00000000000de390 W _ZNSt6__ndk116allocator_traitsINS_9allocatorI10Elf32_PhdrEEE7destroyIS2_EEvRS3_PT_
00000000000de3c0 W _ZNSt6__ndk116allocator_traitsINS_9allocatorI10Elf32_PhdrEEE9__destroyIS2_EEvNS_17integral_constantIbLb1EEERS3_PT_
00000000000dd9bc W _ZNSt6__ndk116allocator_traitsINS_9allocatorI10Elf32_PhdrEEE9constructIS2_JEEEvRS3_PT_DpOT0_
00000000000deff4 W _ZNSt6__ndk116allocator_traitsINS_9allocatorI10Elf32_PhdrEEE9constructIS2_JRKS2_EEEvRS3_PT_DpOT0_
00000000000df8e4 W _ZNSt6__ndk116allocator_traitsINS_9allocatorI10Elf32_PhdrEEE9constructIS2_JRS2_EEEvRS3_PT_DpOT0_
00000000000df9f4 W _ZNSt6__ndk116allocator_traitsINS_9allocatorI10Elf32_PhdrEEE9constructIS2_JS2_EEEvRS3_PT_DpOT0_
00000000000fad6c W _ZNSt6__ndk116allocator_traitsINS_9allocatorI10Elf32_ShdrEEE11__constructIS2_JRKS2_EEEvNS_17integral_constantIbLb1EEERS3_PT_DpOT0_
00000000000fb638 W _ZNSt6__ndk116allocator_traitsINS_9allocatorI10Elf32_ShdrEEE46__construct_backward_with_exception_guaranteesIS2_EENS_9enable_ifIXaaooL_ZNS_17integral_constantIbLb1EE5valueEEntsr15__has_constructIS3_PT_S9_EE5valuesr31is_trivially_move_constructibleIS9_EE5valueEvE4typeERS3_SA_SA_RSA_
00000000000fb9ec W _ZNSt6__ndk116allocator_traitsINS_9allocatorI10Elf32_ShdrEEE7destroyIS2_EEvRS3_PT_
00000000000fba1c W _ZNSt6__ndk116allocator_traitsINS_9allocatorI10Elf32_ShdrEEE9__destroyIS2_EEvNS_17integral_constantIbLb1EEERS3_PT_
00000000000facb8 W _ZNSt6__ndk116allocator_traitsINS_9allocatorI10Elf32_ShdrEEE9constructIS2_JRKS2_EEEvRS3_PT_DpOT0_
0000000000106168 W _ZNSt6__ndk116allocator_traitsINS_9allocatorI10Elf64_PhdrEEE11__constructIS2_JEEEvNS_17integral_constantIbLb1EEERS3_PT_DpOT0_
0000000000107888 W _ZNSt6__ndk116allocator_traitsINS_9allocatorI10Elf64_PhdrEEE11__constructIS2_JRKS2_EEEvNS_17integral_constantIbLb1EEERS3_PT_DpOT0_
000000000010819c W _ZNSt6__ndk116allocator_traitsINS_9allocatorI10Elf64_PhdrEEE11__constructIS2_JRS2_EEEvNS_17integral_constantIbLb1EEERS3_PT_DpOT0_
000000000010832c W _ZNSt6__ndk116allocator_traitsINS_9allocatorI10Elf64_PhdrEEE11__constructIS2_JS2_EEEvNS_17integral_constantIbLb1EEERS3_PT_DpOT0_
000000000010807c W _ZNSt6__ndk116allocator_traitsINS_9allocatorI10Elf64_PhdrEEE25__construct_range_forwardINS_11__wrap_iterIPS2_EES7_EEvRS3_T_SA_RT0_
0000000000108598 W _ZNSt6__ndk116allocator_traitsINS_9allocatorI10Elf64_PhdrEEE45__construct_forward_with_exception_guaranteesIS2_EENS_9enable_ifIXaaooL_ZNS_17integral_constantIbLb1EE5valueEEntsr15__has_constructIS3_PT_S9_EE5valuesr31is_trivially_move_constructibleIS9_EE5valueEvE4typeERS3_SA_SA_RSA_
0000000000106790 W _ZNSt6__ndk116allocator_traitsINS_9allocatorI10Elf64_PhdrEEE46__construct_backward_with_exception_guaranteesIS2_EENS_9enable_ifIXaaooL_ZNS_17integral_constantIbLb1EE5valueEEntsr15__has_constructIS3_PT_S9_EE5valuesr31is_trivially_move_constructibleIS9_EE5valueEvE4typeERS3_SA_SA_RSA_
0000000000106b44 W _ZNSt6__ndk116allocator_traitsINS_9allocatorI10Elf64_PhdrEEE7destroyIS2_EEvRS3_PT_
0000000000106b74 W _ZNSt6__ndk116allocator_traitsINS_9allocatorI10Elf64_PhdrEEE9__destroyIS2_EEvNS_17integral_constantIbLb1EEERS3_PT_
0000000000106104 W _ZNSt6__ndk116allocator_traitsINS_9allocatorI10Elf64_PhdrEEE9constructIS2_JEEEvRS3_PT_DpOT0_
000000000010781c W _ZNSt6__ndk116allocator_traitsINS_9allocatorI10Elf64_PhdrEEE9constructIS2_JRKS2_EEEvRS3_PT_DpOT0_
0000000000108144 W _ZNSt6__ndk116allocator_traitsINS_9allocatorI10Elf64_PhdrEEE9constructIS2_JRS2_EEEvRS3_PT_DpOT0_
000000000010825c W _ZNSt6__ndk116allocator_traitsINS_9allocatorI10Elf64_PhdrEEE9constructIS2_JS2_EEEvRS3_PT_DpOT0_
000000000011a9b8 W _ZNSt6__ndk116allocator_traitsINS_9allocatorI10Elf64_ShdrEEE11__constructIS2_JRKS2_EEEvNS_17integral_constantIbLb1EEERS3_PT_DpOT0_
000000000011b250 W _ZNSt6__ndk116allocator_traitsINS_9allocatorI10Elf64_ShdrEEE46__construct_backward_with_exception_guaranteesIS2_EENS_9enable_ifIXaaooL_ZNS_17integral_constantIbLb1EE5valueEEntsr15__has_constructIS3_PT_S9_EE5valuesr31is_trivially_move_constructibleIS9_EE5valueEvE4typeERS3_SA_SA_RSA_
000000000011b5e4 W _ZNSt6__ndk116allocator_traitsINS_9allocatorI10Elf64_ShdrEEE7destroyIS2_EEvRS3_PT_
000000000011b614 W _ZNSt6__ndk116allocator_traitsINS_9allocatorI10Elf64_ShdrEEE9__destroyIS2_EEvNS_17integral_constantIbLb1EEERS3_PT_
000000000011a904 W _ZNSt6__ndk116allocator_traitsINS_9allocatorI10Elf64_ShdrEEE9constructIS2_JRKS2_EEEvRS3_PT_DpOT0_
00000000000f8d88 W _ZNSt6__ndk116allocator_traitsINS_9allocatorI9Elf32_SymEEE25__construct_range_forwardIS2_S2_S2_S2_EENS_9enable_ifIXaaaasr31is_trivially_copy_constructibleIT0_EE5valuesr7is_sameIT1_T2_EE5valueooL_ZNS_17integral_constantIbLb1EE5valueEEntsr15__has_constructIS3_PS7_RT_EE5valueEvE4typeERS3_PSD_SI_RSC_
00000000000f8f34 W _ZNSt6__ndk116allocator_traitsINS_9allocatorI9Elf32_SymEEE7destroyIS2_EEvRS3_PT_
00000000000f8f64 W _ZNSt6__ndk116allocator_traitsINS_9allocatorI9Elf32_SymEEE9__destroyIS2_EEvNS_17integral_constantIbLb1EEERS3_PT_
0000000000119a44 W _ZNSt6__ndk116allocator_traitsINS_9allocatorI9Elf64_SymEEE25__construct_range_forwardIS2_S2_S2_S2_EENS_9enable_ifIXaaaasr31is_trivially_copy_constructibleIT0_EE5valuesr7is_sameIT1_T2_EE5valueooL_ZNS_17integral_constantIbLb1EE5valueEEntsr15__has_constructIS3_PS7_RT_EE5valueEvE4typeERS3_PSD_SI_RSC_
0000000000119bfc W _ZNSt6__ndk116allocator_traitsINS_9allocatorI9Elf64_SymEEE7destroyIS2_EEvRS3_PT_
0000000000119c2c W _ZNSt6__ndk116allocator_traitsINS_9allocatorI9Elf64_SymEEE9__destroyIS2_EEvNS_17integral_constantIbLb1EEERS3_PT_
00000000000cd364 W _ZNSt6__ndk116allocator_traitsINS_9allocatorINS_11__hash_nodeINS_12basic_stringIcNS_11char_traitsIcEENS1_IcEEEEPvEEEEE11__constructIS7_JRKS7_EEEvNS_17integral_constantIbLb1EEERSA_PT_DpOT0_
00000000000cdb84 W _ZNSt6__ndk116allocator_traitsINS_9allocatorINS_11__hash_nodeINS_12basic_stringIcNS_11char_traitsIcEENS1_IcEEEEPvEEEEE7destroyIS7_EEvRSA_PT_
00000000000cdbe8 W _ZNSt6__ndk116allocator_traitsINS_9allocatorINS_11__hash_nodeINS_12basic_stringIcNS_11char_traitsIcEENS1_IcEEEEPvEEEEE9__destroyIS7_EEvNS_17integral_constantIbLb0EEERSA_PT_
00000000000cd110 W _ZNSt6__ndk116allocator_traitsINS_9allocatorINS_11__hash_nodeINS_12basic_stringIcNS_11char_traitsIcEENS1_IcEEEEPvEEEEE9constructIS7_JRKS7_EEEvRSA_PT_DpOT0_
00000000000eee14 W _ZNSt6__ndk116allocator_traitsINS_9allocatorINS_11__hash_nodeINS_17__hash_value_typeINS_12basic_stringIcNS_11char_traitsIcEENS1_IcEEEEjEEPvEEEEE11__constructINS_4pairIKS8_jEEJRKNS_21piecewise_construct_tENS_5tupleIJRSG_EEENSL_IJEEEEEEvNS_17integral_constantIbLb1EEERSC_PT_DpOT0_
00000000000ef610 W _ZNSt6__ndk116allocator_traitsINS_9allocatorINS_11__hash_nodeINS_17__hash_value_typeINS_12basic_stringIcNS_11char_traitsIcEENS1_IcEEEEjEEPvEEEEE7destroyINS_4pairIKS8_jEEEEvRSC_PT_
00000000000ef674 W _ZNSt6__ndk116allocator_traitsINS_9allocatorINS_11__hash_nodeINS_17__hash_value_typeINS_12basic_stringIcNS_11char_traitsIcEENS1_IcEEEEjEEPvEEEEE9__destroyINS_4pairIKS8_jEEEEvNS_17integral_constantIbLb0EEERSC_PT_
00000000000eeb8c W _ZNSt6__ndk116allocator_traitsINS_9allocatorINS_11__hash_nodeINS_17__hash_value_typeINS_12basic_stringIcNS_11char_traitsIcEENS1_IcEEEEjEEPvEEEEE9constructINS_4pairIKS8_jEEJRKNS_21piecewise_construct_tENS_5tupleIJRSG_EEENSL_IJEEEEEEvRSC_PT_DpOT0_
0000000000114800 W _ZNSt6__ndk116allocator_traitsINS_9allocatorINS_11__hash_nodeINS_17__hash_value_typeINS_12basic_stringIcNS_11char_traitsIcEENS1_IcEEEEmEEPvEEEEE11__constructINS_4pairIKS8_mEEJRKNS_21piecewise_construct_tENS_5tupleIJRSG_EEENSL_IJEEEEEEvNS_17integral_constantIbLb1EEERSC_PT_DpOT0_
0000000000114ffc W _ZNSt6__ndk116allocator_traitsINS_9allocatorINS_11__hash_nodeINS_17__hash_value_typeINS_12basic_stringIcNS_11char_traitsIcEENS1_IcEEEEmEEPvEEEEE7destroyINS_4pairIKS8_mEEEEvRSC_PT_
0000000000115060 W _ZNSt6__ndk116allocator_traitsINS_9allocatorINS_11__hash_nodeINS_17__hash_value_typeINS_12basic_stringIcNS_11char_traitsIcEENS1_IcEEEEmEEPvEEEEE9__destroyINS_4pairIKS8_mEEEEvNS_17integral_constantIbLb0EEERSC_PT_
0000000000114578 W _ZNSt6__ndk116allocator_traitsINS_9allocatorINS_11__hash_nodeINS_17__hash_value_typeINS_12basic_stringIcNS_11char_traitsIcEENS1_IcEEEEmEEPvEEEEE9constructINS_4pairIKS8_mEEJRKNS_21piecewise_construct_tENS_5tupleIJRSG_EEENSL_IJEEEEEEvRSC_PT_DpOT0_
00000000000cb73c W _ZNSt6__ndk116allocator_traitsINS_9allocatorINS_11__hash_nodeINS_17__hash_value_typeINS_17basic_string_viewIcNS_11char_traitsIcEEEENS_12basic_stringIcS6_NS1_IcEEEEEEPvEEEEE11__constructINS_4pairIKS7_SA_EEJRKNS_21piecewise_construct_tENS_5tupleIJOS7_EEENSN_IJEEEEEEvNS_17integral_constantIbLb1EEERSE_PT_DpOT0_
00000000000cc214 W _ZNSt6__ndk116allocator_traitsINS_9allocatorINS_11__hash_nodeINS_17__hash_value_typeINS_17basic_string_viewIcNS_11char_traitsIcEEEENS_12basic_stringIcS6_NS1_IcEEEEEEPvEEEEE7destroyINS_4pairIKS7_SA_EEEEvRSE_PT_
00000000000cc278 W _ZNSt6__ndk116allocator_traitsINS_9allocatorINS_11__hash_nodeINS_17__hash_value_typeINS_17basic_string_viewIcNS_11char_traitsIcEEEENS_12basic_stringIcS6_NS1_IcEEEEEEPvEEEEE9__destroyINS_4pairIKS7_SA_EEEEvNS_17integral_constantIbLb0EEERSE_PT_
00000000000cb4ac W _ZNSt6__ndk116allocator_traitsINS_9allocatorINS_11__hash_nodeINS_17__hash_value_typeINS_17basic_string_viewIcNS_11char_traitsIcEEEENS_12basic_stringIcS6_NS1_IcEEEEEEPvEEEEE9constructINS_4pairIKS7_SA_EEJRKNS_21piecewise_construct_tENS_5tupleIJOS7_EEENSN_IJEEEEEEvRSE_PT_DpOT0_
00000000000c4974 W _ZNSt6__ndk116allocator_traitsINS_9allocatorINS_11__tree_nodeINS_12__value_typeINS_12basic_stringIcNS_11char_traitsIcEENS1_IcEEEES8_EEPvEEEEE11__constructINS_4pairIKS8_S8_EEJRKNS_21piecewise_construct_tENS_5tupleIJOS8_EEENSL_IJEEEEEEvNS_17integral_constantIbLb1EEERSC_PT_DpOT0_
00000000000d793c W _ZNSt6__ndk116allocator_traitsINS_9allocatorINS_11__tree_nodeINS_12__value_typeINS_12basic_stringIcNS_11char_traitsIcEENS1_IcEEEES8_EEPvEEEEE11__constructINS_4pairIKS8_S8_EEJRKNS_21piecewise_construct_tENS_5tupleIJRSG_EEENSL_IJEEEEEEvNS_17integral_constantIbLb1EEERSC_PT_DpOT0_
00000000000c4de4 W _ZNSt6__ndk116allocator_traitsINS_9allocatorINS_11__tree_nodeINS_12__value_typeINS_12basic_stringIcNS_11char_traitsIcEENS1_IcEEEES8_EEPvEEEEE7destroyINS_4pairIKS8_S8_EEEEvRSC_PT_
00000000000c4e48 W _ZNSt6__ndk116allocator_traitsINS_9allocatorINS_11__tree_nodeINS_12__value_typeINS_12basic_stringIcNS_11char_traitsIcEENS1_IcEEEES8_EEPvEEEEE9__destroyINS_4pairIKS8_S8_EEEEvNS_17integral_constantIbLb0EEERSC_PT_
00000000000c46c4 W _ZNSt6__ndk116allocator_traitsINS_9allocatorINS_11__tree_nodeINS_12__value_typeINS_12basic_stringIcNS_11char_traitsIcEENS1_IcEEEES8_EEPvEEEEE9constructINS_4pairIKS8_S8_EEJRKNS_21piecewise_construct_tENS_5tupleIJOS8_EEENSL_IJEEEEEEvRSC_PT_DpOT0_
00000000000d78b4 W _ZNSt6__ndk116allocator_traitsINS_9allocatorINS_11__tree_nodeINS_12__value_typeINS_12basic_stringIcNS_11char_traitsIcEENS1_IcEEEES8_EEPvEEEEE9constructINS_4pairIKS8_S8_EEJRKNS_21piecewise_construct_tENS_5tupleIJRSG_EEENSL_IJEEEEEEvRSC_PT_DpOT0_
00000000000c334c W _ZNSt6__ndk116allocator_traitsINS_9allocatorINS_11__tree_nodeINS_12basic_stringIcNS_11char_traitsIcEENS1_IcEEEEPvEEEEE11__constructIS7_JS7_EEEvNS_17integral_constantIbLb1EEERSA_PT_DpOT0_
00000000000c3b10 W _ZNSt6__ndk116allocator_traitsINS_9allocatorINS_11__tree_nodeINS_12basic_stringIcNS_11char_traitsIcEENS1_IcEEEEPvEEEEE7destroyIS7_EEvRSA_PT_
00000000000c3b74 W _ZNSt6__ndk116allocator_traitsINS_9allocatorINS_11__tree_nodeINS_12basic_stringIcNS_11char_traitsIcEENS1_IcEEEEPvEEEEE9__destroyIS7_EEvNS_17integral_constantIbLb0EEERSA_PT_
00000000000c30c8 W _ZNSt6__ndk116allocator_traitsINS_9allocatorINS_11__tree_nodeINS_12basic_stringIcNS_11char_traitsIcEENS1_IcEEEEPvEEEEE9constructIS7_JS7_EEEvRSA_PT_DpOT0_
00000000000e0f30 W _ZNSt6__ndk116allocator_traitsINS_9allocatorINS_11__tree_nodeIjPvEEEEE11__constructIjJRKjEEEvNS_17integral_constantIbLb1EEERS5_PT_DpOT0_
00000000000e11c8 W _ZNSt6__ndk116allocator_traitsINS_9allocatorINS_11__tree_nodeIjPvEEEEE7destroyIjEEvRS5_PT_
00000000000e122c W _ZNSt6__ndk116allocator_traitsINS_9allocatorINS_11__tree_nodeIjPvEEEEE9__destroyIjEEvNS_17integral_constantIbLb0EEERS5_PT_
00000000000e0cbc W _ZNSt6__ndk116allocator_traitsINS_9allocatorINS_11__tree_nodeIjPvEEEEE9constructIjJRKjEEEvRS5_PT_DpOT0_
00000000000f0b6c W _ZNSt6__ndk116allocator_traitsINS_9allocatorINS_11__tree_nodeImPvEEEEE11__constructImJmEEEvNS_17integral_constantIbLb1EEERS5_PT_DpOT0_
00000000000f0e04 W _ZNSt6__ndk116allocator_traitsINS_9allocatorINS_11__tree_nodeImPvEEEEE7destroyImEEvRS5_PT_
00000000000f0e68 W _ZNSt6__ndk116allocator_traitsINS_9allocatorINS_11__tree_nodeImPvEEEEE9__destroyImEEvNS_17integral_constantIbLb0EEERS5_PT_
00000000000f08f0 W _ZNSt6__ndk116allocator_traitsINS_9allocatorINS_11__tree_nodeImPvEEEEE9constructImJmEEEvRS5_PT_DpOT0_
00000000000fbe8c W _ZNSt6__ndk116allocator_traitsINS_9allocatorINS_12basic_stringIcNS_11char_traitsIcEENS1_IcEEEEEEE11__constructIS6_JEEEvNS_17integral_constantIbLb1EEERS7_PT_DpOT0_
00000000000c0cc0 W _ZNSt6__ndk116allocator_traitsINS_9allocatorINS_12basic_stringIcNS_11char_traitsIcEENS1_IcEEEEEEE11__constructIS6_JNS_17basic_string_viewIcS4_EEEEEvNS_17integral_constantIbLb1EEERS7_PT_DpOT0_
00000000000cdfb4 W _ZNSt6__ndk116allocator_traitsINS_9allocatorINS_12basic_stringIcNS_11char_traitsIcEENS1_IcEEEEEEE11__constructIS6_JRKS6_EEEvNS_17integral_constantIbLb1EEERS7_PT_DpOT0_
00000000000c2068 W _ZNSt6__ndk116allocator_traitsINS_9allocatorINS_12basic_stringIcNS_11char_traitsIcEENS1_IcEEEEEEE11__constructIS6_JRNS_17basic_string_viewIcS4_EEEEEvNS_17integral_constantIbLb1EEERS7_PT_DpOT0_
00000000000c19d0 W _ZNSt6__ndk116allocator_traitsINS_9allocatorINS_12basic_stringIcNS_11char_traitsIcEENS1_IcEEEEEEE11__constructIS6_JS6_EEEvNS_17integral_constantIbLb1EEERS7_PT_DpOT0_
00000000000c1720 W _ZNSt6__ndk116allocator_traitsINS_9allocatorINS_12basic_stringIcNS_11char_traitsIcEENS1_IcEEEEEEE46__construct_backward_with_exception_guaranteesIPS6_EEvRS7_T_SC_RSC_
00000000000c1bf8 W _ZNSt6__ndk116allocator_traitsINS_9allocatorINS_12basic_stringIcNS_11char_traitsIcEENS1_IcEEEEEEE7destroyIS6_EEvRS7_PT_
00000000000c1c28 W _ZNSt6__ndk116allocator_traitsINS_9allocatorINS_12basic_stringIcNS_11char_traitsIcEENS1_IcEEEEEEE9__destroyIS6_EEvNS_17integral_constantIbLb1EEERS7_PT_
00000000000fbe5c W _ZNSt6__ndk116allocator_traitsINS_9allocatorINS_12basic_stringIcNS_11char_traitsIcEENS1_IcEEEEEEE9constructIS6_JEEEvRS7_PT_DpOT0_
00000000000c0c0c W _ZNSt6__ndk116allocator_traitsINS_9allocatorINS_12basic_stringIcNS_11char_traitsIcEENS1_IcEEEEEEE9constructIS6_JNS_17basic_string_viewIcS4_EEEEEvRS7_PT_DpOT0_
00000000000cdf5c W _ZNSt6__ndk116allocator_traitsINS_9allocatorINS_12basic_stringIcNS_11char_traitsIcEENS1_IcEEEEEEE9constructIS6_JRKS6_EEEvRS7_PT_DpOT0_
00000000000c2010 W _ZNSt6__ndk116allocator_traitsINS_9allocatorINS_12basic_stringIcNS_11char_traitsIcEENS1_IcEEEEEEE9constructIS6_JRNS_17basic_string_viewIcS4_EEEEEvRS7_PT_DpOT0_
00000000000c1954 W _ZNSt6__ndk116allocator_traitsINS_9allocatorINS_12basic_stringIcNS_11char_traitsIcEENS1_IcEEEEEEE9constructIS6_JS6_EEEvRS7_PT_DpOT0_
00000000000f6840 W _ZNSt6__ndk116allocator_traitsINS_9allocatorIZN7ElfFileI10Elf32_Ehdr10Elf32_Phdr10Elf32_Shdrjj9Elf32_Dyn9Elf32_Symt12Elf32_Verdef13Elf32_Verdaux13Elf32_Verneed13Elf32_Vernaux9Elf32_Rel10Elf32_RelaLj32EE19rebuildGnuHashTableE4spanIcESF_IS7_EE5EntryEEE11__constructISI_JRKSI_EEEvNS_17integral_constantIbLb1EEERSJ_PT_DpOT0_
00000000000f6018 W _ZNSt6__ndk116allocator_traitsINS_9allocatorIZN7ElfFileI10Elf32_Ehdr10Elf32_Phdr10Elf32_Shdrjj9Elf32_Dyn9Elf32_Symt12Elf32_Verdef13Elf32_Verdaux13Elf32_Verneed13Elf32_Vernaux9Elf32_Rel10Elf32_RelaLj32EE19rebuildGnuHashTableE4spanIcESF_IS7_EE5EntryEEE46__construct_backward_with_exception_guaranteesISI_EENS_9enable_ifIXaaooL_ZNS_17integral_constantIbLb1EE5valueEEntsr15__has_constructISJ_PT_SP_EE5valuesr31is_trivially_move_constructibleISP_EE5valueEvE4typeERSJ_SQ_SQ_RSQ_
00000000000f642c W _ZNSt6__ndk116allocator_traitsINS_9allocatorIZN7ElfFileI10Elf32_Ehdr10Elf32_Phdr10Elf32_Shdrjj9Elf32_Dyn9Elf32_Symt12Elf32_Verdef13Elf32_Verdaux13Elf32_Verneed13Elf32_Vernaux9Elf32_Rel10Elf32_RelaLj32EE19rebuildGnuHashTableE4spanIcESF_IS7_EE5EntryEEE7destroyISI_EEvRSJ_PT_
00000000000f645c W _ZNSt6__ndk116allocator_traitsINS_9allocatorIZN7ElfFileI10Elf32_Ehdr10Elf32_Phdr10Elf32_Shdrjj9Elf32_Dyn9Elf32_Symt12Elf32_Verdef13Elf32_Verdaux13Elf32_Verneed13Elf32_Vernaux9Elf32_Rel10Elf32_RelaLj32EE19rebuildGnuHashTableE4spanIcESF_IS7_EE5EntryEEE9__destroyISI_EEvNS_17integral_constantIbLb1EEERSJ_PT_
00000000000f67b4 W _ZNSt6__ndk116allocator_traitsINS_9allocatorIZN7ElfFileI10Elf32_Ehdr10Elf32_Phdr10Elf32_Shdrjj9Elf32_Dyn9Elf32_Symt12Elf32_Verdef13Elf32_Verdaux13Elf32_Verneed13Elf32_Vernaux9Elf32_Rel10Elf32_RelaLj32EE19rebuildGnuHashTableE4spanIcESF_IS7_EE5EntryEEE9constructISI_JRKSI_EEEvRSJ_PT_DpOT0_
0000000000117ed0 W _ZNSt6__ndk116allocator_traitsINS_9allocatorIZN7ElfFileI10Elf64_Ehdr10Elf64_Phdr10Elf64_Shdrmm9Elf64_Dyn9Elf64_Symt12Elf64_Verdef13Elf64_Verdaux13Elf64_Verneed13Elf64_Vernaux9Elf64_Rel10Elf64_RelaLj64EE19rebuildGnuHashTableE4spanIcESF_IS7_EE5EntryEEE11__constructISI_JRKSI_EEEvNS_17integral_constantIbLb1EEERSJ_PT_DpOT0_
00000000001176e4 W _ZNSt6__ndk116allocator_traitsINS_9allocatorIZN7ElfFileI10Elf64_Ehdr10Elf64_Phdr10Elf64_Shdrmm9Elf64_Dyn9Elf64_Symt12Elf64_Verdef13Elf64_Verdaux13Elf64_Verneed13Elf64_Vernaux9Elf64_Rel10Elf64_RelaLj64EE19rebuildGnuHashTableE4spanIcESF_IS7_EE5EntryEEE46__construct_backward_with_exception_guaranteesISI_EENS_9enable_ifIXaaooL_ZNS_17integral_constantIbLb1EE5valueEEntsr15__has_constructISJ_PT_SP_EE5valuesr31is_trivially_move_constructibleISP_EE5valueEvE4typeERSJ_SQ_SQ_RSQ_
0000000000117af8 W _ZNSt6__ndk116allocator_traitsINS_9allocatorIZN7ElfFileI10Elf64_Ehdr10Elf64_Phdr10Elf64_Shdrmm9Elf64_Dyn9Elf64_Symt12Elf64_Verdef13Elf64_Verdaux13Elf64_Verneed13Elf64_Vernaux9Elf64_Rel10Elf64_RelaLj64EE19rebuildGnuHashTableE4spanIcESF_IS7_EE5EntryEEE7destroyISI_EEvRSJ_PT_
0000000000117b28 W _ZNSt6__ndk116allocator_traitsINS_9allocatorIZN7ElfFileI10Elf64_Ehdr10Elf64_Phdr10Elf64_Shdrmm9Elf64_Dyn9Elf64_Symt12Elf64_Verdef13Elf64_Verdaux13Elf64_Verneed13Elf64_Vernaux9Elf64_Rel10Elf64_RelaLj64EE19rebuildGnuHashTableE4spanIcESF_IS7_EE5EntryEEE9__destroyISI_EEvNS_17integral_constantIbLb1EEERSJ_PT_
0000000000117e44 W _ZNSt6__ndk116allocator_traitsINS_9allocatorIZN7ElfFileI10Elf64_Ehdr10Elf64_Phdr10Elf64_Shdrmm9Elf64_Dyn9Elf64_Symt12Elf64_Verdef13Elf64_Verdaux13Elf64_Verneed13Elf64_Vernaux9Elf64_Rel10Elf64_RelaLj64EE19rebuildGnuHashTableE4spanIcESF_IS7_EE5EntryEEE9constructISI_JRKSI_EEEvRSJ_PT_DpOT0_
00000000000f4198 W _ZNSt6__ndk116allocator_traitsINS_9allocatorIcEEE11__constructIcJRKcEEEvNS_17integral_constantIbLb1EEERS2_PT_DpOT0_
00000000000f4318 W _ZNSt6__ndk116allocator_traitsINS_9allocatorIcEEE11__constructIcJcEEEvNS_17integral_constantIbLb1EEERS2_PT_DpOT0_
00000000000f3fa0 W _ZNSt6__ndk116allocator_traitsINS_9allocatorIcEEE25__construct_range_forwardINS_11__wrap_iterIPKcEEPcEEvRS2_T_SB_RT0_
00000000000f45a8 W _ZNSt6__ndk116allocator_traitsINS_9allocatorIcEEE45__construct_forward_with_exception_guaranteesIcEENS_9enable_ifIXaaooL_ZNS_17integral_constantIbLb1EE5valueEEntsr15__has_constructIS2_PT_S8_EE5valuesr31is_trivially_move_constructibleIS8_EE5valueEvE4typeERS2_S9_S9_RS9_
00000000000f2e38 W _ZNSt6__ndk116allocator_traitsINS_9allocatorIcEEE46__construct_backward_with_exception_guaranteesIcEENS_9enable_ifIXaaooL_ZNS_17integral_constantIbLb1EE5valueEEntsr15__has_constructIS2_PT_S8_EE5valuesr31is_trivially_move_constructibleIS8_EE5valueEvE4typeERS2_S9_S9_RS9_
00000000000f31d0 W _ZNSt6__ndk116allocator_traitsINS_9allocatorIcEEE7destroyIcEEvRS2_PT_
00000000000f3200 W _ZNSt6__ndk116allocator_traitsINS_9allocatorIcEEE9__destroyIcEEvNS_17integral_constantIbLb1EEERS2_PT_
00000000000f40bc W _ZNSt6__ndk116allocator_traitsINS_9allocatorIcEEE9constructIcJRKcEEEvRS2_PT_DpOT0_
00000000000f4248 W _ZNSt6__ndk116allocator_traitsINS_9allocatorIcEEE9constructIcJcEEEvRS2_PT_DpOT0_
00000000000bfb30 W _ZNSt6__ndk116allocator_traitsINS_9allocatorIhEEE11__constructIhJEEEvNS_17integral_constantIbLb1EEERS2_PT_DpOT0_
00000000000dcca4 W _ZNSt6__ndk116allocator_traitsINS_9allocatorIhEEE11__constructIhJRKhEEEvNS_17integral_constantIbLb1EEERS2_PT_DpOT0_
00000000000dcf2c W _ZNSt6__ndk116allocator_traitsINS_9allocatorIhEEE46__construct_backward_with_exception_guaranteesIhEENS_9enable_ifIXaaooL_ZNS_17integral_constantIbLb1EE5valueEEntsr15__has_constructIS2_PT_S8_EE5valuesr31is_trivially_move_constructibleIS8_EE5valueEvE4typeERS2_S9_S9_RS9_
00000000000bfc6c W _ZNSt6__ndk116allocator_traitsINS_9allocatorIhEEE7destroyIhEEvRS2_PT_
00000000000bfc9c W _ZNSt6__ndk116allocator_traitsINS_9allocatorIhEEE9__destroyIhEEvNS_17integral_constantIbLb1EEERS2_PT_
00000000000bfae0 W _ZNSt6__ndk116allocator_traitsINS_9allocatorIhEEE9constructIhJEEEvRS2_PT_DpOT0_
00000000000dcc4c W _ZNSt6__ndk116allocator_traitsINS_9allocatorIhEEE9constructIhJRKhEEEvRS2_PT_DpOT0_
00000000000f8274 W _ZNSt6__ndk116allocator_traitsINS_9allocatorIjEEE11__constructIjJEEEvNS_17integral_constantIbLb1EEERS2_PT_DpOT0_
00000000000f83ac W _ZNSt6__ndk116allocator_traitsINS_9allocatorIjEEE7destroyIjEEvRS2_PT_
00000000000f83dc W _ZNSt6__ndk116allocator_traitsINS_9allocatorIjEEE9__destroyIjEEvNS_17integral_constantIbLb1EEERS2_PT_
00000000000f8224 W _ZNSt6__ndk116allocator_traitsINS_9allocatorIjEEE9constructIjJEEEvRS2_PT_DpOT0_
00000000000f99d8 W _ZNSt6__ndk116allocator_traitsINS_9allocatorItEEE25__construct_range_forwardIttttEENS_9enable_ifIXaaaasr31is_trivially_copy_constructibleIT0_EE5valuesr7is_sameIT1_T2_EE5valueooL_ZNS_17integral_constantIbLb1EE5valueEEntsr15__has_constructIS2_PS6_RT_EE5valueEvE4typeERS2_PSC_SH_RSB_
00000000000f9b84 W _ZNSt6__ndk116allocator_traitsINS_9allocatorItEEE7destroyItEEvRS2_PT_
00000000000f9bb4 W _ZNSt6__ndk116allocator_traitsINS_9allocatorItEEE9__destroyItEEvNS_17integral_constantIbLb1EEERS2_PT_
0000000000160764 T _ZNSt6__ndk116generic_categoryEv
00000000000bfddc W _ZNSt6__ndk117_DeallocateCaller27__do_deallocate_handle_sizeEPvm
00000000000bfdac W _ZNSt6__ndk117_DeallocateCaller27__do_deallocate_handle_sizeEPvmSt11align_val_t
00000000000bfe30 W _ZNSt6__ndk117_DeallocateCaller9__do_callEPv
00000000000bfe04 W _ZNSt6__ndk117_DeallocateCaller9__do_callISt11align_val_tEEvPvT_
0000000000162040 T _ZNSt6__ndk117__assoc_sub_state10__sub_waitERNS_11unique_lockINS_5mutexEEE
0000000000161eec T _ZNSt6__ndk117__assoc_sub_state12__make_readyEv
0000000000161d64 T _ZNSt6__ndk117__assoc_sub_state13set_exceptionESt13exception_ptr
0000000000161b28 T _ZNSt6__ndk117__assoc_sub_state16__on_zero_sharedEv
0000000000161cac T _ZNSt6__ndk117__assoc_sub_state24set_value_at_thread_exitEv
0000000000161e28 T _ZNSt6__ndk117__assoc_sub_state28set_exception_at_thread_exitESt13exception_ptr
0000000000161f2c T _ZNSt6__ndk117__assoc_sub_state4copyEv
00000000001620d4 T _ZNSt6__ndk117__assoc_sub_state4waitEv
00000000001621b0 T _ZNSt6__ndk117__assoc_sub_state9__executeEv
0000000000161b3c T _ZNSt6__ndk117__assoc_sub_state9set_valueEv
0000000000162770 W _ZNSt6__ndk117__assoc_sub_stateD0Ev
0000000000162724 W _ZNSt6__ndk117__assoc_sub_stateD2Ev
00000000000bd29c W _ZNSt6__ndk117__compressed_pairINS_12basic_stringIcNS_11char_traitsIcEENS_9allocatorIcEEE5__repES5_EC2INS_18__default_init_tagERKS5_EEOT_OT0_
00000000000baf00 W _ZNSt6__ndk117__compressed_pairINS_12basic_stringIcNS_11char_traitsIcEENS_9allocatorIcEEE5__repES5_EC2INS_18__default_init_tagESA_EEOT_OT0_
000000000011bcf0 W _ZNSt6__ndk117__compressed_pairINS_15__tree_end_nodeIPNS_16__tree_node_baseIPvEEEENS_9allocatorINS_11__tree_nodeINS_12__value_typeINS_12basic_stringIcNS_11char_traitsIcEENS7_IcEEEESE_EES3_EEEEEC2ILb1EvEEv
000000000011ba40 W _ZNSt6__ndk117__compressed_pairINS_15__tree_end_nodeIPNS_16__tree_node_baseIPvEEEENS_9allocatorINS_11__tree_nodeINS_12basic_stringIcNS_11char_traitsIcEENS7_IcEEEES3_EEEEEC2ILb1EvEEv
00000000000e0074 W _ZNSt6__ndk117__compressed_pairINS_15__tree_end_nodeIPNS_16__tree_node_baseIPvEEEENS_9allocatorINS_11__tree_nodeIjS3_EEEEEC2ILb1EvEEv
00000000000efe50 W _ZNSt6__ndk117__compressed_pairINS_15__tree_end_nodeIPNS_16__tree_node_baseIPvEEEENS_9allocatorINS_11__tree_nodeImS3_EEEEEC2ILb1EvEEv
000000000011c5e8 W _ZNSt6__ndk117__compressed_pairINS_16__hash_node_baseIPNS_11__hash_nodeINS_12basic_stringIcNS_11char_traitsIcEENS_9allocatorIcEEEEPvEEEENS6_ISA_EEEC2ILb1EvEEv
00000000000ecea0 W _ZNSt6__ndk117__compressed_pairINS_16__hash_node_baseIPNS_11__hash_nodeINS_17__hash_value_typeINS_12basic_stringIcNS_11char_traitsIcEENS_9allocatorIcEEEEjEEPvEEEENS7_ISC_EEEC2ILb1EvEEv
0000000000112cec W _ZNSt6__ndk117__compressed_pairINS_16__hash_node_baseIPNS_11__hash_nodeINS_17__hash_value_typeINS_12basic_stringIcNS_11char_traitsIcEENS_9allocatorIcEEEEmEEPvEEEENS7_ISC_EEEC2ILb1EvEEv
000000000011bf7c W _ZNSt6__ndk117__compressed_pairINS_16__hash_node_baseIPNS_11__hash_nodeINS_17__hash_value_typeINS_17basic_string_viewIcNS_11char_traitsIcEEEENS_12basic_stringIcS6_NS_9allocatorIcEEEEEEPvEEEENS9_ISE_EEEC2ILb1EvEEv
00000000000bed0c W _ZNSt6__ndk117__compressed_pairINS_9allocatorINS_6vectorIhNS1_IhEEEEEES4_EC2IJRS5_EJRmEEENS_21piecewise_construct_tENS_5tupleIJDpT_EEENSB_IJDpT0_EEE
00000000000bfe54 W _ZNSt6__ndk117__compressed_pairINS_9allocatorINS_6vectorIhNS1_IhEEEEEES4_ED2Ev
00000000000e26b8 W _ZNSt6__ndk117__compressed_pairIP10Elf32_PhdrNS_25__return_temporary_bufferEEC2IS2_NS_18__default_init_tagEEEOT_OT0_
00000000000decc4 W _ZNSt6__ndk117__compressed_pairIP10Elf32_PhdrNS_9allocatorIS1_EEEC2IDnNS_18__default_init_tagEEEOT_OT0_
00000000000e3694 W _ZNSt6__ndk117__compressed_pairIP10Elf32_PhdrRNS_12__destruct_nEEC2IRS2_S4_EEOT_OT0_
00000000000ddcc4 W _ZNSt6__ndk117__compressed_pairIP10Elf32_PhdrRNS_9allocatorIS1_EEEC2IDnS5_EEOT_OT0_
00000000000e601c W _ZNSt6__ndk117__compressed_pairIP10Elf32_ShdrNS_25__return_temporary_bufferEEC2IS2_NS_18__default_init_tagEEEOT_OT0_
00000000000fa954 W _ZNSt6__ndk117__compressed_pairIP10Elf32_ShdrNS_9allocatorIS1_EEEC2IDnNS_18__default_init_tagEEEOT_OT0_
00000000000e6ef4 W _ZNSt6__ndk117__compressed_pairIP10Elf32_ShdrRNS_12__destruct_nEEC2IRS2_S4_EEOT_OT0_
00000000000fb378 W _ZNSt6__ndk117__compressed_pairIP10Elf32_ShdrRNS_9allocatorIS1_EEEC2IDnS5_EEOT_OT0_
00000000001098c8 W _ZNSt6__ndk117__compressed_pairIP10Elf64_PhdrNS_25__return_temporary_bufferEEC2IS2_NS_18__default_init_tagEEEOT_OT0_
00000000001074fc W _ZNSt6__ndk117__compressed_pairIP10Elf64_PhdrNS_9allocatorIS1_EEEC2IDnNS_18__default_init_tagEEEOT_OT0_
000000000010a8c4 W _ZNSt6__ndk117__compressed_pairIP10Elf64_PhdrRNS_12__destruct_nEEC2IRS2_S4_EEOT_OT0_
0000000000106424 W _ZNSt6__ndk117__compressed_pairIP10Elf64_PhdrRNS_9allocatorIS1_EEEC2IDnS5_EEOT_OT0_
000000000010d2bc W _ZNSt6__ndk117__compressed_pairIP10Elf64_ShdrNS_25__return_temporary_bufferEEC2IS2_NS_18__default_init_tagEEEOT_OT0_
000000000011a5a8 W _ZNSt6__ndk117__compressed_pairIP10Elf64_ShdrNS_9allocatorIS1_EEEC2IDnNS_18__default_init_tagEEEOT_OT0_
000000000010e204 W _ZNSt6__ndk117__compressed_pairIP10Elf64_ShdrRNS_12__destruct_nEEC2IRS2_S4_EEOT_OT0_
000000000011afb4 W _ZNSt6__ndk117__compressed_pairIP10Elf64_ShdrRNS_9allocatorIS1_EEEC2IDnS5_EEOT_OT0_
00000000000c7618 W _ZNSt6__ndk117__compressed_pairIP7__sFILEPFiS2_EEC2IRS2_S4_EEOT_OT0_
00000000000f87fc W _ZNSt6__ndk117__compressed_pairIP9Elf32_SymNS_9allocatorIS1_EEEC2IDnNS_18__default_init_tagEEEOT_OT0_
0000000000119488 W _ZNSt6__ndk117__compressed_pairIP9Elf64_SymNS_9allocatorIS1_EEEC2IDnNS_18__default_init_tagEEEOT_OT0_
00000000000cd250 W _ZNSt6__ndk117__compressed_pairIPNS_11__hash_nodeINS_12basic_stringIcNS_11char_traitsIcEENS_9allocatorIcEEEEPvEENS_22__hash_node_destructorINS5_IS9_EEEEEC2IRSA_SD_EEOT_OT0_
00000000000eed00 W _ZNSt6__ndk117__compressed_pairIPNS_11__hash_nodeINS_17__hash_value_typeINS_12basic_stringIcNS_11char_traitsIcEENS_9allocatorIcEEEEjEEPvEENS_22__hash_node_destructorINS6_ISB_EEEEEC2IRSC_SF_EEOT_OT0_
00000000001146ec W _ZNSt6__ndk117__compressed_pairIPNS_11__hash_nodeINS_17__hash_value_typeINS_12basic_stringIcNS_11char_traitsIcEENS_9allocatorIcEEEEmEEPvEENS_22__hash_node_destructorINS6_ISB_EEEEEC2IRSC_SF_EEOT_OT0_
00000000000cb628 W _ZNSt6__ndk117__compressed_pairIPNS_11__hash_nodeINS_17__hash_value_typeINS_17basic_string_viewIcNS_11char_traitsIcEEEENS_12basic_stringIcS5_NS_9allocatorIcEEEEEEPvEENS_22__hash_node_destructorINS8_ISD_EEEEEC2IRSE_SH_EEOT_OT0_
00000000000c4860 W _ZNSt6__ndk117__compressed_pairIPNS_11__tree_nodeINS_12__value_typeINS_12basic_stringIcNS_11char_traitsIcEENS_9allocatorIcEEEES8_EEPvEENS_22__tree_node_destructorINS6_ISB_EEEEEC2IRSC_SF_EEOT_OT0_
00000000000c3238 W _ZNSt6__ndk117__compressed_pairIPNS_11__tree_nodeINS_12basic_stringIcNS_11char_traitsIcEENS_9allocatorIcEEEEPvEENS_22__tree_node_destructorINS5_IS9_EEEEEC2IRSA_SD_EEOT_OT0_
00000000000e0e1c W _ZNSt6__ndk117__compressed_pairIPNS_11__tree_nodeIjPvEENS_22__tree_node_destructorINS_9allocatorIS3_EEEEEC2IRS4_S8_EEOT_OT0_
00000000000f0a58 W _ZNSt6__ndk117__compressed_pairIPNS_11__tree_nodeImPvEENS_22__tree_node_destructorINS_9allocatorIS3_EEEEEC2IRS4_S8_EEOT_OT0_
000000000011b894 W _ZNSt6__ndk117__compressed_pairIPNS_12basic_stringIcNS_11char_traitsIcEENS_9allocatorIcEEEENS4_IS6_EEEC2IDnNS_18__default_init_tagEEEOT_OT0_
00000000000c1428 W _ZNSt6__ndk117__compressed_pairIPNS_12basic_stringIcNS_11char_traitsIcEENS_9allocatorIcEEEERNS4_IS6_EEEC2IDnS9_EEOT_OT0_
00000000000bea88 W _ZNSt6__ndk117__compressed_pairIPNS_20__shared_ptr_emplaceINS_6vectorIhNS_9allocatorIhEEEENS3_IS5_EEEENS_22__allocator_destructorINS3_IS7_EEEEEC2IRS8_SB_EEOT_OT0_
000000000011c710 W _ZNSt6__ndk117__compressed_pairIPPNS_16__hash_node_baseIPNS_11__hash_nodeINS_12basic_stringIcNS_11char_traitsIcEENS_9allocatorIcEEEEPvEEEENS_25__bucket_list_deallocatorINS6_ISD_EEEEEC2ISE_NS_18__default_init_tagEEEOT_OT0_
00000000000ecfc8 W _ZNSt6__ndk117__compressed_pairIPPNS_16__hash_node_baseIPNS_11__hash_nodeINS_17__hash_value_typeINS_12basic_stringIcNS_11char_traitsIcEENS_9allocatorIcEEEEjEEPvEEEENS_25__bucket_list_deallocatorINS7_ISF_EEEEEC2ISG_NS_18__default_init_tagEEEOT_OT0_
0000000000112e14 W _ZNSt6__ndk117__compressed_pairIPPNS_16__hash_node_baseIPNS_11__hash_nodeINS_17__hash_value_typeINS_12basic_stringIcNS_11char_traitsIcEENS_9allocatorIcEEEEmEEPvEEEENS_25__bucket_list_deallocatorINS7_ISF_EEEEEC2ISG_NS_18__default_init_tagEEEOT_OT0_
000000000011c0a4 W _ZNSt6__ndk117__compressed_pairIPPNS_16__hash_node_baseIPNS_11__hash_nodeINS_17__hash_value_typeINS_17basic_string_viewIcNS_11char_traitsIcEEEENS_12basic_stringIcS6_NS_9allocatorIcEEEEEEPvEEEENS_25__bucket_list_deallocatorINS9_ISH_EEEEEC2ISI_NS_18__default_init_tagEEEOT_OT0_
00000000000f5914 W _ZNSt6__ndk117__compressed_pairIPZN7ElfFileI10Elf32_Ehdr10Elf32_Phdr10Elf32_Shdrjj9Elf32_Dyn9Elf32_Symt12Elf32_Verdef13Elf32_Verdaux13Elf32_Verneed13Elf32_Vernaux9Elf32_Rel10Elf32_RelaLj32EE19rebuildGnuHashTableE4spanIcESE_IS6_EE5EntryNS_9allocatorISH_EEEC2IDnNS_18__default_init_tagEEEOT_OT0_
00000000000f5d44 W _ZNSt6__ndk117__compressed_pairIPZN7ElfFileI10Elf32_Ehdr10Elf32_Phdr10Elf32_Shdrjj9Elf32_Dyn9Elf32_Symt12Elf32_Verdef13Elf32_Verdaux13Elf32_Verneed13Elf32_Vernaux9Elf32_Rel10Elf32_RelaLj32EE19rebuildGnuHashTableE4spanIcESE_IS6_EE5EntryRNS_9allocatorISH_EEEC2IDnSL_EEOT_OT0_
0000000000116fe0 W _ZNSt6__ndk117__compressed_pairIPZN7ElfFileI10Elf64_Ehdr10Elf64_Phdr10Elf64_Shdrmm9Elf64_Dyn9Elf64_Symt12Elf64_Verdef13Elf64_Verdaux13Elf64_Verneed13Elf64_Vernaux9Elf64_Rel10Elf64_RelaLj64EE19rebuildGnuHashTableE4spanIcESE_IS6_EE5EntryNS_9allocatorISH_EEEC2IDnNS_18__default_init_tagEEEOT_OT0_
0000000000117410 W _ZNSt6__ndk117__compressed_pairIPZN7ElfFileI10Elf64_Ehdr10Elf64_Phdr10Elf64_Shdrmm9Elf64_Dyn9Elf64_Symt12Elf64_Verdef13Elf64_Verdaux13Elf64_Verneed13Elf64_Vernaux9Elf64_Rel10Elf64_RelaLj64EE19rebuildGnuHashTableE4spanIcESE_IS6_EE5EntryRNS_9allocatorISH_EEEC2IDnSL_EEOT_OT0_
00000000000f2830 W _ZNSt6__ndk117__compressed_pairIPcNS_9allocatorIcEEEC2IDnNS_18__default_init_tagEEEOT_OT0_
00000000000f2c00 W _ZNSt6__ndk117__compressed_pairIPcRNS_9allocatorIcEEEC2IDnS4_EEOT_OT0_
00000000000bf55c W _ZNSt6__ndk117__compressed_pairIPhNS_9allocatorIhEEEC2IDnNS_18__default_init_tagEEEOT_OT0_
00000000000dcd54 W _ZNSt6__ndk117__compressed_pairIPhRNS_9allocatorIhEEEC2IDnS4_EEOT_OT0_
00000000000f7cc4 W _ZNSt6__ndk117__compressed_pairIPjNS_9allocatorIjEEEC2IDnNS_18__default_init_tagEEEOT_OT0_
00000000000f944c W _ZNSt6__ndk117__compressed_pairIPtNS_9allocatorItEEEC2IDnNS_18__default_init_tagEEEOT_OT0_
00000000000ecf3c W _ZNSt6__ndk117__compressed_pairIfNS_21__unordered_map_equalINS_12basic_stringIcNS_11char_traitsIcEENS_9allocatorIcEEEENS_17__hash_value_typeIS7_jEENS_8equal_toIS7_EELb1EEEEC2IfNS_18__default_init_tagEEEOT_OT0_
0000000000112d88 W _ZNSt6__ndk117__compressed_pairIfNS_21__unordered_map_equalINS_12basic_stringIcNS_11char_traitsIcEENS_9allocatorIcEEEENS_17__hash_value_typeIS7_mEENS_8equal_toIS7_EELb1EEEEC2IfNS_18__default_init_tagEEEOT_OT0_
000000000011c018 W _ZNSt6__ndk117__compressed_pairIfNS_21__unordered_map_equalINS_17basic_string_viewIcNS_11char_traitsIcEEEENS_17__hash_value_typeIS5_NS_12basic_stringIcS4_NS_9allocatorIcEEEEEENS_8equal_toIS5_EELb1EEEEC2IfNS_18__default_init_tagEEEOT_OT0_
000000000011c684 W _ZNSt6__ndk117__compressed_pairIfNS_8equal_toINS_12basic_stringIcNS_11char_traitsIcEENS_9allocatorIcEEEEEEEC2IfNS_18__default_init_tagEEEOT_OT0_
000000000011bd2c W _ZNSt6__ndk117__compressed_pairImNS_19__map_value_compareINS_12basic_stringIcNS_11char_traitsIcEENS_9allocatorIcEEEENS_12__value_typeIS7_S7_EENS_4lessIS7_EELb1EEEEC2IiRKSC_EEOT_OT0_
00000000000ecedc W _ZNSt6__ndk117__compressed_pairImNS_22__unordered_map_hasherINS_12basic_stringIcNS_11char_traitsIcEENS_9allocatorIcEEEENS_17__hash_value_typeIS7_jEENS_4hashIS7_EELb1EEEEC2IiNS_18__default_init_tagEEEOT_OT0_
0000000000112d28 W _ZNSt6__ndk117__compressed_pairImNS_22__unordered_map_hasherINS_12basic_stringIcNS_11char_traitsIcEENS_9allocatorIcEEEENS_17__hash_value_typeIS7_mEENS_4hashIS7_EELb1EEEEC2IiNS_18__default_init_tagEEEOT_OT0_
000000000011bfb8 W _ZNSt6__ndk117__compressed_pairImNS_22__unordered_map_hasherINS_17basic_string_viewIcNS_11char_traitsIcEEEENS_17__hash_value_typeIS5_NS_12basic_stringIcS4_NS_9allocatorIcEEEEEENS_4hashIS5_EELb1EEEEC2IiNS_18__default_init_tagEEEOT_OT0_
000000000011c624 W _ZNSt6__ndk117__compressed_pairImNS_4hashINS_12basic_stringIcNS_11char_traitsIcEENS_9allocatorIcEEEEEEEC2IiNS_18__default_init_tagEEEOT_OT0_
000000000011ba7c W _ZNSt6__ndk117__compressed_pairImNS_4lessINS_12basic_stringIcNS_11char_traitsIcEENS_9allocatorIcEEEEEEEC2IiRKS8_EEOT_OT0_
00000000000e00b0 W _ZNSt6__ndk117__compressed_pairImNS_4lessIjEEEC2IiRKS2_EEOT_OT0_
00000000000efe8c W _ZNSt6__ndk117__compressed_pairImNS_4lessImEEEC2IiRKS2_EEOT_OT0_
000000000011c860 W _ZNSt6__ndk117__compressed_pairImNS_9allocatorIPNS_16__hash_node_baseIPNS_11__hash_nodeINS_12basic_stringIcNS_11char_traitsIcEENS1_IcEEEEPvEEEEEEEC2IiNS_18__default_init_tagEEEOT_OT0_
00000000000ed118 W _ZNSt6__ndk117__compressed_pairImNS_9allocatorIPNS_16__hash_node_baseIPNS_11__hash_nodeINS_17__hash_value_typeINS_12basic_stringIcNS_11char_traitsIcEENS1_IcEEEEjEEPvEEEEEEEC2IiNS_18__default_init_tagEEEOT_OT0_
0000000000112f64 W _ZNSt6__ndk117__compressed_pairImNS_9allocatorIPNS_16__hash_node_baseIPNS_11__hash_nodeINS_17__hash_value_typeINS_12basic_stringIcNS_11char_traitsIcEENS1_IcEEEEmEEPvEEEEEEEC2IiNS_18__default_init_tagEEEOT_OT0_
000000000011c1f4 W _ZNSt6__ndk117__compressed_pairImNS_9allocatorIPNS_16__hash_node_baseIPNS_11__hash_nodeINS_17__hash_value_typeINS_17basic_string_viewIcNS_11char_traitsIcEEEENS_12basic_stringIcS7_NS1_IcEEEEEEPvEEEEEEEC2IiNS_18__default_init_tagEEEOT_OT0_
00000000000eacf8 W _ZNSt6__ndk117__compressed_pairImNS_9allocatorImEEEC2IiNS_18__default_init_tagEEEOT_OT0_
000000000012d420 W _ZNSt6__ndk117__libcpp_sscanf_lEPKcP10__locale_tS1_z
000000000014cff4 T _ZNSt6__ndk117__widen_from_utf8ILm16EED0Ev
000000000015539c T _ZNSt6__ndk117__widen_from_utf8ILm16EED1Ev
000000000015539c T _ZNSt6__ndk117__widen_from_utf8ILm16EED2Ev
000000000014d018 T _ZNSt6__ndk117__widen_from_utf8ILm32EED0Ev
000000000015539c T _ZNSt6__ndk117__widen_from_utf8ILm32EED1Ev
000000000015539c T _ZNSt6__ndk117__widen_from_utf8ILm32EED2Ev
0000000000157774 T _ZNSt6__ndk117declare_reachableEPv
0000000000129784 T _ZNSt6__ndk117iostream_categoryEv
0000000000152968 T _ZNSt6__ndk117moneypunct_bynameIcLb0EE4initEPKc
00000000001532f8 T _ZNSt6__ndk117moneypunct_bynameIcLb1EE4initEPKc
0000000000153774 T _ZNSt6__ndk117moneypunct_bynameIwLb0EE4initEPKc
00000000001544fc T _ZNSt6__ndk117moneypunct_bynameIwLb1EE4initEPKc
00000000000f7514 W _ZNSt6__ndk118__insertion_sort_3IRZN7ElfFileI10Elf32_Ehdr10Elf32_Phdr10Elf32_Shdrjj9Elf32_Dyn9Elf32_Symt12Elf32_Verdef13Elf32_Verdaux13Elf32_Verneed13Elf32_Vernaux9Elf32_Rel10Elf32_RelaLj32EE19rebuildGnuHashTableE4spanIcESE_IS6_EEUlRT_RT0_E_PZNSD_19rebuildGnuHashTableESF_SG_E5EntryEEvSJ_SJ_SH_
0000000000118ba4 W _ZNSt6__ndk118__insertion_sort_3IRZN7ElfFileI10Elf64_Ehdr10Elf64_Phdr10Elf64_Shdrmm9Elf64_Dyn9Elf64_Symt12Elf64_Verdef13Elf64_Verdaux13Elf64_Verneed13Elf64_Vernaux9Elf64_Rel10Elf64_RelaLj64EE19rebuildGnuHashTableE4spanIcESE_IS6_EEUlRT_RT0_E_PZNSD_19rebuildGnuHashTableESF_SG_E5EntryEEvSJ_SJ_SH_
00000000000e2cdc W _ZNSt6__ndk118__stable_sort_moveIRN7ElfFileI10Elf32_Ehdr10Elf32_Phdr10Elf32_Shdrjj9Elf32_Dyn9Elf32_Symt12Elf32_Verdef13Elf32_Verdaux13Elf32_Verneed13Elf32_Vernaux9Elf32_Rel10Elf32_RelaLj32EE8CompPhdrENS_11__wrap_iterIPS3_EEEEvT0_SJ_T_NS_15iterator_traitsISJ_E15difference_typeEPNSM_10value_typeE
00000000000e64d8 W _ZNSt6__ndk118__stable_sort_moveIRN7ElfFileI10Elf32_Ehdr10Elf32_Phdr10Elf32_Shdrjj9Elf32_Dyn9Elf32_Symt12Elf32_Verdef13Elf32_Verdaux13Elf32_Verneed13Elf32_Vernaux9Elf32_Rel10Elf32_RelaLj32EE8CompShdrENS_11__wrap_iterIPS4_EEEEvT0_SJ_T_NS_15iterator_traitsISJ_E15difference_typeEPNSM_10value_typeE
0000000000109e74 W _ZNSt6__ndk118__stable_sort_moveIRN7ElfFileI10Elf64_Ehdr10Elf64_Phdr10Elf64_Shdrmm9Elf64_Dyn9Elf64_Symt12Elf64_Verdef13Elf64_Verdaux13Elf64_Verneed13Elf64_Vernaux9Elf64_Rel10Elf64_RelaLj64EE8CompPhdrENS_11__wrap_iterIPS3_EEEEvT0_SJ_T_NS_15iterator_traitsISJ_E15difference_typeEPNSM_10value_typeE
000000000010d7a8 W _ZNSt6__ndk118__stable_sort_moveIRN7ElfFileI10Elf64_Ehdr10Elf64_Phdr10Elf64_Shdrmm9Elf64_Dyn9Elf64_Symt12Elf64_Verdef13Elf64_Verdaux13Elf64_Verneed13Elf64_Vernaux9Elf64_Rel10Elf64_RelaLj64EE8CompShdrENS_11__wrap_iterIPS4_EEEEvT0_SJ_T_NS_15iterator_traitsISJ_E15difference_typeEPNSM_10value_typeE
00000000001501b4 T _ZNSt6__ndk118__time_get_storageIcE4initERKNS_5ctypeIcEE
000000000014ee44 T _ZNSt6__ndk118__time_get_storageIcE9__analyzeEcRKNS_5ctypeIcEE
0000000000151010 T _ZNSt6__ndk118__time_get_storageIcEC1EPKc
00000000001513d0 T _ZNSt6__ndk118__time_get_storageIcEC1ERKNS_12basic_stringIcNS_11char_traitsIcEENS_9allocatorIcEEEE
0000000000151010 T _ZNSt6__ndk118__time_get_storageIcEC2EPKc
00000000001513d0 T _ZNSt6__ndk118__time_get_storageIcEC2ERKNS_12basic_stringIcNS_11char_traitsIcEENS_9allocatorIcEEEE
000000000015044c T _ZNSt6__ndk118__time_get_storageIwE4initERKNS_5ctypeIwEE
000000000014f78c T _ZNSt6__ndk118__time_get_storageIwE9__analyzeEcRKNS_5ctypeIwEE
0000000000151774 T _ZNSt6__ndk118__time_get_storageIwEC1EPKc
0000000000151ac8 T _ZNSt6__ndk118__time_get_storageIwEC1ERKNS_12basic_stringIcNS_11char_traitsIcEENS_9allocatorIcEEEE
0000000000151774 T _ZNSt6__ndk118__time_get_storageIwEC2EPKc
0000000000151ac8 T _ZNSt6__ndk118__time_get_storageIwEC2ERKNS_12basic_stringIcNS_11char_traitsIcEENS_9allocatorIcEEEE
00000000000c37f0 W _ZNSt6__ndk118__tree_left_rotateIPNS_16__tree_node_baseIPvEEEEvT_
0000000000157f2c T _ZNSt6__ndk118condition_variable10notify_allEv
0000000000157f14 T _ZNSt6__ndk118condition_variable10notify_oneEv
0000000000157f8c T _ZNSt6__ndk118condition_variable15__do_timed_waitERNS_11unique_lockINS_5mutexEEENS_6chrono10time_pointINS5_12system_clockENS5_8durationIxNS_5ratioILl1ELl1000000000EEEEEEE
0000000000157f44 T _ZNSt6__ndk118condition_variable4waitERNS_11unique_lockINS_5mutexEEE
00000000001580d8 T _ZNSt6__ndk118condition_variableD1Ev
00000000001580d8 T _ZNSt6__ndk118condition_variableD2Ev
0000000000157780 T _ZNSt6__ndk118get_pointer_safetyEv
0000000000132d74 W _ZNSt6__ndk119__libcpp_asprintf_lEPPcP10__locale_tPKcz
0000000000131bb8 W _ZNSt6__ndk119__libcpp_snprintf_lEPcmP10__locale_tPKcz
00000000000e304c W _ZNSt6__ndk119__merge_move_assignIRN7ElfFileI10Elf32_Ehdr10Elf32_Phdr10Elf32_Shdrjj9Elf32_Dyn9Elf32_Symt12Elf32_Verdef13Elf32_Verdaux13Elf32_Verneed13Elf32_Vernaux9Elf32_Rel10Elf32_RelaLj32EE8CompPhdrEPS3_SG_NS_11__wrap_iterISG_EEEEvT0_SJ_T1_SK_T2_T_
00000000000e6878 W _ZNSt6__ndk119__merge_move_assignIRN7ElfFileI10Elf32_Ehdr10Elf32_Phdr10Elf32_Shdrjj9Elf32_Dyn9Elf32_Symt12Elf32_Verdef13Elf32_Verdaux13Elf32_Verneed13Elf32_Vernaux9Elf32_Rel10Elf32_RelaLj32EE8CompShdrEPS4_SG_NS_11__wrap_iterISG_EEEEvT0_SJ_T1_SK_T2_T_
000000000010a23c W _ZNSt6__ndk119__merge_move_assignIRN7ElfFileI10Elf64_Ehdr10Elf64_Phdr10Elf64_Shdrmm9Elf64_Dyn9Elf64_Symt12Elf64_Verdef13Elf64_Verdaux13Elf64_Verneed13Elf64_Vernaux9Elf64_Rel10Elf64_RelaLj64EE8CompPhdrEPS3_SG_NS_11__wrap_iterISG_EEEEvT0_SJ_T1_SK_T2_T_
000000000010db68 W _ZNSt6__ndk119__merge_move_assignIRN7ElfFileI10Elf64_Ehdr10Elf64_Phdr10Elf64_Shdrmm9Elf64_Dyn9Elf64_Symt12Elf64_Verdef13Elf64_Verdaux13Elf64_Verneed13Elf64_Vernaux9Elf64_Rel10Elf64_RelaLj64EE8CompShdrEPS4_SG_NS_11__wrap_iterISG_EEEEvT0_SJ_T1_SK_T2_T_
0000000000157594 T _ZNSt6__ndk119__shared_weak_count10__add_weakEv
0000000000157628 T _ZNSt6__ndk119__shared_weak_count14__release_weakEv
0000000000157658 T _ZNSt6__ndk119__shared_weak_count4lockEv
000000000015751c T _ZNSt6__ndk119__shared_weak_countD0Ev
0000000000157514 T _ZNSt6__ndk119__shared_weak_countD1Ev
0000000000157514 T _ZNSt6__ndk119__shared_weak_countD2Ev
0000000000161448 T _ZNSt6__ndk119__thread_local_dataEv
00000000000c38c0 W _ZNSt6__ndk119__tree_right_rotateIPNS_16__tree_node_baseIPvEEEEvT_
00000000000c7df8 W _ZNSt6__ndk119basic_istringstreamIcNS_11char_traitsIcEENS_9allocatorIcEEED0Ev
00000000000ba93c W _ZNSt6__ndk119basic_istringstreamIcNS_11char_traitsIcEENS_9allocatorIcEEED1Ev
00000000000cdc90 W _ZNSt6__ndk119basic_istringstreamIcNS_11char_traitsIcEENS_9allocatorIcEEED2Ev
00000000000bb6cc W _ZNSt6__ndk119basic_ostringstreamIcNS_11char_traitsIcEENS_9allocatorIcEEED0Ev
00000000000bb580 W _ZNSt6__ndk119basic_ostringstreamIcNS_11char_traitsIcEENS_9allocatorIcEEED1Ev
00000000000bd974 W _ZNSt6__ndk119basic_ostringstreamIcNS_11char_traitsIcEENS_9allocatorIcEEED2Ev
0000000000157778 T _ZNSt6__ndk119declare_no_pointersEPcm
0000000000154f58 W _ZNSt6__ndk120__codecvt_utf8_utf16IDiED0Ev
0000000000154f7c W _ZNSt6__ndk120__codecvt_utf8_utf16IDsED0Ev
0000000000154f34 W _ZNSt6__ndk120__codecvt_utf8_utf16IwED0Ev
00000000000e44c0 W _ZNSt6__ndk120__half_inplace_mergeIN7ElfFileI10Elf32_Ehdr10Elf32_Phdr10Elf32_Shdrjj9Elf32_Dyn9Elf32_Symt12Elf32_Verdef13Elf32_Verdaux13Elf32_Verneed13Elf32_Vernaux9Elf32_Rel10Elf32_RelaLj32EE8CompPhdrEPS3_NS_11__wrap_iterISF_EESH_EEvT0_SI_T1_SJ_T2_T_
00000000000e7d8c W _ZNSt6__ndk120__half_inplace_mergeIN7ElfFileI10Elf32_Ehdr10Elf32_Phdr10Elf32_Shdrjj9Elf32_Dyn9Elf32_Symt12Elf32_Verdef13Elf32_Verdaux13Elf32_Verneed13Elf32_Vernaux9Elf32_Rel10Elf32_RelaLj32EE8CompShdrEPS4_NS_11__wrap_iterISF_EESH_EEvT0_SI_T1_SJ_T2_T_
000000000010b710 W _ZNSt6__ndk120__half_inplace_mergeIN7ElfFileI10Elf64_Ehdr10Elf64_Phdr10Elf64_Shdrmm9Elf64_Dyn9Elf64_Symt12Elf64_Verdef13Elf64_Verdaux13Elf64_Verneed13Elf64_Vernaux9Elf64_Rel10Elf64_RelaLj64EE8CompPhdrEPS3_NS_11__wrap_iterISF_EESH_EEvT0_SI_T1_SJ_T2_T_
000000000010f0f4 W _ZNSt6__ndk120__half_inplace_mergeIN7ElfFileI10Elf64_Ehdr10Elf64_Phdr10Elf64_Shdrmm9Elf64_Dyn9Elf64_Symt12Elf64_Verdef13Elf64_Verdaux13Elf64_Verneed13Elf64_Vernaux9Elf64_Rel10Elf64_RelaLj64EE8CompShdrEPS4_NS_11__wrap_iterISF_EESH_EEvT0_SI_T1_SJ_T2_T_
00000000000e461c W _ZNSt6__ndk120__half_inplace_mergeINS_8__invertIRN7ElfFileI10Elf32_Ehdr10Elf32_Phdr10Elf32_Shdrjj9Elf32_Dyn9Elf32_Symt12Elf32_Verdef13Elf32_Verdaux13Elf32_Verneed13Elf32_Vernaux9Elf32_Rel10Elf32_RelaLj32EE8CompPhdrEEENS_16reverse_iteratorIPS4_EENSI_INS_11__wrap_iterISJ_EEEESN_EEvT0_SO_T1_SP_T2_T_
00000000000e7ef8 W _ZNSt6__ndk120__half_inplace_mergeINS_8__invertIRN7ElfFileI10Elf32_Ehdr10Elf32_Phdr10Elf32_Shdrjj9Elf32_Dyn9Elf32_Symt12Elf32_Verdef13Elf32_Verdaux13Elf32_Verneed13Elf32_Vernaux9Elf32_Rel10Elf32_RelaLj32EE8CompShdrEEENS_16reverse_iteratorIPS5_EENSI_INS_11__wrap_iterISJ_EEEESN_EEvT0_SO_T1_SP_T2_T_
000000000010b88c W _ZNSt6__ndk120__half_inplace_mergeINS_8__invertIRN7ElfFileI10Elf64_Ehdr10Elf64_Phdr10Elf64_Shdrmm9Elf64_Dyn9Elf64_Symt12Elf64_Verdef13Elf64_Verdaux13Elf64_Verneed13Elf64_Vernaux9Elf64_Rel10Elf64_RelaLj64EE8CompPhdrEEENS_16reverse_iteratorIPS4_EENSI_INS_11__wrap_iterISJ_EEEESN_EEvT0_SO_T1_SP_T2_T_
000000000010f270 W _ZNSt6__ndk120__half_inplace_mergeINS_8__invertIRN7ElfFileI10Elf64_Ehdr10Elf64_Phdr10Elf64_Shdrmm9Elf64_Dyn9Elf64_Symt12Elf64_Verdef13Elf64_Verdaux13Elf64_Verneed13Elf64_Vernaux9Elf64_Rel10Elf64_RelaLj64EE8CompShdrEEENS_16reverse_iteratorIPS5_EENSI_INS_11__wrap_iterISJ_EEEESN_EEvT0_SO_T1_SP_T2_T_
00000000000d5800 W _ZNSt6__ndk120__optional_copy_baseINS_17reference_wrapperIK10Elf32_ShdrEELb1EEC2Ev
00000000000d568c W _ZNSt6__ndk120__optional_copy_baseINS_17reference_wrapperIK10Elf32_ShdrEELb1EECI2NS_24__optional_destruct_baseIS4_Lb1EEEIJRS3_EEENS_10in_place_tEDpOT_
0000000000101224 W _ZNSt6__ndk120__optional_copy_baseINS_17reference_wrapperIK10Elf64_ShdrEELb1EEC2Ev
00000000001010b0 W _ZNSt6__ndk120__optional_copy_baseINS_17reference_wrapperIK10Elf64_ShdrEELb1EECI2NS_24__optional_destruct_baseIS4_Lb1EEEIJRS3_EEENS_10in_place_tEDpOT_
00000000000d57dc W _ZNSt6__ndk120__optional_move_baseINS_17reference_wrapperIK10Elf32_ShdrEELb1EEC2Ev
00000000000d5658 W _ZNSt6__ndk120__optional_move_baseINS_17reference_wrapperIK10Elf32_ShdrEELb1EECI2NS_24__optional_destruct_baseIS4_Lb1EEEIJRS3_EEENS_10in_place_tEDpOT_
0000000000101200 W _ZNSt6__ndk120__optional_move_baseINS_17reference_wrapperIK10Elf64_ShdrEELb1EEC2Ev
000000000010107c W _ZNSt6__ndk120__optional_move_baseINS_17reference_wrapperIK10Elf64_ShdrEELb1EECI2NS_24__optional_destruct_baseIS4_Lb1EEEIJRS3_EEENS_10in_place_tEDpOT_
00000000000bee28 W _ZNSt6__ndk120__shared_ptr_emplaceINS_6vectorIhNS_9allocatorIhEEEENS2_IS4_EEE16__on_zero_sharedEv
00000000000bee54 W _ZNSt6__ndk120__shared_ptr_emplaceINS_6vectorIhNS_9allocatorIhEEEENS2_IS4_EEE21__on_zero_shared_weakEv
00000000000be884 W _ZNSt6__ndk120__shared_ptr_emplaceINS_6vectorIhNS_9allocatorIhEEEENS2_IS4_EEEC2IJRmEEES5_DpOT_
00000000000bedf4 W _ZNSt6__ndk120__shared_ptr_emplaceINS_6vectorIhNS_9allocatorIhEEEENS2_IS4_EEED0Ev
00000000000bedb0 W _ZNSt6__ndk120__shared_ptr_emplaceINS_6vectorIhNS_9allocatorIhEEEENS2_IS4_EEED2Ev
0000000000161198 T _ZNSt6__ndk120__throw_system_errorEiPKc
00000000000e2170 W _ZNSt6__ndk120get_temporary_bufferI10Elf32_PhdrEENS_4pairIPT_lEEl
00000000000e5aac W _ZNSt6__ndk120get_temporary_bufferI10Elf32_ShdrEENS_4pairIPT_lEEl
0000000000109344 W _ZNSt6__ndk120get_temporary_bufferI10Elf64_PhdrEENS_4pairIPT_lEEl
000000000010cd74 W _ZNSt6__ndk120get_temporary_bufferI10Elf64_ShdrEENS_4pairIPT_lEEl
00000000000e3814 W _ZNSt6__ndk121__insertion_sort_moveIRN7ElfFileI10Elf32_Ehdr10Elf32_Phdr10Elf32_Shdrjj9Elf32_Dyn9Elf32_Symt12Elf32_Verdef13Elf32_Verdaux13Elf32_Verneed13Elf32_Vernaux9Elf32_Rel10Elf32_RelaLj32EE8CompPhdrENS_11__wrap_iterIPS3_EEEEvT0_SJ_PNS_15iterator_traitsISJ_E10value_typeET_
00000000000e7028 W _ZNSt6__ndk121__insertion_sort_moveIRN7ElfFileI10Elf32_Ehdr10Elf32_Phdr10Elf32_Shdrjj9Elf32_Dyn9Elf32_Symt12Elf32_Verdef13Elf32_Verdaux13Elf32_Verneed13Elf32_Vernaux9Elf32_Rel10Elf32_RelaLj32EE8CompShdrENS_11__wrap_iterIPS4_EEEEvT0_SJ_PNS_15iterator_traitsISJ_E10value_typeET_
000000000010a9f8 W _ZNSt6__ndk121__insertion_sort_moveIRN7ElfFileI10Elf64_Ehdr10Elf64_Phdr10Elf64_Shdrmm9Elf64_Dyn9Elf64_Symt12Elf64_Verdef13Elf64_Verdaux13Elf64_Verneed13Elf64_Vernaux9Elf64_Rel10Elf64_RelaLj64EE8CompPhdrENS_11__wrap_iterIPS3_EEEEvT0_SJ_PNS_15iterator_traitsISJ_E10value_typeET_
000000000010e338 W _ZNSt6__ndk121__insertion_sort_moveIRN7ElfFileI10Elf64_Ehdr10Elf64_Phdr10Elf64_Shdrmm9Elf64_Dyn9Elf64_Symt12Elf64_Verdef13Elf64_Verdaux13Elf64_Verneed13Elf64_Vernaux9Elf64_Rel10Elf64_RelaLj64EE8CompShdrENS_11__wrap_iterIPS4_EEEEvT0_SJ_PNS_15iterator_traitsISJ_E10value_typeET_
00000000000c9478 W _ZNSt6__ndk121__murmur2_or_cityhashImLm64EE11__shift_mixEm
00000000000c9228 W _ZNSt6__ndk121__murmur2_or_cityhashImLm64EE13__hash_len_16Emm
00000000000c8bf8 W _ZNSt6__ndk121__murmur2_or_cityhashImLm64EE18__hash_len_0_to_16EPKcm
00000000000c8db4 W _ZNSt6__ndk121__murmur2_or_cityhashImLm64EE19__hash_len_17_to_32EPKcm
00000000000c8ee4 W _ZNSt6__ndk121__murmur2_or_cityhashImLm64EE19__hash_len_33_to_64EPKcm
00000000000c9494 W _ZNSt6__ndk121__murmur2_or_cityhashImLm64EE22__rotate_by_at_least_1Emi
00000000000c92a8 W _ZNSt6__ndk121__murmur2_or_cityhashImLm64EE29__weak_hash_len_32_with_seedsEPKcmm
00000000000c9550 W _ZNSt6__ndk121__murmur2_or_cityhashImLm64EE29__weak_hash_len_32_with_seedsEmmmmmm
00000000000c9344 W _ZNSt6__ndk121__murmur2_or_cityhashImLm64EE8__rotateEmi
00000000000c87d4 W _ZNSt6__ndk121__murmur2_or_cityhashImLm64EEclEPKvm
000000000013ba8c T _ZNSt6__ndk121__throw_runtime_errorEPKc
0000000000157788 T _ZNSt6__ndk121__undeclare_reachableEPv
0000000000157bbc T _ZNSt6__ndk121recursive_timed_mutex4lockEv
0000000000157d80 T _ZNSt6__ndk121recursive_timed_mutex6unlockEv
0000000000157ce4 T _ZNSt6__ndk121recursive_timed_mutex8try_lockEv
0000000000157b40 T _ZNSt6__ndk121recursive_timed_mutexC1Ev
0000000000157b40 T _ZNSt6__ndk121recursive_timed_mutexC2Ev
0000000000157b58 T _ZNSt6__ndk121recursive_timed_mutexD1Ev
0000000000157b58 T _ZNSt6__ndk121recursive_timed_mutexD2Ev
000000000015777c T _ZNSt6__ndk121undeclare_no_pointersEPcm
000000000011bddc W _ZNSt6__ndk122__compressed_pair_elemINS_19__map_value_compareINS_12basic_stringIcNS_11char_traitsIcEENS_9allocatorIcEEEENS_12__value_typeIS7_S7_EENS_4lessIS7_EELb1EEELi1ELb1EEC2IRKSC_vEEOT_
00000000000beb60 W _ZNSt6__ndk122__compressed_pair_elemINS_22__allocator_destructorINS_9allocatorINS_20__shared_ptr_emplaceINS_6vectorIhNS2_IhEEEENS2_IS6_EEEEEEEELi1ELb0EEC2ISA_vEEOT_
00000000000cd328 W _ZNSt6__ndk122__compressed_pair_elemINS_22__hash_node_destructorINS_9allocatorINS_11__hash_nodeINS_12basic_stringIcNS_11char_traitsIcEENS2_IcEEEEPvEEEEEELi1ELb0EEC2ISC_vEEOT_
00000000000eedd8 W _ZNSt6__ndk122__compressed_pair_elemINS_22__hash_node_destructorINS_9allocatorINS_11__hash_nodeINS_17__hash_value_typeINS_12basic_stringIcNS_11char_traitsIcEENS2_IcEEEEjEEPvEEEEEELi1ELb0EEC2ISE_vEEOT_
00000000001147c4 W _ZNSt6__ndk122__compressed_pair_elemINS_22__hash_node_destructorINS_9allocatorINS_11__hash_nodeINS_17__hash_value_typeINS_12basic_stringIcNS_11char_traitsIcEENS2_IcEEEEmEEPvEEEEEELi1ELb0EEC2ISE_vEEOT_
00000000000cb700 W _ZNSt6__ndk122__compressed_pair_elemINS_22__hash_node_destructorINS_9allocatorINS_11__hash_nodeINS_17__hash_value_typeINS_17basic_string_viewIcNS_11char_traitsIcEEEENS_12basic_stringIcS7_NS2_IcEEEEEEPvEEEEEELi1ELb0EEC2ISG_vEEOT_
00000000000c4938 W _ZNSt6__ndk122__compressed_pair_elemINS_22__tree_node_destructorINS_9allocatorINS_11__tree_nodeINS_12__value_typeINS_12basic_stringIcNS_11char_traitsIcEENS2_IcEEEES9_EEPvEEEEEELi1ELb0EEC2ISE_vEEOT_
00000000000c3310 W _ZNSt6__ndk122__compressed_pair_elemINS_22__tree_node_destructorINS_9allocatorINS_11__tree_nodeINS_12basic_stringIcNS_11char_traitsIcEENS2_IcEEEEPvEEEEEELi1ELb0EEC2ISC_vEEOT_
00000000000e0ef4 W _ZNSt6__ndk122__compressed_pair_elemINS_22__tree_node_destructorINS_9allocatorINS_11__tree_nodeIjPvEEEEEELi1ELb0EEC2IS7_vEEOT_
00000000000f0b30 W _ZNSt6__ndk122__compressed_pair_elemINS_22__tree_node_destructorINS_9allocatorINS_11__tree_nodeImPvEEEEEELi1ELb0EEC2IS7_vEEOT_
000000000011bb2c W _ZNSt6__ndk122__compressed_pair_elemINS_4lessINS_12basic_stringIcNS_11char_traitsIcEENS_9allocatorIcEEEEEELi1ELb1EEC2IRKS8_vEEOT_
00000000000e0230 W _ZNSt6__ndk122__compressed_pair_elemINS_4lessIjEELi1ELb1EEC2IRKS2_vEEOT_
00000000000eff7c W _ZNSt6__ndk122__compressed_pair_elemINS_4lessImEELi1ELb1EEC2IRKS2_vEEOT_
00000000000bf164 W _ZNSt6__ndk122__compressed_pair_elemINS_6vectorIhNS_9allocatorIhEEEELi1ELb0EEC2IJRmEJLm0EEEENS_21piecewise_construct_tENS_5tupleIJDpT_EEENS_15__tuple_indicesIJXspT0_EEEE
00000000000bfe78 W _ZNSt6__ndk122__compressed_pair_elemINS_6vectorIhNS_9allocatorIhEEEELi1ELb0EED2Ev
00000000000bf0f0 W _ZNSt6__ndk122__compressed_pair_elemINS_9allocatorINS_6vectorIhNS1_IhEEEEEELi0ELb1EEC2IJRS5_EJLm0EEEENS_21piecewise_construct_tENS_5tupleIJDpT_EEENS_15__tuple_indicesIJXspT0_EEEE
00000000000bd47c W _ZNSt6__ndk122__compressed_pair_elemINS_9allocatorIcEELi1ELb1EEC2IRKS2_vEEOT_
00000000000dddb4 W _ZNSt6__ndk122__compressed_pair_elemIP10Elf32_PhdrLi0ELb0EEC2IDnvEEOT_
00000000000e371c W _ZNSt6__ndk122__compressed_pair_elemIP10Elf32_PhdrLi0ELb0EEC2IRS2_vEEOT_
00000000000e272c W _ZNSt6__ndk122__compressed_pair_elemIP10Elf32_PhdrLi0ELb0EEC2IS2_vEEOT_
00000000000fa9b4 W _ZNSt6__ndk122__compressed_pair_elemIP10Elf32_ShdrLi0ELb0EEC2IDnvEEOT_
00000000000e6f7c W _ZNSt6__ndk122__compressed_pair_elemIP10Elf32_ShdrLi0ELb0EEC2IRS2_vEEOT_
00000000000e6090 W _ZNSt6__ndk122__compressed_pair_elemIP10Elf32_ShdrLi0ELb0EEC2IS2_vEEOT_
0000000000106514 W _ZNSt6__ndk122__compressed_pair_elemIP10Elf64_PhdrLi0ELb0EEC2IDnvEEOT_
000000000010a94c W _ZNSt6__ndk122__compressed_pair_elemIP10Elf64_PhdrLi0ELb0EEC2IRS2_vEEOT_
000000000010993c W _ZNSt6__ndk122__compressed_pair_elemIP10Elf64_PhdrLi0ELb0EEC2IS2_vEEOT_
000000000011a608 W _ZNSt6__ndk122__compressed_pair_elemIP10Elf64_ShdrLi0ELb0EEC2IDnvEEOT_
000000000010e28c W _ZNSt6__ndk122__compressed_pair_elemIP10Elf64_ShdrLi0ELb0EEC2IRS2_vEEOT_
000000000010d330 W _ZNSt6__ndk122__compressed_pair_elemIP10Elf64_ShdrLi0ELb0EEC2IS2_vEEOT_
00000000000c76a0 W _ZNSt6__ndk122__compressed_pair_elemIP7__sFILELi0ELb0EEC2IRS2_vEEOT_
00000000000f885c W _ZNSt6__ndk122__compressed_pair_elemIP9Elf32_SymLi0ELb0EEC2IDnvEEOT_
00000000001194e8 W _ZNSt6__ndk122__compressed_pair_elemIP9Elf64_SymLi0ELb0EEC2IDnvEEOT_
00000000000c76f0 W _ZNSt6__ndk122__compressed_pair_elemIPFiP7__sFILEELi1ELb0EEC2IS4_vEEOT_
00000000000cd2d8 W _ZNSt6__ndk122__compressed_pair_elemIPNS_11__hash_nodeINS_12basic_stringIcNS_11char_traitsIcEENS_9allocatorIcEEEEPvEELi0ELb0EEC2IRSA_vEEOT_
00000000000eed88 W _ZNSt6__ndk122__compressed_pair_elemIPNS_11__hash_nodeINS_17__hash_value_typeINS_12basic_stringIcNS_11char_traitsIcEENS_9allocatorIcEEEEjEEPvEELi0ELb0EEC2IRSC_vEEOT_
0000000000114774 W _ZNSt6__ndk122__compressed_pair_elemIPNS_11__hash_nodeINS_17__hash_value_typeINS_12basic_stringIcNS_11char_traitsIcEENS_9allocatorIcEEEEmEEPvEELi0ELb0EEC2IRSC_vEEOT_
00000000000cb6b0 W _ZNSt6__ndk122__compressed_pair_elemIPNS_11__hash_nodeINS_17__hash_value_typeINS_17basic_string_viewIcNS_11char_traitsIcEEEENS_12basic_stringIcS5_NS_9allocatorIcEEEEEEPvEELi0ELb0EEC2IRSE_vEEOT_
00000000000c48e8 W _ZNSt6__ndk122__compressed_pair_elemIPNS_11__tree_nodeINS_12__value_typeINS_12basic_stringIcNS_11char_traitsIcEENS_9allocatorIcEEEES8_EEPvEELi0ELb0EEC2IRSC_vEEOT_
00000000000c32c0 W _ZNSt6__ndk122__compressed_pair_elemIPNS_11__tree_nodeINS_12basic_stringIcNS_11char_traitsIcEENS_9allocatorIcEEEEPvEELi0ELb0EEC2IRSA_vEEOT_
00000000000e0ea4 W _ZNSt6__ndk122__compressed_pair_elemIPNS_11__tree_nodeIjPvEELi0ELb0EEC2IRS4_vEEOT_
00000000000f0ae0 W _ZNSt6__ndk122__compressed_pair_elemIPNS_11__tree_nodeImPvEELi0ELb0EEC2IRS4_vEEOT_
00000000000c1518 W _ZNSt6__ndk122__compressed_pair_elemIPNS_12basic_stringIcNS_11char_traitsIcEENS_9allocatorIcEEEELi0ELb0EEC2IDnvEEOT_
00000000000beb10 W _ZNSt6__ndk122__compressed_pair_elemIPNS_20__shared_ptr_emplaceINS_6vectorIhNS_9allocatorIhEEEENS3_IS5_EEEELi0ELb0EEC2IRS8_vEEOT_
000000000011c794 W _ZNSt6__ndk122__compressed_pair_elemIPPNS_16__hash_node_baseIPNS_11__hash_nodeINS_12basic_stringIcNS_11char_traitsIcEENS_9allocatorIcEEEEPvEEEELi0ELb0EEC2ISE_vEEOT_
00000000000ed04c W _ZNSt6__ndk122__compressed_pair_elemIPPNS_16__hash_node_baseIPNS_11__hash_nodeINS_17__hash_value_typeINS_12basic_stringIcNS_11char_traitsIcEENS_9allocatorIcEEEEjEEPvEEEELi0ELb0EEC2ISG_vEEOT_
0000000000112e98 W _ZNSt6__ndk122__compressed_pair_elemIPPNS_16__hash_node_baseIPNS_11__hash_nodeINS_17__hash_value_typeINS_12basic_stringIcNS_11char_traitsIcEENS_9allocatorIcEEEEmEEPvEEEELi0ELb0EEC2ISG_vEEOT_
000000000011c128 W _ZNSt6__ndk122__compressed_pair_elemIPPNS_16__hash_node_baseIPNS_11__hash_nodeINS_17__hash_value_typeINS_17basic_string_viewIcNS_11char_traitsIcEEEENS_12basic_stringIcS6_NS_9allocatorIcEEEEEEPvEEEELi0ELb0EEC2ISI_vEEOT_
00000000000f5974 W _ZNSt6__ndk122__compressed_pair_elemIPZN7ElfFileI10Elf32_Ehdr10Elf32_Phdr10Elf32_Shdrjj9Elf32_Dyn9Elf32_Symt12Elf32_Verdef13Elf32_Verdaux13Elf32_Verneed13Elf32_Vernaux9Elf32_Rel10Elf32_RelaLj32EE19rebuildGnuHashTableE4spanIcESE_IS6_EE5EntryLi0ELb0EEC2IDnvEEOT_
0000000000117040 W _ZNSt6__ndk122__compressed_pair_elemIPZN7ElfFileI10Elf64_Ehdr10Elf64_Phdr10Elf64_Shdrmm9Elf64_Dyn9Elf64_Symt12Elf64_Verdef13Elf64_Verdaux13Elf64_Verneed13Elf64_Vernaux9Elf64_Rel10Elf64_RelaLj64EE19rebuildGnuHashTableE4spanIcESE_IS6_EE5EntryLi0ELb0EEC2IDnvEEOT_
00000000000f2890 W _ZNSt6__ndk122__compressed_pair_elemIPcLi0ELb0EEC2IDnvEEOT_
00000000000bf5d0 W _ZNSt6__ndk122__compressed_pair_elemIPhLi0ELb0EEC2IDnvEEOT_
00000000000f7d24 W _ZNSt6__ndk122__compressed_pair_elemIPjLi0ELb0EEC2IDnvEEOT_
00000000000f94ac W _ZNSt6__ndk122__compressed_pair_elemIPtLi0ELb0EEC2IDnvEEOT_
00000000000e376c W _ZNSt6__ndk122__compressed_pair_elemIRNS_12__destruct_nELi1ELb0EEC2IS2_vEEOT_
00000000000dde00 W _ZNSt6__ndk122__compressed_pair_elemIRNS_9allocatorI10Elf32_PhdrEELi1ELb0EEC2IS4_vEEOT_
00000000000fb47c W _ZNSt6__ndk122__compressed_pair_elemIRNS_9allocatorI10Elf32_ShdrEELi1ELb0EEC2IS4_vEEOT_
0000000000106560 W _ZNSt6__ndk122__compressed_pair_elemIRNS_9allocatorI10Elf64_PhdrEELi1ELb0EEC2IS4_vEEOT_
000000000011b0b8 W _ZNSt6__ndk122__compressed_pair_elemIRNS_9allocatorI10Elf64_ShdrEELi1ELb0EEC2IS4_vEEOT_
00000000000c1564 W _ZNSt6__ndk122__compressed_pair_elemIRNS_9allocatorINS_12basic_stringIcNS_11char_traitsIcEENS1_IcEEEEEELi1ELb0EEC2IS8_vEEOT_
00000000000f5e48 W _ZNSt6__ndk122__compressed_pair_elemIRNS_9allocatorIZN7ElfFileI10Elf32_Ehdr10Elf32_Phdr10Elf32_Shdrjj9Elf32_Dyn9Elf32_Symt12Elf32_Verdef13Elf32_Verdaux13Elf32_Verneed13Elf32_Vernaux9Elf32_Rel10Elf32_RelaLj32EE19rebuildGnuHashTableE4spanIcESF_IS7_EE5EntryEELi1ELb0EEC2ISK_vEEOT_
0000000000117514 W _ZNSt6__ndk122__compressed_pair_elemIRNS_9allocatorIZN7ElfFileI10Elf64_Ehdr10Elf64_Phdr10Elf64_Shdrmm9Elf64_Dyn9Elf64_Symt12Elf64_Verdef13Elf64_Verdaux13Elf64_Verneed13Elf64_Vernaux9Elf64_Rel10Elf64_RelaLj64EE19rebuildGnuHashTableE4spanIcESF_IS7_EE5EntryEELi1ELb0EEC2ISK_vEEOT_
00000000000f2cd8 W _ZNSt6__ndk122__compressed_pair_elemIRNS_9allocatorIcEELi1ELb0EEC2IS3_vEEOT_
00000000000dce2c W _ZNSt6__ndk122__compressed_pair_elemIRNS_9allocatorIhEELi1ELb0EEC2IS3_vEEOT_
00000000000ed274 W _ZNSt6__ndk122__compressed_pair_elemIfLi0ELb0EEC2IfvEEOT_
00000000000e01e0 W _ZNSt6__ndk122__compressed_pair_elemImLi0ELb0EEC2IivEEOT_
00000000000e3ac4 W _ZNSt6__ndk122__merge_move_constructIRN7ElfFileI10Elf32_Ehdr10Elf32_Phdr10Elf32_Shdrjj9Elf32_Dyn9Elf32_Symt12Elf32_Verdef13Elf32_Verdaux13Elf32_Verneed13Elf32_Vernaux9Elf32_Rel10Elf32_RelaLj32EE8CompPhdrENS_11__wrap_iterIPS3_EESI_EEvT0_SJ_T1_SK_PNS_15iterator_traitsISJ_E10value_typeET_
00000000000e7300 W _ZNSt6__ndk122__merge_move_constructIRN7ElfFileI10Elf32_Ehdr10Elf32_Phdr10Elf32_Shdrjj9Elf32_Dyn9Elf32_Symt12Elf32_Verdef13Elf32_Verdaux13Elf32_Verneed13Elf32_Vernaux9Elf32_Rel10Elf32_RelaLj32EE8CompShdrENS_11__wrap_iterIPS4_EESI_EEvT0_SJ_T1_SK_PNS_15iterator_traitsISJ_E10value_typeET_
000000000010acf8 W _ZNSt6__ndk122__merge_move_constructIRN7ElfFileI10Elf64_Ehdr10Elf64_Phdr10Elf64_Shdrmm9Elf64_Dyn9Elf64_Symt12Elf64_Verdef13Elf64_Verdaux13Elf64_Verneed13Elf64_Vernaux9Elf64_Rel10Elf64_RelaLj64EE8CompPhdrENS_11__wrap_iterIPS3_EESI_EEvT0_SJ_T1_SK_PNS_15iterator_traitsISJ_E10value_typeET_
000000000010e638 W _ZNSt6__ndk122__merge_move_constructIRN7ElfFileI10Elf64_Ehdr10Elf64_Phdr10Elf64_Shdrmm9Elf64_Dyn9Elf64_Symt12Elf64_Verdef13Elf64_Verdaux13Elf64_Verneed13Elf64_Vernaux9Elf64_Rel10Elf64_RelaLj64EE8CompShdrENS_11__wrap_iterIPS4_EESI_EEvT0_SJ_T1_SK_PNS_15iterator_traitsISJ_E10value_typeET_
00000000000d5824 W _ZNSt6__ndk123__optional_storage_baseINS_17reference_wrapperIK10Elf32_ShdrEELb0EEC2Ev
00000000000d56c0 W _ZNSt6__ndk123__optional_storage_baseINS_17reference_wrapperIK10Elf32_ShdrEELb0EECI2NS_24__optional_destruct_baseIS4_Lb1EEEIJRS3_EEENS_10in_place_tEDpOT_
0000000000101248 W _ZNSt6__ndk123__optional_storage_baseINS_17reference_wrapperIK10Elf64_ShdrEELb0EEC2Ev
00000000001010e4 W _ZNSt6__ndk123__optional_storage_baseINS_17reference_wrapperIK10Elf64_ShdrEELb0EECI2NS_24__optional_destruct_baseIS4_Lb1EEEIJRS3_EEENS_10in_place_tEDpOT_
00000000000e3ec4 W _ZNSt6__ndk124__buffered_inplace_mergeIRN7ElfFileI10Elf32_Ehdr10Elf32_Phdr10Elf32_Shdrjj9Elf32_Dyn9Elf32_Symt12Elf32_Verdef13Elf32_Verdaux13Elf32_Verneed13Elf32_Vernaux9Elf32_Rel10Elf32_RelaLj32EE8CompPhdrENS_11__wrap_iterIPS3_EEEEvT0_SJ_SJ_T_NS_15iterator_traitsISJ_E15difference_typeESN_PNSM_10value_typeE
00000000000e76dc W _ZNSt6__ndk124__buffered_inplace_mergeIRN7ElfFileI10Elf32_Ehdr10Elf32_Phdr10Elf32_Shdrjj9Elf32_Dyn9Elf32_Symt12Elf32_Verdef13Elf32_Verdaux13Elf32_Verneed13Elf32_Vernaux9Elf32_Rel10Elf32_RelaLj32EE8CompShdrENS_11__wrap_iterIPS4_EEEEvT0_SJ_SJ_T_NS_15iterator_traitsISJ_E15difference_typeESN_PNSM_10value_typeE
000000000010b0f4 W _ZNSt6__ndk124__buffered_inplace_mergeIRN7ElfFileI10Elf64_Ehdr10Elf64_Phdr10Elf64_Shdrmm9Elf64_Dyn9Elf64_Symt12Elf64_Verdef13Elf64_Verdaux13Elf64_Verneed13Elf64_Vernaux9Elf64_Rel10Elf64_RelaLj64EE8CompPhdrENS_11__wrap_iterIPS3_EEEEvT0_SJ_SJ_T_NS_15iterator_traitsISJ_E15difference_typeESN_PNSM_10value_typeE
000000000010ea34 W _ZNSt6__ndk124__buffered_inplace_mergeIRN7ElfFileI10Elf64_Ehdr10Elf64_Phdr10Elf64_Shdrmm9Elf64_Dyn9Elf64_Symt12Elf64_Verdef13Elf64_Verdaux13Elf64_Verneed13Elf64_Vernaux9Elf64_Rel10Elf64_RelaLj64EE8CompShdrENS_11__wrap_iterIPS4_EEEEvT0_SJ_SJ_T_NS_15iterator_traitsISJ_E15difference_typeESN_PNSM_10value_typeE
00000000000d56f4 W _ZNSt6__ndk124__optional_destruct_baseINS_17reference_wrapperIK10Elf32_ShdrEELb1EEC2IJRS3_EEENS_10in_place_tEDpOT_
0000000000101118 W _ZNSt6__ndk124__optional_destruct_baseINS_17reference_wrapperIK10Elf64_ShdrEELb1EEC2IJRS3_EEENS_10in_place_tEDpOT_
00000000000bc7b8 W _ZNSt6__ndk124__put_character_sequenceIcNS_11char_traitsIcEEEERNS_13basic_ostreamIT_T0_EES7_PKS4_m
0000000000158050 T _ZNSt6__ndk125notify_all_at_thread_exitERNS_18condition_variableENS_11unique_lockINS_5mutexEEE
00000000000f769c W _ZNSt6__ndk127__insertion_sort_incompleteIRZN7ElfFileI10Elf32_Ehdr10Elf32_Phdr10Elf32_Shdrjj9Elf32_Dyn9Elf32_Symt12Elf32_Verdef13Elf32_Verdaux13Elf32_Verneed13Elf32_Vernaux9Elf32_Rel10Elf32_RelaLj32EE19rebuildGnuHashTableE4spanIcESE_IS6_EEUlRT_RT0_E_PZNSD_19rebuildGnuHashTableESF_SG_E5EntryEEbSJ_SJ_SH_
0000000000118d2c W _ZNSt6__ndk127__insertion_sort_incompleteIRZN7ElfFileI10Elf64_Ehdr10Elf64_Phdr10Elf64_Shdrmm9Elf64_Dyn9Elf64_Symt12Elf64_Verdef13Elf64_Verdaux13Elf64_Verneed13Elf64_Vernaux9Elf64_Rel10Elf64_RelaLj64EE19rebuildGnuHashTableE4spanIcESE_IS6_EEUlRT_RT0_E_PZNSD_19rebuildGnuHashTableESF_SG_E5EntryEEbSJ_SJ_SH_
00000000000d57b8 W _ZNSt6__ndk127__optional_copy_assign_baseINS_17reference_wrapperIK10Elf32_ShdrEELb1EEC2Ev
00000000000d5624 W _ZNSt6__ndk127__optional_copy_assign_baseINS_17reference_wrapperIK10Elf32_ShdrEELb1EECI2NS_24__optional_destruct_baseIS4_Lb1EEEIJRS3_EEENS_10in_place_tEDpOT_
00000000001011dc W _ZNSt6__ndk127__optional_copy_assign_baseINS_17reference_wrapperIK10Elf64_ShdrEELb1EEC2Ev
0000000000101048 W _ZNSt6__ndk127__optional_copy_assign_baseINS_17reference_wrapperIK10Elf64_ShdrEELb1EECI2NS_24__optional_destruct_baseIS4_Lb1EEEIJRS3_EEENS_10in_place_tEDpOT_
00000000000d5794 W _ZNSt6__ndk127__optional_move_assign_baseINS_17reference_wrapperIK10Elf32_ShdrEELb1EEC2Ev
00000000000d55f0 W _ZNSt6__ndk127__optional_move_assign_baseINS_17reference_wrapperIK10Elf32_ShdrEELb1EECI2NS_24__optional_destruct_baseIS4_Lb1EEEIJRS3_EEENS_10in_place_tEDpOT_
00000000001011b8 W _ZNSt6__ndk127__optional_move_assign_baseINS_17reference_wrapperIK10Elf64_ShdrEELb1EEC2Ev
0000000000101014 W _ZNSt6__ndk127__optional_move_assign_baseINS_17reference_wrapperIK10Elf64_ShdrEELb1EECI2NS_24__optional_destruct_baseIS4_Lb1EEEIJRS3_EEENS_10in_place_tEDpOT_
00000000000c3490 W _ZNSt6__ndk127__tree_balance_after_insertIPNS_16__tree_node_baseIPvEEEEvT_S5_
00000000000e5934 W _ZNSt6__ndk13mapINS_12basic_stringIcNS_11char_traitsIcEENS_9allocatorIcEEEES6_NS_4lessIS6_EENS4_INS_4pairIKS6_S6_EEEEE2atERSA_
00000000000b9c2c W _ZNSt6__ndk13mapINS_12basic_stringIcNS_11char_traitsIcEENS_9allocatorIcEEEES6_NS_4lessIS6_EENS4_INS_4pairIKS6_S6_EEEEEixEOS6_
00000000000d7120 W _ZNSt6__ndk13mapINS_12basic_stringIcNS_11char_traitsIcEENS_9allocatorIcEEEES6_NS_4lessIS6_EENS4_INS_4pairIKS6_S6_EEEEEixERSA_
00000000000c4aa8 W _ZNSt6__ndk14pairIKNS_12basic_stringIcNS_11char_traitsIcEENS_9allocatorIcEEEES6_EC2IJOS6_EJEEENS_21piecewise_construct_tENS_5tupleIJDpT_EEENSC_IJDpT0_EEE
00000000000c4b20 W _ZNSt6__ndk14pairIKNS_12basic_stringIcNS_11char_traitsIcEENS_9allocatorIcEEEES6_EC2IJOS6_EJEJLm0EEJEEENS_21piecewise_construct_tERNS_5tupleIJDpT_EEERNSC_IJDpT0_EEENS_15__tuple_indicesIJXspT1_EEEENSL_IJXspT2_EEEE
00000000000d7a70 W _ZNSt6__ndk14pairIKNS_12basic_stringIcNS_11char_traitsIcEENS_9allocatorIcEEEES6_EC2IJRS7_EJEEENS_21piecewise_construct_tENS_5tupleIJDpT_EEENSC_IJDpT0_EEE
00000000000d7ae0 W _ZNSt6__ndk14pairIKNS_12basic_stringIcNS_11char_traitsIcEENS_9allocatorIcEEEES6_EC2IJRS7_EJEJLm0EEJEEENS_21piecewise_construct_tERNS_5tupleIJDpT_EEERNSC_IJDpT0_EEENS_15__tuple_indicesIJXspT1_EEEENSL_IJXspT2_EEEE
00000000000c4e74 W _ZNSt6__ndk14pairIKNS_12basic_stringIcNS_11char_traitsIcEENS_9allocatorIcEEEES6_ED2Ev
00000000000eef48 W _ZNSt6__ndk14pairIKNS_12basic_stringIcNS_11char_traitsIcEENS_9allocatorIcEEEEjEC2IJRS7_EJEEENS_21piecewise_construct_tENS_5tupleIJDpT_EEENSC_IJDpT0_EEE
00000000000eefb8 W _ZNSt6__ndk14pairIKNS_12basic_stringIcNS_11char_traitsIcEENS_9allocatorIcEEEEjEC2IJRS7_EJEJLm0EEJEEENS_21piecewise_construct_tERNS_5tupleIJDpT_EEERNSC_IJDpT0_EEENS_15__tuple_indicesIJXspT1_EEEENSL_IJXspT2_EEEE
00000000000ef6a0 W _ZNSt6__ndk14pairIKNS_12basic_stringIcNS_11char_traitsIcEENS_9allocatorIcEEEEjED2Ev
0000000000114934 W _ZNSt6__ndk14pairIKNS_12basic_stringIcNS_11char_traitsIcEENS_9allocatorIcEEEEmEC2IJRS7_EJEEENS_21piecewise_construct_tENS_5tupleIJDpT_EEENSC_IJDpT0_EEE
00000000001149a4 W _ZNSt6__ndk14pairIKNS_12basic_stringIcNS_11char_traitsIcEENS_9allocatorIcEEEEmEC2IJRS7_EJEJLm0EEJEEENS_21piecewise_construct_tERNS_5tupleIJDpT_EEERNSC_IJDpT0_EEENS_15__tuple_indicesIJXspT1_EEEENSL_IJXspT2_EEEE
000000000011508c W _ZNSt6__ndk14pairIKNS_12basic_stringIcNS_11char_traitsIcEENS_9allocatorIcEEEEmED2Ev
00000000000cb870 W _ZNSt6__ndk14pairIKNS_17basic_string_viewIcNS_11char_traitsIcEEEENS_12basic_stringIcS3_NS_9allocatorIcEEEEEC2IJOS4_EJEEENS_21piecewise_construct_tENS_5tupleIJDpT_EEENSE_IJDpT0_EEE
00000000000cb8e8 W _ZNSt6__ndk14pairIKNS_17basic_string_viewIcNS_11char_traitsIcEEEENS_12basic_stringIcS3_NS_9allocatorIcEEEEEC2IJOS4_EJEJLm0EEJEEENS_21piecewise_construct_tERNS_5tupleIJDpT_EEERNSE_IJDpT0_EEENS_15__tuple_indicesIJXspT1_EEEENSN_IJXspT2_EEEE
00000000000cc2a4 W _ZNSt6__ndk14pairIKNS_17basic_string_viewIcNS_11char_traitsIcEEEENS_12basic_stringIcS3_NS_9allocatorIcEEEEED2Ev
00000000000ccf38 W _ZNSt6__ndk14pairINS_15__hash_iteratorIPNS_11__hash_nodeINS_12basic_stringIcNS_11char_traitsIcEENS_9allocatorIcEEEEPvEEEEbEC2ISC_RbLb0EEEOT_OT0_
00000000000eea24 W _ZNSt6__ndk14pairINS_15__hash_iteratorIPNS_11__hash_nodeINS_17__hash_value_typeINS_12basic_stringIcNS_11char_traitsIcEENS_9allocatorIcEEEEjEEPvEEEEbEC2ISE_RbLb0EEEOT_OT0_
0000000000114410 W _ZNSt6__ndk14pairINS_15__hash_iteratorIPNS_11__hash_nodeINS_17__hash_value_typeINS_12basic_stringIcNS_11char_traitsIcEENS_9allocatorIcEEEEmEEPvEEEEbEC2ISE_RbLb0EEEOT_OT0_
00000000000cae0c W _ZNSt6__ndk14pairINS_15__hash_iteratorIPNS_11__hash_nodeINS_17__hash_value_typeINS_17basic_string_viewIcNS_11char_traitsIcEEEENS_12basic_stringIcS6_NS_9allocatorIcEEEEEEPvEEEEbEC2ISG_RbLb0EEEOT_OT0_
00000000000c42e8 W _ZNSt6__ndk14pairINS_15__tree_iteratorINS_12__value_typeINS_12basic_stringIcNS_11char_traitsIcEENS_9allocatorIcEEEES8_EEPNS_11__tree_nodeIS9_PvEElEEbEC2ISE_RbLb0EEEOT_OT0_
00000000000c2b34 W _ZNSt6__ndk14pairINS_15__tree_iteratorINS_12basic_stringIcNS_11char_traitsIcEENS_9allocatorIcEEEEPNS_11__tree_nodeIS7_PvEElEEbEC2ISC_RbLb0EEEOT_OT0_
00000000000e0acc W _ZNSt6__ndk14pairINS_15__tree_iteratorIjPNS_11__tree_nodeIjPvEElEEbEC2IS6_RbLb0EEEOT_OT0_
00000000000f0654 W _ZNSt6__ndk14pairINS_15__tree_iteratorImPNS_11__tree_nodeImPvEElEEbEC2IS6_RbLb0EEEOT_OT0_
00000000000cc514 W _ZNSt6__ndk14pairINS_21__hash_const_iteratorIPNS_11__hash_nodeINS_12basic_stringIcNS_11char_traitsIcEENS_9allocatorIcEEEEPvEEEEbEC2INS_15__hash_iteratorISB_EEbLb0EEEONS0_IT_T0_EE
00000000000c2550 W _ZNSt6__ndk14pairINS_21__tree_const_iteratorINS_12basic_stringIcNS_11char_traitsIcEENS_9allocatorIcEEEEPNS_11__tree_nodeIS7_PvEElEEbEC2INS_15__tree_iteratorIS7_SB_lEEbLb0EEEONS0_IT_T0_EE
00000000000e04d4 W _ZNSt6__ndk14pairINS_21__tree_const_iteratorIjPNS_11__tree_nodeIjPvEElEEbEC2INS_15__tree_iteratorIjS5_lEEbLb0EEEONS0_IT_T0_EE
00000000000f0070 W _ZNSt6__ndk14pairINS_21__tree_const_iteratorImPNS_11__tree_nodeImPvEElEEbEC2INS_15__tree_iteratorImS5_lEEbLb0EEEONS0_IT_T0_EE
00000000000e20d4 W _ZNSt6__ndk14pairIP10Elf32_PhdrlEC2ILb1ELb0EEERKS2_RKl
00000000000e5a10 W _ZNSt6__ndk14pairIP10Elf32_ShdrlEC2ILb1ELb0EEERKS2_RKl
00000000001092a8 W _ZNSt6__ndk14pairIP10Elf64_PhdrlEC2ILb1ELb0EEERKS2_RKl
000000000010ccd8 W _ZNSt6__ndk14pairIP10Elf64_ShdrlEC2ILb1ELb0EEERKS2_RKl
00000000000c9664 W _ZNSt6__ndk14pairImmEC2ImmLb0EEEOT_OT0_
000000000015dfa8 T _ZNSt6__ndk14stodERKNS_12basic_stringIcNS_11char_traitsIcEENS_9allocatorIcEEEEPm
000000000015e18c T _ZNSt6__ndk14stodERKNS_12basic_stringIwNS_11char_traitsIwEENS_9allocatorIwEEEEPm
000000000015dbd8 T _ZNSt6__ndk14stofERKNS_12basic_stringIcNS_11char_traitsIcEENS_9allocatorIcEEEEPm
000000000015ddbc T _ZNSt6__ndk14stofERKNS_12basic_stringIwNS_11char_traitsIwEENS_9allocatorIwEEEEPm
000000000015c7e8 T _ZNSt6__ndk14stoiERKNS_12basic_stringIcNS_11char_traitsIcEENS_9allocatorIcEEEEPmi
000000000015ca2c T _ZNSt6__ndk14stoiERKNS_12basic_stringIwNS_11char_traitsIwEENS_9allocatorIwEEEEPmi
000000000015cc78 T _ZNSt6__ndk14stolERKNS_12basic_stringIcNS_11char_traitsIcEENS_9allocatorIcEEEEPmi
000000000015ce5c T _ZNSt6__ndk14stolERKNS_12basic_stringIwNS_11char_traitsIwEENS_9allocatorIwEEEEPmi
000000000015778c T _ZNSt6__ndk15alignEmmRPvRm
0000000000147a9c T _ZNSt6__ndk15ctypeIcE13classic_tableEv
000000000018f240 B _ZNSt6__ndk15ctypeIcE2idE
0000000000147f78 T _ZNSt6__ndk15ctypeIcEC1EPKmbm
0000000000147f78 T _ZNSt6__ndk15ctypeIcEC2EPKmbm
0000000000147ff4 T _ZNSt6__ndk15ctypeIcED0Ev
0000000000147fb0 T _ZNSt6__ndk15ctypeIcED1Ev
0000000000147fb0 T _ZNSt6__ndk15ctypeIcED2Ev
000000000018f230 B _ZNSt6__ndk15ctypeIwE2idE
0000000000147a50 T _ZNSt6__ndk15ctypeIwED0Ev
000000000015539c T _ZNSt6__ndk15ctypeIwED1Ev
000000000015539c T _ZNSt6__ndk15ctypeIwED2Ev
00000000001577d8 T _ZNSt6__ndk15mutex4lockEv
000000000015781c T _ZNSt6__ndk15mutex6unlockEv
00000000001577fc T _ZNSt6__ndk15mutex8try_lockEv
00000000001580f0 T _ZNSt6__ndk15mutexD1Ev
00000000001580f0 T _ZNSt6__ndk15mutexD2Ev
000000000015e378 T _ZNSt6__ndk15stoldERKNS_12basic_stringIcNS_11char_traitsIcEENS_9allocatorIcEEEEPm
000000000015e558 T _ZNSt6__ndk15stoldERKNS_12basic_stringIwNS_11char_traitsIwEENS_9allocatorIwEEEEPm
000000000015d420 T _ZNSt6__ndk15stollERKNS_12basic_stringIcNS_11char_traitsIcEENS_9allocatorIcEEEEPmi
000000000015d608 T _ZNSt6__ndk15stollERKNS_12basic_stringIwNS_11char_traitsIwEENS_9allocatorIwEEEEPmi
000000000015d048 T _ZNSt6__ndk15stoulERKNS_12basic_stringIcNS_11char_traitsIcEENS_9allocatorIcEEEEPmi
000000000015d230 T _ZNSt6__ndk15stoulERKNS_12basic_stringIwNS_11char_traitsIwEENS_9allocatorIwEEEEPmi
00000000000c4f04 W _ZNSt6__ndk15tupleIJONS_12basic_stringIcNS_11char_traitsIcEENS_9allocatorIcEEEEEEC2IJS6_ELb0ELb0EEEDpOT_
00000000000cc324 W _ZNSt6__ndk15tupleIJONS_17basic_string_viewIcNS_11char_traitsIcEEEEEEC2IJS4_ELb0ELb0EEEDpOT_
00000000000d7b80 W _ZNSt6__ndk15tupleIJRKNS_12basic_stringIcNS_11char_traitsIcEENS_9allocatorIcEEEEEEC2ILb1ELb0EEES8_
00000000000bef44 W _ZNSt6__ndk15tupleIJRNS_9allocatorINS_6vectorIhNS1_IhEEEEEEEEC2ILb1ELb0EEES6_
00000000000bf010 W _ZNSt6__ndk15tupleIJRmEEC2ILb1ELb0EEES1_
000000000012d4fc T _ZNSt6__ndk16__clocEv
0000000000160064 T _ZNSt6__ndk16__itoa8__u32toaEjPc
00000000001602f4 T _ZNSt6__ndk16__itoa8__u64toaEmPc
00000000000f6b58 W _ZNSt6__ndk16__sortIRZN7ElfFileI10Elf32_Ehdr10Elf32_Phdr10Elf32_Shdrjj9Elf32_Dyn9Elf32_Symt12Elf32_Verdef13Elf32_Verdaux13Elf32_Verneed13Elf32_Vernaux9Elf32_Rel10Elf32_RelaLj32EE19rebuildGnuHashTableE4spanIcESE_IS6_EEUlRT_RT0_E_PZNSD_19rebuildGnuHashTableESF_SG_E5EntryEEvSJ_SJ_SH_
00000000001181e8 W _ZNSt6__ndk16__sortIRZN7ElfFileI10Elf64_Ehdr10Elf64_Phdr10Elf64_Shdrmm9Elf64_Dyn9Elf64_Symt12Elf64_Verdef13Elf64_Verdaux13Elf64_Verneed13Elf64_Vernaux9Elf64_Rel10Elf64_RelaLj64EE19rebuildGnuHashTableE4spanIcESE_IS6_EEUlRT_RT0_E_PZNSD_19rebuildGnuHashTableESF_SG_E5EntryEEvSJ_SJ_SH_
00000000000c3e7c W _ZNSt6__ndk16__treeINS_12__value_typeINS_12basic_stringIcNS_11char_traitsIcEENS_9allocatorIcEEEES7_EENS_19__map_value_compareIS7_S8_NS_4lessIS7_EELb1EEENS5_IS8_EEE12__find_equalIS7_EERPNS_16__tree_node_baseIPvEERPNS_15__tree_end_nodeISJ_EERKT_
00000000000d7350 W _ZNSt6__ndk16__treeINS_12__value_typeINS_12basic_stringIcNS_11char_traitsIcEENS_9allocatorIcEEEES7_EENS_19__map_value_compareIS7_S8_NS_4lessIS7_EELb1EEENS5_IS8_EEE13__lower_boundIS7_EENS_15__tree_iteratorIS8_PNS_11__tree_nodeIS8_PvEElEERKT_SK_PNS_15__tree_end_nodeIPNS_16__tree_node_baseISI_EEEE
00000000000c3fd8 W _ZNSt6__ndk16__treeINS_12__value_typeINS_12basic_stringIcNS_11char_traitsIcEENS_9allocatorIcEEEES7_EENS_19__map_value_compareIS7_S8_NS_4lessIS7_EELb1EEENS5_IS8_EEE16__construct_nodeIJRKNS_21piecewise_construct_tENS_5tupleIJOS7_EEENSJ_IJEEEEEENS_10unique_ptrINS_11__tree_nodeIS8_PvEENS_22__tree_node_destructorINS5_ISQ_EEEEEEDpOT_
00000000000d7740 W _ZNSt6__ndk16__treeINS_12__value_typeINS_12basic_stringIcNS_11char_traitsIcEENS_9allocatorIcEEEES7_EENS_19__map_value_compareIS7_S8_NS_4lessIS7_EELb1EEENS5_IS8_EEE16__construct_nodeIJRKNS_21piecewise_construct_tENS_5tupleIJRKS7_EEENSJ_IJEEEEEENS_10unique_ptrINS_11__tree_nodeIS8_PvEENS_22__tree_node_destructorINS5_ISR_EEEEEEDpOT_
00000000000c4174 W _ZNSt6__ndk16__treeINS_12__value_typeINS_12basic_stringIcNS_11char_traitsIcEENS_9allocatorIcEEEES7_EENS_19__map_value_compareIS7_S8_NS_4lessIS7_EELb1EEENS5_IS8_EEE16__insert_node_atEPNS_15__tree_end_nodeIPNS_16__tree_node_baseIPvEEEERSJ_SJ_
00000000000c3c40 W _ZNSt6__ndk16__treeINS_12__value_typeINS_12basic_stringIcNS_11char_traitsIcEENS_9allocatorIcEEEES7_EENS_19__map_value_compareIS7_S8_NS_4lessIS7_EELb1EEENS5_IS8_EEE25__emplace_unique_key_argsIS7_JRKNS_21piecewise_construct_tENS_5tupleIJOS7_EEENSJ_IJEEEEEENS_4pairINS_15__tree_iteratorIS8_PNS_11__tree_nodeIS8_PvEElEEbEERKT_DpOT0_
00000000000d755c W _ZNSt6__ndk16__treeINS_12__value_typeINS_12basic_stringIcNS_11char_traitsIcEENS_9allocatorIcEEEES7_EENS_19__map_value_compareIS7_S8_NS_4lessIS7_EELb1EEENS5_IS8_EEE25__emplace_unique_key_argsIS7_JRKNS_21piecewise_construct_tENS_5tupleIJRKS7_EEENSJ_IJEEEEEENS_4pairINS_15__tree_iteratorIS8_PNS_11__tree_nodeIS8_PvEElEEbEERKT_DpOT0_
00000000000d71c8 W _ZNSt6__ndk16__treeINS_12__value_typeINS_12basic_stringIcNS_11char_traitsIcEENS_9allocatorIcEEEES7_EENS_19__map_value_compareIS7_S8_NS_4lessIS7_EELb1EEENS5_IS8_EEE4findIS7_EENS_15__tree_iteratorIS8_PNS_11__tree_nodeIS8_PvEElEERKT_
00000000000e12b8 W _ZNSt6__ndk16__treeINS_12__value_typeINS_12basic_stringIcNS_11char_traitsIcEENS_9allocatorIcEEEES7_EENS_19__map_value_compareIS7_S8_NS_4lessIS7_EELb1EEENS5_IS8_EEE5clearEv
00000000000e1330 W _ZNSt6__ndk16__treeINS_12__value_typeINS_12basic_stringIcNS_11char_traitsIcEENS_9allocatorIcEEEES7_EENS_19__map_value_compareIS7_S8_NS_4lessIS7_EELb1EEENS5_IS8_EEE7destroyEPNS_11__tree_nodeIS8_PvEE
000000000011bc48 W _ZNSt6__ndk16__treeINS_12__value_typeINS_12basic_stringIcNS_11char_traitsIcEENS_9allocatorIcEEEES7_EENS_19__map_value_compareIS7_S8_NS_4lessIS7_EELb1EEENS5_IS8_EEEC2ERKSC_
000000000011be04 W _ZNSt6__ndk16__treeINS_12__value_typeINS_12basic_stringIcNS_11char_traitsIcEENS_9allocatorIcEEEES7_EENS_19__map_value_compareIS7_S8_NS_4lessIS7_EELb1EEENS5_IS8_EEED2Ev
00000000000c2734 W _ZNSt6__ndk16__treeINS_12basic_stringIcNS_11char_traitsIcEENS_9allocatorIcEEEENS_4lessIS6_EENS4_IS6_EEE12__find_equalIS6_EERPNS_16__tree_node_baseIPvEERPNS_15__tree_end_nodeISF_EERKT_
00000000000c2890 W _ZNSt6__ndk16__treeINS_12basic_stringIcNS_11char_traitsIcEENS_9allocatorIcEEEENS_4lessIS6_EENS4_IS6_EEE16__construct_nodeIJS6_EEENS_10unique_ptrINS_11__tree_nodeIS6_PvEENS_22__tree_node_destructorINS4_ISF_EEEEEEDpOT_
00000000000c29c0 W _ZNSt6__ndk16__treeINS_12basic_stringIcNS_11char_traitsIcEENS_9allocatorIcEEEENS_4lessIS6_EENS4_IS6_EEE16__insert_node_atEPNS_15__tree_end_nodeIPNS_16__tree_node_baseIPvEEEERSF_SF_
00000000000c25dc W _ZNSt6__ndk16__treeINS_12basic_stringIcNS_11char_traitsIcEENS_9allocatorIcEEEENS_4lessIS6_EENS4_IS6_EEE25__emplace_unique_key_argsIS6_JS6_EEENS_4pairINS_15__tree_iteratorIS6_PNS_11__tree_nodeIS6_PvEElEEbEERKT_DpOT0_
000000000011bb94 W _ZNSt6__ndk16__treeINS_12basic_stringIcNS_11char_traitsIcEENS_9allocatorIcEEEENS_4lessIS6_EENS4_IS6_EEE7destroyEPNS_11__tree_nodeIS6_PvEE
000000000011b998 W _ZNSt6__ndk16__treeINS_12basic_stringIcNS_11char_traitsIcEENS_9allocatorIcEEEENS_4lessIS6_EENS4_IS6_EEEC2ERKS8_
000000000011bb54 W _ZNSt6__ndk16__treeINS_12basic_stringIcNS_11char_traitsIcEENS_9allocatorIcEEEENS_4lessIS6_EENS4_IS6_EEED2Ev
00000000000e06b8 W _ZNSt6__ndk16__treeIjNS_4lessIjEENS_9allocatorIjEEE12__find_equalIjEERPNS_16__tree_node_baseIPvEERPNS_15__tree_end_nodeISA_EERKT_
00000000000e0814 W _ZNSt6__ndk16__treeIjNS_4lessIjEENS_9allocatorIjEEE16__construct_nodeIJRKjEEENS_10unique_ptrINS_11__tree_nodeIjPvEENS_22__tree_node_destructorINS3_ISC_EEEEEEDpOT_
00000000000e0958 W _ZNSt6__ndk16__treeIjNS_4lessIjEENS_9allocatorIjEEE16__insert_node_atEPNS_15__tree_end_nodeIPNS_16__tree_node_baseIPvEEEERSA_SA_
00000000000e0560 W _ZNSt6__ndk16__treeIjNS_4lessIjEENS_9allocatorIjEEE25__emplace_unique_key_argsIjJRKjEEENS_4pairINS_15__tree_iteratorIjPNS_11__tree_nodeIjPvEElEEbEERKT_DpOT0_
00000000000e1410 W _ZNSt6__ndk16__treeIjNS_4lessIjEENS_9allocatorIjEEE7destroyEPNS_11__tree_nodeIjPvEE
00000000000dffcc W _ZNSt6__ndk16__treeIjNS_4lessIjEENS_9allocatorIjEEEC2ERKS2_
00000000000e13d0 W _ZNSt6__ndk16__treeIjNS_4lessIjEENS_9allocatorIjEEED2Ev
00000000000f0254 W _ZNSt6__ndk16__treeImNS_4lessImEENS_9allocatorImEEE12__find_equalImEERPNS_16__tree_node_baseIPvEERPNS_15__tree_end_nodeISA_EERKT_
